

Microchip MPLAB XC8 Assembler V2.41 build 20230208172133 
                                                                                               Fri Nov 03 23:42:48 2023

Microchip MPLAB XC8 C Compiler v2.41 (Free license) build 20230208172133 Og1 
     1                           	processor	16F887
     2                           	pagewidth 120
     3                           	opt	flic
     4                           	psect	idataBANK3,global,class=CODE,delta=2,noexec
     5                           	psect	strings,global,class=STRING,delta=2,noexec
     6                           	psect	cinit,global,class=CODE,merge=1,delta=2
     7                           	psect	bssBANK0,global,class=BANK0,space=1,delta=1,noexec
     8                           	psect	bssBANK1,global,class=BANK1,space=1,delta=1,noexec
     9                           	psect	bssBANK3,global,class=BANK3,space=1,delta=1,noexec
    10                           	psect	dataBANK3,global,class=BANK3,space=1,delta=1,noexec
    11                           	psect	inittext,global,class=CODE,delta=2
    12                           	psect	clrtext,global,class=CODE,delta=2
    13                           	psect	cstackBANK1,global,class=BANK1,space=1,delta=1,noexec
    14                           	psect	cstackCOMMON,global,class=COMMON,space=1,delta=1,noexec
    15                           	psect	cstackBANK0,global,class=BANK0,space=1,delta=1,noexec
    16                           	psect	maintext,global,class=CODE,split=1,delta=2
    17                           	psect	text1,local,class=CODE,merge=1,delta=2
    18                           	psect	text2,local,class=CODE,merge=1,delta=2
    19                           	psect	text3,local,class=CODE,merge=1,delta=2,group=3
    20                           	psect	text4,local,class=CODE,merge=1,delta=2
    21                           	psect	text5,local,class=CODE,merge=1,delta=2
    22                           	psect	text6,local,class=CODE,merge=1,delta=2
    23                           	psect	text7,local,class=CODE,merge=1,delta=2
    24                           	psect	text8,local,class=CODE,merge=1,delta=2
    25                           	psect	text9,local,class=CODE,merge=1,delta=2,group=1
    26                           	psect	text10,local,class=CODE,merge=1,delta=2,group=2
    27                           	psect	text11,local,class=CODE,merge=1,delta=2,group=2
    28                           	psect	text12,local,class=CODE,merge=1,delta=2
    29                           	psect	text13,local,class=CODE,merge=1,delta=2
    30                           	psect	text14,local,class=CODE,merge=1,delta=2,group=3
    31                           	psect	text15,local,class=CODE,merge=1,delta=2,group=3
    32                           	psect	text16,local,class=CODE,merge=1,delta=2,group=2
    33                           	psect	text17,local,class=CODE,merge=1,delta=2,group=3
    34                           	psect	text18,local,class=CODE,merge=1,delta=2,group=2
    35                           	psect	text19,local,class=CODE,merge=1,delta=2,group=2
    36                           	psect	text20,local,class=CODE,merge=1,delta=2,group=2
    37                           	psect	text21,local,class=CODE,merge=1,delta=2,group=2
    38                           	psect	text22,local,class=CODE,merge=1,delta=2,group=2
    39                           	psect	text23,local,class=CODE,merge=1,delta=2,group=2
    40                           	psect	text24,local,class=CODE,merge=1,delta=2,group=2
    41                           	psect	text25,local,class=CODE,merge=1,delta=2
    42                           	psect	text26,local,class=CODE,merge=1,delta=2
    43                           	psect	text27,local,class=CODE,merge=1,delta=2
    44                           	psect	text28,local,class=CODE,merge=1,delta=2
    45                           	psect	text29,local,class=CODE,merge=1,delta=2
    46                           	psect	text30,local,class=CODE,merge=1,delta=2
    47                           	psect	text31,local,class=CODE,merge=1,delta=2
    48                           	psect	text32,local,class=CODE,merge=1,delta=2
    49                           	psect	text33,local,class=CODE,merge=1,delta=2
    50                           	psect	config,global,abs,ovrld,class=CONFIG,space=4,delta=2,noexec
    51                           	dabs	1,0x7E,2
    52     0000                     
    53                           ; Version 2.20
    54                           ; Generated 12/02/2020 GMT
    55                           ; 
    56                           ; Copyright © 2020, Microchip Technology Inc. and its subsidiaries ("Microchip")
    57                           ; All rights reserved.
    58                           ; 
    59                           ; This software is developed by Microchip Technology Inc. and its subsidiaries ("Microch
      +                          ip").
    60                           ; 
    61                           ; Redistribution and use in source and binary forms, with or without modification, are
    62                           ; permitted provided that the following conditions are met:
    63                           ; 
    64                           ;     1. Redistributions of source code must retain the above copyright notice, this lis
      +                          t of
    65                           ;        conditions and the following disclaimer.
    66                           ; 
    67                           ;     2. Redistributions in binary form must reproduce the above copyright notice, this 
      +                          list
    68                           ;        of conditions and the following disclaimer in the documentation and/or other
    69                           ;        materials provided with the distribution.
    70                           ; 
    71                           ;     3. Microchip's name may not be used to endorse or promote products derived from th
      +                          is
    72                           ;        software without specific prior written permission.
    73                           ; 
    74                           ; THIS SOFTWARE IS PROVIDED BY MICROCHIP "AS IS" AND ANY EXPRESS OR IMPLIED WARRANTIES,
    75                           ; INCLUDING, BUT NOT LIMITED TO, THE IMPLIED WARRANTIES OF MERCHANTABILITY AND FITNESS F
      +                          OR
    76                           ; PURPOSE ARE DISCLAIMED.  IN NO EVENT SHALL MICROCHIP BE LIABLE FOR ANY DIRECT, INDIREC
      +                          T,
    77                           ; INCIDENTAL, SPECIAL, EXEMPLARY, OR CONSEQUENTIAL DAMAGES (INCLUDING BUT NOT LIMITED TO
    78                           ; PROCUREMENT OF SUBSTITUTE GOODS OR SERVICES; LOSS OF USE, DATA OR PROFITS; OR BUSINESS
    79                           ; INTERRUPTION) HOWSOEVER CAUSED AND ON ANY THEORY OF LIABILITY, WHETHER IN CONTRACT, ST
      +                          RICT
    80                           ; LIABILITY, OR TORT (INCLUDING NEGLIGENCE OR OTHERWISE) ARISING IN ANY WAY OUT OF THE U
      +                          SE OF
    81                           ; THIS SOFTWARE, EVEN IF ADVISED OF THE POSSIBILITY OF SUCH DAMAGE.
    82                           ; 
    83                           ; 
    84                           ; Code-generator required, PIC16F887 Definitions
    85                           ; 
    86                           ; SFR Addresses
    87     0000                     	;# 
    88     0001                     	;# 
    89     0002                     	;# 
    90     0003                     	;# 
    91     0004                     	;# 
    92     0005                     	;# 
    93     0006                     	;# 
    94     0007                     	;# 
    95     0008                     	;# 
    96     0009                     	;# 
    97     000A                     	;# 
    98     000B                     	;# 
    99     000C                     	;# 
   100     000D                     	;# 
   101     000E                     	;# 
   102     000E                     	;# 
   103     000F                     	;# 
   104     0010                     	;# 
   105     0011                     	;# 
   106     0012                     	;# 
   107     0013                     	;# 
   108     0014                     	;# 
   109     0015                     	;# 
   110     0015                     	;# 
   111     0016                     	;# 
   112     0017                     	;# 
   113     0018                     	;# 
   114     0019                     	;# 
   115     001A                     	;# 
   116     001B                     	;# 
   117     001B                     	;# 
   118     001C                     	;# 
   119     001D                     	;# 
   120     001E                     	;# 
   121     001F                     	;# 
   122     0081                     	;# 
   123     0085                     	;# 
   124     0086                     	;# 
   125     0087                     	;# 
   126     0088                     	;# 
   127     0089                     	;# 
   128     008C                     	;# 
   129     008D                     	;# 
   130     008E                     	;# 
   131     008F                     	;# 
   132     0090                     	;# 
   133     0091                     	;# 
   134     0092                     	;# 
   135     0093                     	;# 
   136     0093                     	;# 
   137     0093                     	;# 
   138     0094                     	;# 
   139     0095                     	;# 
   140     0096                     	;# 
   141     0097                     	;# 
   142     0098                     	;# 
   143     0099                     	;# 
   144     009A                     	;# 
   145     009B                     	;# 
   146     009C                     	;# 
   147     009D                     	;# 
   148     009E                     	;# 
   149     009F                     	;# 
   150     0105                     	;# 
   151     0107                     	;# 
   152     0108                     	;# 
   153     0109                     	;# 
   154     010C                     	;# 
   155     010C                     	;# 
   156     010D                     	;# 
   157     010E                     	;# 
   158     010F                     	;# 
   159     0185                     	;# 
   160     0187                     	;# 
   161     0188                     	;# 
   162     0189                     	;# 
   163     018C                     	;# 
   164     018D                     	;# 
   165     0000                     	;# 
   166     0001                     	;# 
   167     0002                     	;# 
   168     0003                     	;# 
   169     0004                     	;# 
   170     0005                     	;# 
   171     0006                     	;# 
   172     0007                     	;# 
   173     0008                     	;# 
   174     0009                     	;# 
   175     000A                     	;# 
   176     000B                     	;# 
   177     000C                     	;# 
   178     000D                     	;# 
   179     000E                     	;# 
   180     000E                     	;# 
   181     000F                     	;# 
   182     0010                     	;# 
   183     0011                     	;# 
   184     0012                     	;# 
   185     0013                     	;# 
   186     0014                     	;# 
   187     0015                     	;# 
   188     0015                     	;# 
   189     0016                     	;# 
   190     0017                     	;# 
   191     0018                     	;# 
   192     0019                     	;# 
   193     001A                     	;# 
   194     001B                     	;# 
   195     001B                     	;# 
   196     001C                     	;# 
   197     001D                     	;# 
   198     001E                     	;# 
   199     001F                     	;# 
   200     0081                     	;# 
   201     0085                     	;# 
   202     0086                     	;# 
   203     0087                     	;# 
   204     0088                     	;# 
   205     0089                     	;# 
   206     008C                     	;# 
   207     008D                     	;# 
   208     008E                     	;# 
   209     008F                     	;# 
   210     0090                     	;# 
   211     0091                     	;# 
   212     0092                     	;# 
   213     0093                     	;# 
   214     0093                     	;# 
   215     0093                     	;# 
   216     0094                     	;# 
   217     0095                     	;# 
   218     0096                     	;# 
   219     0097                     	;# 
   220     0098                     	;# 
   221     0099                     	;# 
   222     009A                     	;# 
   223     009B                     	;# 
   224     009C                     	;# 
   225     009D                     	;# 
   226     009E                     	;# 
   227     009F                     	;# 
   228     0105                     	;# 
   229     0107                     	;# 
   230     0108                     	;# 
   231     0109                     	;# 
   232     010C                     	;# 
   233     010C                     	;# 
   234     010D                     	;# 
   235     010E                     	;# 
   236     010F                     	;# 
   237     0185                     	;# 
   238     0187                     	;# 
   239     0188                     	;# 
   240     0189                     	;# 
   241     018C                     	;# 
   242     018D                     	;# 
   243     0000                     	;# 
   244     0001                     	;# 
   245     0002                     	;# 
   246     0003                     	;# 
   247     0004                     	;# 
   248     0005                     	;# 
   249     0006                     	;# 
   250     0007                     	;# 
   251     0008                     	;# 
   252     0009                     	;# 
   253     000A                     	;# 
   254     000B                     	;# 
   255     000C                     	;# 
   256     000D                     	;# 
   257     000E                     	;# 
   258     000E                     	;# 
   259     000F                     	;# 
   260     0010                     	;# 
   261     0011                     	;# 
   262     0012                     	;# 
   263     0013                     	;# 
   264     0014                     	;# 
   265     0015                     	;# 
   266     0015                     	;# 
   267     0016                     	;# 
   268     0017                     	;# 
   269     0018                     	;# 
   270     0019                     	;# 
   271     001A                     	;# 
   272     001B                     	;# 
   273     001B                     	;# 
   274     001C                     	;# 
   275     001D                     	;# 
   276     001E                     	;# 
   277     001F                     	;# 
   278     0081                     	;# 
   279     0085                     	;# 
   280     0086                     	;# 
   281     0087                     	;# 
   282     0088                     	;# 
   283     0089                     	;# 
   284     008C                     	;# 
   285     008D                     	;# 
   286     008E                     	;# 
   287     008F                     	;# 
   288     0090                     	;# 
   289     0091                     	;# 
   290     0092                     	;# 
   291     0093                     	;# 
   292     0093                     	;# 
   293     0093                     	;# 
   294     0094                     	;# 
   295     0095                     	;# 
   296     0096                     	;# 
   297     0097                     	;# 
   298     0098                     	;# 
   299     0099                     	;# 
   300     009A                     	;# 
   301     009B                     	;# 
   302     009C                     	;# 
   303     009D                     	;# 
   304     009E                     	;# 
   305     009F                     	;# 
   306     0105                     	;# 
   307     0107                     	;# 
   308     0108                     	;# 
   309     0109                     	;# 
   310     010C                     	;# 
   311     010C                     	;# 
   312     010D                     	;# 
   313     010E                     	;# 
   314     010F                     	;# 
   315     0185                     	;# 
   316     0187                     	;# 
   317     0188                     	;# 
   318     0189                     	;# 
   319     018C                     	;# 
   320     018D                     	;# 
   321     0000                     	;# 
   322     0001                     	;# 
   323     0002                     	;# 
   324     0003                     	;# 
   325     0004                     	;# 
   326     0005                     	;# 
   327     0006                     	;# 
   328     0007                     	;# 
   329     0008                     	;# 
   330     0009                     	;# 
   331     000A                     	;# 
   332     000B                     	;# 
   333     000C                     	;# 
   334     000D                     	;# 
   335     000E                     	;# 
   336     000E                     	;# 
   337     000F                     	;# 
   338     0010                     	;# 
   339     0011                     	;# 
   340     0012                     	;# 
   341     0013                     	;# 
   342     0014                     	;# 
   343     0015                     	;# 
   344     0015                     	;# 
   345     0016                     	;# 
   346     0017                     	;# 
   347     0018                     	;# 
   348     0019                     	;# 
   349     001A                     	;# 
   350     001B                     	;# 
   351     001B                     	;# 
   352     001C                     	;# 
   353     001D                     	;# 
   354     001E                     	;# 
   355     001F                     	;# 
   356     0081                     	;# 
   357     0085                     	;# 
   358     0086                     	;# 
   359     0087                     	;# 
   360     0088                     	;# 
   361     0089                     	;# 
   362     008C                     	;# 
   363     008D                     	;# 
   364     008E                     	;# 
   365     008F                     	;# 
   366     0090                     	;# 
   367     0091                     	;# 
   368     0092                     	;# 
   369     0093                     	;# 
   370     0093                     	;# 
   371     0093                     	;# 
   372     0094                     	;# 
   373     0095                     	;# 
   374     0096                     	;# 
   375     0097                     	;# 
   376     0098                     	;# 
   377     0099                     	;# 
   378     009A                     	;# 
   379     009B                     	;# 
   380     009C                     	;# 
   381     009D                     	;# 
   382     009E                     	;# 
   383     009F                     	;# 
   384     0105                     	;# 
   385     0107                     	;# 
   386     0108                     	;# 
   387     0109                     	;# 
   388     010C                     	;# 
   389     010C                     	;# 
   390     010D                     	;# 
   391     010E                     	;# 
   392     010F                     	;# 
   393     0185                     	;# 
   394     0187                     	;# 
   395     0188                     	;# 
   396     0189                     	;# 
   397     018C                     	;# 
   398     018D                     	;# 
   399     0000                     	;# 
   400     0001                     	;# 
   401     0002                     	;# 
   402     0003                     	;# 
   403     0004                     	;# 
   404     0005                     	;# 
   405     0006                     	;# 
   406     0007                     	;# 
   407     0008                     	;# 
   408     0009                     	;# 
   409     000A                     	;# 
   410     000B                     	;# 
   411     000C                     	;# 
   412     000D                     	;# 
   413     000E                     	;# 
   414     000E                     	;# 
   415     000F                     	;# 
   416     0010                     	;# 
   417     0011                     	;# 
   418     0012                     	;# 
   419     0013                     	;# 
   420     0014                     	;# 
   421     0015                     	;# 
   422     0015                     	;# 
   423     0016                     	;# 
   424     0017                     	;# 
   425     0018                     	;# 
   426     0019                     	;# 
   427     001A                     	;# 
   428     001B                     	;# 
   429     001B                     	;# 
   430     001C                     	;# 
   431     001D                     	;# 
   432     001E                     	;# 
   433     001F                     	;# 
   434     0081                     	;# 
   435     0085                     	;# 
   436     0086                     	;# 
   437     0087                     	;# 
   438     0088                     	;# 
   439     0089                     	;# 
   440     008C                     	;# 
   441     008D                     	;# 
   442     008E                     	;# 
   443     008F                     	;# 
   444     0090                     	;# 
   445     0091                     	;# 
   446     0092                     	;# 
   447     0093                     	;# 
   448     0093                     	;# 
   449     0093                     	;# 
   450     0094                     	;# 
   451     0095                     	;# 
   452     0096                     	;# 
   453     0097                     	;# 
   454     0098                     	;# 
   455     0099                     	;# 
   456     009A                     	;# 
   457     009B                     	;# 
   458     009C                     	;# 
   459     009D                     	;# 
   460     009E                     	;# 
   461     009F                     	;# 
   462     0105                     	;# 
   463     0107                     	;# 
   464     0108                     	;# 
   465     0109                     	;# 
   466     010C                     	;# 
   467     010C                     	;# 
   468     010D                     	;# 
   469     010E                     	;# 
   470     010F                     	;# 
   471     0185                     	;# 
   472     0187                     	;# 
   473     0188                     	;# 
   474     0189                     	;# 
   475     018C                     	;# 
   476     018D                     	;# 
   477     0000                     	;# 
   478     0001                     	;# 
   479     0002                     	;# 
   480     0003                     	;# 
   481     0004                     	;# 
   482     0005                     	;# 
   483     0006                     	;# 
   484     0007                     	;# 
   485     0008                     	;# 
   486     0009                     	;# 
   487     000A                     	;# 
   488     000B                     	;# 
   489     000C                     	;# 
   490     000D                     	;# 
   491     000E                     	;# 
   492     000E                     	;# 
   493     000F                     	;# 
   494     0010                     	;# 
   495     0011                     	;# 
   496     0012                     	;# 
   497     0013                     	;# 
   498     0014                     	;# 
   499     0015                     	;# 
   500     0015                     	;# 
   501     0016                     	;# 
   502     0017                     	;# 
   503     0018                     	;# 
   504     0019                     	;# 
   505     001A                     	;# 
   506     001B                     	;# 
   507     001B                     	;# 
   508     001C                     	;# 
   509     001D                     	;# 
   510     001E                     	;# 
   511     001F                     	;# 
   512     0081                     	;# 
   513     0085                     	;# 
   514     0086                     	;# 
   515     0087                     	;# 
   516     0088                     	;# 
   517     0089                     	;# 
   518     008C                     	;# 
   519     008D                     	;# 
   520     008E                     	;# 
   521     008F                     	;# 
   522     0090                     	;# 
   523     0091                     	;# 
   524     0092                     	;# 
   525     0093                     	;# 
   526     0093                     	;# 
   527     0093                     	;# 
   528     0094                     	;# 
   529     0095                     	;# 
   530     0096                     	;# 
   531     0097                     	;# 
   532     0098                     	;# 
   533     0099                     	;# 
   534     009A                     	;# 
   535     009B                     	;# 
   536     009C                     	;# 
   537     009D                     	;# 
   538     009E                     	;# 
   539     009F                     	;# 
   540     0105                     	;# 
   541     0107                     	;# 
   542     0108                     	;# 
   543     0109                     	;# 
   544     010C                     	;# 
   545     010C                     	;# 
   546     010D                     	;# 
   547     010E                     	;# 
   548     010F                     	;# 
   549     0185                     	;# 
   550     0187                     	;# 
   551     0188                     	;# 
   552     0189                     	;# 
   553     018C                     	;# 
   554     018D                     	;# 
   555                           
   556                           	psect	idataBANK3
   557     128E                     __pidataBANK3:
   558                           
   559                           ;initializer for keypad_getkey@F1268
   560     128E  3431               	retlw	49
   561     128F  3432               	retlw	50
   562     1290  3433               	retlw	51
   563     1291  3441               	retlw	65
   564     1292  3434               	retlw	52
   565     1293  3435               	retlw	53
   566     1294  3436               	retlw	54
   567     1295  3442               	retlw	66
   568     1296  3437               	retlw	55
   569     1297  3438               	retlw	56
   570     1298  3439               	retlw	57
   571     1299  3443               	retlw	67
   572     129A  342A               	retlw	42
   573     129B  3430               	retlw	48
   574     129C  3423               	retlw	35
   575     129D  3444               	retlw	68
   576                           
   577                           	psect	strings
   578     0800                     __pstrings:
   579     0800                     stringtab:
   580     0800                     __stringtab:
   581                           
   582                           ;	String table - string pointers are 1 byte each
   583     0800  1BFF               	btfsc	btemp+1,7
   584     0801  280A               	ljmp	stringcode
   585     0802  1383               	bcf	3,7
   586     0803  187F               	btfsc	btemp+1,0
   587     0804  1783               	bsf	3,7
   588     0805  0800               	movf	0,w
   589     0806  0A84               	incf	4,f
   590     0807  1903               	skipnz
   591     0808  0AFF               	incf	btemp+1,f
   592     0809  0008               	return
   593     080A                     stringcode:
   594     080A                     stringdir:
   595     080A  3008               	movlw	high stringdir
   596     080B  008A               	movwf	10
   597     080C  0804               	movf	4,w
   598     080D  0A84               	incf	4,f
   599     080E  0782               	addwf	2,f
   600     080F                     __stringbase:
   601     080F  3400               	retlw	0
   602     0810                     __end_of__stringtab:
   603     0810                     _dpowers:
   604     0810  3401               	retlw	1
   605     0811  3400               	retlw	0
   606     0812  340A               	retlw	10
   607     0813  3400               	retlw	0
   608     0814  3464               	retlw	100
   609     0815  3400               	retlw	0
   610     0816  34E8               	retlw	232
   611     0817  3403               	retlw	3
   612     0818  3410               	retlw	16
   613     0819  3427               	retlw	39
   614     081A                     __end_of_dpowers:
   615     081A                     log@coeff:
   616     081A  3400               	retlw	0
   617     081B  3400               	retlw	0
   618     081C  3400               	retlw	0
   619     081D  3400               	retlw	0
   620     081E  34C4               	retlw	196
   621     081F  34FF               	retlw	255
   622     0820  347F               	retlw	127
   623     0821  343F               	retlw	63
   624     0822  3480               	retlw	128
   625     0823  34EF               	retlw	239
   626     0824  34FF               	retlw	255
   627     0825  34BE               	retlw	190
   628     0826  3490               	retlw	144
   629     0827  34E1               	retlw	225
   630     0828  34A9               	retlw	169
   631     0829  343E               	retlw	62
   632     082A  34EC               	retlw	236
   633     082B  3482               	retlw	130
   634     082C  3476               	retlw	118
   635     082D  34BE               	retlw	190
   636     082E  3482               	retlw	130
   637     082F  34AD               	retlw	173
   638     0830  342B               	retlw	43
   639     0831  343E               	retlw	62
   640     0832  340E               	retlw	14
   641     0833  343C               	retlw	60
   642     0834  34C3               	retlw	195
   643     0835  34BD               	retlw	189
   644     0836  3487               	retlw	135
   645     0837  34D1               	retlw	209
   646     0838  3413               	retlw	19
   647     0839  343D               	retlw	61
   648     083A  3441               	retlw	65
   649     083B  3478               	retlw	120
   650     083C  34D3               	retlw	211
   651     083D  34BB               	retlw	187
   652     083E                     __end_oflog@coeff:
   653     083E                     _password:
   654     083E  3432               	retlw	50
   655     083F  3430               	retlw	48
   656     0840  3432               	retlw	50
   657     0841  3433               	retlw	51
   658     0842  3430               	retlw	48
   659     0843                     __end_of_password:
   660     001E                     _ADRESH	set	30
   661     001F                     _ADCON0bits	set	31
   662     0008                     _PORTDbits	set	8
   663     0008                     _PORTD	set	8
   664     0006                     _PORTB	set	6
   665     0009                     _PORTE	set	9
   666     0048                     _RE0	set	72
   667     004A                     _RE2	set	74
   668     0049                     _RE1	set	73
   669     003A                     _RC2	set	58
   670     0038                     _RC0	set	56
   671     0039                     _RC1	set	57
   672     009E                     _ADRESL	set	158
   673     009F                     _ADCON1bits	set	159
   674     0081                     _OPTION_REGbits	set	129
   675     0086                     _TRISB	set	134
   676     0085                     _TRISA	set	133
   677     0087                     _TRISC	set	135
   678     0088                     _TRISD	set	136
   679     0089                     _TRISE	set	137
   680     008F                     _OSCCON	set	143
   681     0188                     _ANSEL	set	392
   682     0843                     STR_1:
   683     0843  3449               	retlw	73	;'I'
   684     0844  3452               	retlw	82	;'R'
   685     0845  3420               	retlw	32	;' '
   686     0846  3425               	retlw	37	;'%'
   687     0847  3464               	retlw	100	;'d'
   688     0848  342C               	retlw	44	;','
   689     0849  3420               	retlw	32	;' '
   690     084A  3448               	retlw	72	;'H'
   691     084B  3420               	retlw	32	;' '
   692     084C  3425               	retlw	37	;'%'
   693     084D  3464               	retlw	100	;'d'
   694     084E  342C               	retlw	44	;','
   695     084F  3420               	retlw	32	;' '
   696     0850  344D               	retlw	77	;'M'
   697     0851  3454               	retlw	84	;'T'
   698     0852  3420               	retlw	32	;' '
   699     0853  3425               	retlw	37	;'%'
   700     0854  3464               	retlw	100	;'d'
   701     0855  3400               	retlw	0
   702     0856                     STR_4:
   703     0856  3443               	retlw	67	;'C'
   704     0857  346C               	retlw	108	;'l'
   705     0858  3461               	retlw	97	;'a'
   706     0859  3476               	retlw	118	;'v'
   707     085A  3465               	retlw	101	;'e'
   708     085B  3420               	retlw	32	;' '
   709     085C  3449               	retlw	73	;'I'
   710     085D  346E               	retlw	110	;'n'
   711     085E  3463               	retlw	99	;'c'
   712     085F  346F               	retlw	111	;'o'
   713     0860  3472               	retlw	114	;'r'
   714     0861  3472               	retlw	114	;'r'
   715     0862  3465               	retlw	101	;'e'
   716     0863  3463               	retlw	99	;'c'
   717     0864  3474               	retlw	116	;'t'
   718     0865  3461               	retlw	97	;'a'
   719     0866  3400               	retlw	0
   720     0867                     STR_6:
   721     0867  344E               	retlw	78	;'N'
   722     0868  344F               	retlw	79	;'O'
   723     0869  3420               	retlw	32	;' '
   724     086A  3441               	retlw	65	;'A'
   725     086B  3455               	retlw	85	;'U'
   726     086C  3454               	retlw	84	;'T'
   727     086D  344F               	retlw	79	;'O'
   728     086E  3452               	retlw	82	;'R'
   729     086F  3449               	retlw	73	;'I'
   730     0870  345A               	retlw	90	;'Z'
   731     0871  3441               	retlw	65	;'A'
   732     0872  3444               	retlw	68	;'D'
   733     0873  344F               	retlw	79	;'O'
   734     0874  3421               	retlw	33	;'!'
   735     0875  3421               	retlw	33	;'!'
   736     0876  3400               	retlw	0
   737     0877                     STR_7:
   738     0877  3454               	retlw	84	;'T'
   739     0878  3465               	retlw	101	;'e'
   740     0879  346D               	retlw	109	;'m'
   741     087A  3470               	retlw	112	;'p'
   742     087B  3465               	retlw	101	;'e'
   743     087C  3472               	retlw	114	;'r'
   744     087D  3461               	retlw	97	;'a'
   745     087E  3474               	retlw	116	;'t'
   746     087F  3475               	retlw	117	;'u'
   747     0880  3472               	retlw	114	;'r'
   748     0881  3461               	retlw	97	;'a'
   749     0882  3420               	retlw	32	;' '
   750     0883  3441               	retlw	65	;'A'
   751     0884  346D               	retlw	109	;'m'
   752     0885  3462               	retlw	98	;'b'
   753     0886  3400               	retlw	0
   754     0887                     STR_3:
   755     0887  3443               	retlw	67	;'C'
   756     0888  346C               	retlw	108	;'l'
   757     0889  3461               	retlw	97	;'a'
   758     088A  3476               	retlw	118	;'v'
   759     088B  3465               	retlw	101	;'e'
   760     088C  3420               	retlw	32	;' '
   761     088D  3443               	retlw	67	;'C'
   762     088E  346F               	retlw	111	;'o'
   763     088F  3472               	retlw	114	;'r'
   764     0890  3472               	retlw	114	;'r'
   765     0891  3465               	retlw	101	;'e'
   766     0892  3463               	retlw	99	;'c'
   767     0893  3474               	retlw	116	;'t'
   768     0894  3461               	retlw	97	;'a'
   769     0895  3400               	retlw	0
   770     0896                     STR_9:
   771     0896  3451               	retlw	81	;'Q'
   772     0897  3475               	retlw	117	;'u'
   773     0898  3465               	retlw	101	;'e'
   774     0899  3420               	retlw	32	;' '
   775     089A  3443               	retlw	67	;'C'
   776     089B  3461               	retlw	97	;'a'
   777     089C  346C               	retlw	108	;'l'
   778     089D  346F               	retlw	111	;'o'
   779     089E  3472               	retlw	114	;'r'
   780     089F  3420               	retlw	32	;' '
   781     08A0  343A               	retlw	58	;':'
   782     08A1  3428               	retlw	40	;'('
   783     08A2  3400               	retlw	0
   784     08A3                     STR_5:
   785     08A3  3442               	retlw	66	;'B'
   786     08A4  346C               	retlw	108	;'l'
   787     08A5  346F               	retlw	111	;'o'
   788     08A6  3463               	retlw	99	;'c'
   789     08A7  346B               	retlw	107	;'k'
   790     08A8  3420               	retlw	32	;' '
   791     08A9  3453               	retlw	83	;'S'
   792     08AA  3479               	retlw	121	;'y'
   793     08AB  3473               	retlw	115	;'s'
   794     08AC  3474               	retlw	116	;'t'
   795     08AD  3465               	retlw	101	;'e'
   796     08AE  346D               	retlw	109	;'m'
   797     08AF  3400               	retlw	0
   798     08B0                     STR_2:
   799     08B0  3450               	retlw	80	;'P'
   800     08B1  3472               	retlw	114	;'r'
   801     08B2  3465               	retlw	101	;'e'
   802     08B3  3473               	retlw	115	;'s'
   803     08B4  3473               	retlw	115	;'s'
   804     08B5  3420               	retlw	32	;' '
   805     08B6  3461               	retlw	97	;'a'
   806     08B7  3420               	retlw	32	;' '
   807     08B8  344B               	retlw	75	;'K'
   808     08B9  3465               	retlw	101	;'e'
   809     08BA  3479               	retlw	121	;'y'
   810     08BB  3400               	retlw	0
   811     08BC                     STR_8:
   812     08BC  3454               	retlw	84	;'T'
   813     08BD  3453               	retlw	83	;'S'
   814     08BE  3420               	retlw	32	;' '
   815     08BF  3425               	retlw	37	;'%'
   816     08C0  3464               	retlw	100	;'d'
   817     08C1  3400               	retlw	0
   818                           
   819                           	psect	cinit
   820     07DC                     start_initialization:	
   821                           ; #config settings
   822                           
   823     07DC                     __initialization:
   824                           
   825                           ; Initialize objects allocated to BANK3
   826     07DC  1783               	bsf	3,7	;select IRP bank2
   827     07DD  30B1               	movlw	low (__pdataBANK3+16)
   828     07DE  00FD               	movwf	btemp+-1
   829     07DF  3012               	movlw	high __pidataBANK3
   830     07E0  00FE               	movwf	btemp
   831     07E1  308E               	movlw	low __pidataBANK3
   832     07E2  00FF               	movwf	btemp+1
   833     07E3  30A1               	movlw	low __pdataBANK3
   834     07E4  0084               	movwf	4
   835     07E5  160A  118A  22A2  120A  118A  	fcall	init_ram0
   836                           
   837                           ; Clear objects allocated to BANK3
   838     07EA  3090               	movlw	low __pbssBANK3
   839     07EB  0084               	movwf	4
   840     07EC  30A1               	movlw	low (__pbssBANK3+17)
   841     07ED  120A  158A  20C5  120A  118A  	fcall	clear_ram0
   842                           
   843                           ; Clear objects allocated to BANK1
   844     07F2  1383               	bcf	3,7	;select IRP bank0
   845     07F3  30D3               	movlw	low __pbssBANK1
   846     07F4  0084               	movwf	4
   847     07F5  30E0               	movlw	low (__pbssBANK1+13)
   848     07F6  120A  158A  20C5  120A  118A  	fcall	clear_ram0
   849                           
   850                           ; Clear objects allocated to BANK0
   851     07FB  01EF               	clrf	__pbssBANK0& (0+127)
   852     07FC                     end_of_initialization:	
   853                           ;End of C runtime variable initialization code
   854                           
   855     07FC                     __end_of__initialization:
   856     07FC  0183               	clrf	3
   857     07FD  120A  118A  2806   	ljmp	_main	;jump to C main() function
   858                           
   859                           	psect	bssBANK0
   860     006F                     __pbssBANK0:
   861     006F                     _Estado:
   862     006F                     	ds	1
   863                           
   864                           	psect	bssBANK1
   865     00D3                     __pbssBANK1:
   866     00D3                     _errno:
   867     00D3                     	ds	2
   868     00D5                     _system_lock:
   869     00D5                     	ds	1
   870     00D6                     _idx:
   871     00D6                     	ds	1
   872     00D7                     _intend:
   873     00D7                     	ds	1
   874     00D8                     _var_sensor_metal:
   875     00D8                     	ds	1
   876     00D9                     _var_sensor_hall:
   877     00D9                     	ds	1
   878     00DA                     _var_sensor_ir:
   879     00DA                     	ds	1
   880     00DB                     _pass_user:
   881     00DB                     	ds	5
   882                           
   883                           	psect	bssBANK3
   884     0190                     __pbssBANK3:
   885     0190                     _buffer:
   886     0190                     	ds	17
   887                           
   888                           	psect	dataBANK3
   889     01A1                     __pdataBANK3:
   890     01A1                     keypad_getkey@F1268:
   891     01A1                     	ds	16
   892                           
   893                           	psect	inittext
   894     129E                     init_fetch0:	
   895                           ;	Called with low address in FSR and high address in W
   896                           
   897     129E  087E               	movf	btemp,w
   898     129F  008A               	movwf	10
   899     12A0  087F               	movf	btemp+1,w
   900     12A1  0082               	movwf	2
   901     12A2                     init_ram0:	
   902                           ;Called with:
   903                           ;	high address of idata address in btemp 
   904                           ;	low address of idata address in btemp+1 
   905                           ;	low address of data in FSR
   906                           ;	high address + 1 of data in btemp-1
   907                           
   908     12A2  160A  118A  229E  160A  118A  	fcall	init_fetch0
   909     12A7  0080               	movwf	0
   910     12A8  0A84               	incf	4,f
   911     12A9  0804               	movf	4,w
   912     12AA  067D               	xorwf	btemp+-1,w
   913     12AB  1903               	btfsc	3,2
   914     12AC  3400               	retlw	0
   915     12AD  0AFF               	incf	btemp+1,f
   916     12AE  1903               	btfsc	3,2
   917     12AF  0AFE               	incf	btemp,f
   918     12B0  2AA2               	goto	init_ram0
   919                           
   920                           	psect	clrtext
   921     08C5                     clear_ram0:	
   922                           ;	Called with FSR containing the base address, and
   923                           ;	W with the last address+1
   924                           
   925     08C5  0064               	clrwdt	;clear the watchdog before getting into this loop
   926     08C6                     clrloop0:
   927     08C6  0180               	clrf	0	;clear RAM location pointed to by FSR
   928     08C7  0A84               	incf	4,f	;increment pointer
   929     08C8  0604               	xorwf	4,w	;XOR with final address
   930     08C9  1903               	btfsc	3,2	;have we reached the end yet?
   931     08CA  3400               	retlw	0	;all done for this memory range, return
   932     08CB  0604               	xorwf	4,w	;XOR again to restore value
   933     08CC  28C6               	goto	clrloop0	;do the next byte
   934                           
   935                           	psect	cstackBANK1
   936     00A0                     __pcstackBANK1:
   937     00A0                     ?_eval_poly:
   938     00A0                     eval_poly@x:	
   939                           ; 4 bytes @ 0x0
   940                           
   941                           
   942                           ; 4 bytes @ 0x0
   943     00A0                     	ds	4
   944     00A4                     eval_poly@d:
   945                           
   946                           ; 1 bytes @ 0x4
   947     00A4                     	ds	1
   948     00A5                     eval_poly@n:
   949                           
   950                           ; 2 bytes @ 0x5
   951     00A5                     	ds	2
   952     00A7                     ??_eval_poly:
   953                           
   954                           ; 1 bytes @ 0x7
   955     00A7                     	ds	5
   956     00AC                     eval_poly@res:
   957                           
   958                           ; 4 bytes @ 0xC
   959     00AC                     	ds	4
   960     00B0                     ?_log:
   961     00B0                     log@x:	
   962                           ; 4 bytes @ 0x10
   963                           
   964                           
   965                           ; 4 bytes @ 0x10
   966     00B0                     	ds	4
   967     00B4                     ?_Calculus_Temperature:
   968     00B4                     Calculus_Temperature@temperature:	
   969                           ; 2 bytes @ 0x14
   970                           
   971                           
   972                           ; 2 bytes @ 0x14
   973     00B4                     	ds	2
   974     00B6                     ??_Calculus_Temperature:
   975                           
   976                           ; 1 bytes @ 0x16
   977     00B6                     	ds	2
   978     00B8                     Calculus_Temperature@a:
   979                           
   980                           ; 4 bytes @ 0x18
   981     00B8                     	ds	4
   982     00BC                     _Calculus_Temperature$1075:
   983                           
   984                           ; 4 bytes @ 0x1C
   985     00BC                     	ds	4
   986     00C0                     _Calculus_Temperature$1076:
   987                           
   988                           ; 4 bytes @ 0x20
   989     00C0                     	ds	4
   990     00C4                     _Calculus_Temperature$1077:
   991                           
   992                           ; 4 bytes @ 0x24
   993     00C4                     	ds	4
   994     00C8                     Calculus_Temperature@tempC:
   995                           
   996                           ; 4 bytes @ 0x28
   997     00C8                     	ds	4
   998     00CC                     ??_function_Environment_alarm:
   999                           
  1000                           ; 1 bytes @ 0x2C
  1001     00CC                     	ds	3
  1002     00CF                     function_Environment_alarm@value_temperature:
  1003                           
  1004                           ; 2 bytes @ 0x2F
  1005     00CF                     	ds	2
  1006     00D1                     function_Environment_alarm@temperature_celsius:
  1007                           
  1008                           ; 2 bytes @ 0x31
  1009     00D1                     	ds	2
  1010                           
  1011                           	psect	cstackCOMMON
  1012     0070                     __pcstackCOMMON:
  1013     0070                     ?___fleq:
  1014     0070                     ?___flge:	
  1015                           ; 1 bit 
  1016                           
  1017     0070                     ?_ADC_Init:	
  1018                           ; 1 bit 
  1019                           
  1020     0070                     ??_ADC_Init:	
  1021                           ; 1 bytes @ 0x0
  1022                           
  1023     0070                     ?_LCD_Init:	
  1024                           ; 1 bytes @ 0x0
  1025                           
  1026     0070                     ?_keypad_init:	
  1027                           ; 1 bytes @ 0x0
  1028                           
  1029     0070                     ??_keypad_init:	
  1030                           ; 1 bytes @ 0x0
  1031                           
  1032     0070                     ?_function_Security:	
  1033                           ; 1 bytes @ 0x0
  1034                           
  1035     0070                     ?_function_Monitoring:	
  1036                           ; 1 bytes @ 0x0
  1037                           
  1038     0070                     ?_function_Locked:	
  1039                           ; 1 bytes @ 0x0
  1040                           
  1041     0070                     ?_function_Alarm:	
  1042                           ; 1 bytes @ 0x0
  1043                           
  1044     0070                     ?_function_Environment_alarm:	
  1045                           ; 1 bytes @ 0x0
  1046                           
  1047     0070                     ?_function_Environment:	
  1048                           ; 1 bytes @ 0x0
  1049                           
  1050     0070                     ?_LCD_Command:	
  1051                           ; 1 bytes @ 0x0
  1052                           
  1053     0070                     ??_LCD_Command:	
  1054                           ; 1 bytes @ 0x0
  1055                           
  1056     0070                     ?_Sensors_IHM:	
  1057                           ; 1 bytes @ 0x0
  1058                           
  1059     0070                     ??_Sensors_IHM:	
  1060                           ; 1 bytes @ 0x0
  1061                           
  1062     0070                     ?_main:	
  1063                           ; 1 bytes @ 0x0
  1064                           
  1065     0070                     ?_keypad_getkey:	
  1066                           ; 1 bytes @ 0x0
  1067                           
  1068     0070                     ??_keypad_getkey:	
  1069                           ; 1 bytes @ 0x0
  1070                           
  1071     0070                     ?_LCD_Char:	
  1072                           ; 1 bytes @ 0x0
  1073                           
  1074     0070                     ??_LCD_Char:	
  1075                           ; 1 bytes @ 0x0
  1076                           
  1077     0070                     ?_LCD_Clear:	
  1078                           ; 1 bytes @ 0x0
  1079                           
  1080     0070                     ?_strncmp:	
  1081                           ; 1 bytes @ 0x0
  1082                           
  1083     0070                     ?_Use_Chanel:	
  1084                           ; 2 bytes @ 0x0
  1085                           
  1086     0070                     ?__Umul8_16:	
  1087                           ; 2 bytes @ 0x0
  1088                           
  1089     0070                     ?___lwdiv:	
  1090                           ; 2 bytes @ 0x0
  1091                           
  1092     0070                     ?___fltol:	
  1093                           ; 2 bytes @ 0x0
  1094                           
  1095     0070                     ?___xxtofl:	
  1096                           ; 4 bytes @ 0x0
  1097                           
  1098     0070                     Sensors_IHM@alarm_activate:	
  1099                           ; 4 bytes @ 0x0
  1100                           
  1101     0070                     __Umul8_16@multiplicand:	
  1102                           ; 1 bytes @ 0x0
  1103                           
  1104     0070                     strncmp@s2:	
  1105                           ; 1 bytes @ 0x0
  1106                           
  1107     0070                     Use_Chanel@select:	
  1108                           ; 1 bytes @ 0x0
  1109                           
  1110     0070                     ___lwdiv@divisor:	
  1111                           ; 2 bytes @ 0x0
  1112                           
  1113     0070                     ___fleq@ff1:	
  1114                           ; 2 bytes @ 0x0
  1115                           
  1116     0070                     ___flge@ff1:	
  1117                           ; 4 bytes @ 0x0
  1118                           
  1119     0070                     ___fltol@f1:	
  1120                           ; 4 bytes @ 0x0
  1121                           
  1122     0070                     ___xxtofl@val:	
  1123                           ; 4 bytes @ 0x0
  1124                           
  1125                           
  1126                           ; 4 bytes @ 0x0
  1127     0070                     	ds	1
  1128     0071                     strncmp@len:
  1129                           
  1130                           ; 2 bytes @ 0x1
  1131     0071                     	ds	1
  1132     0072                     ??_Use_Chanel:
  1133     0072                     ??__Umul8_16:	
  1134                           ; 1 bytes @ 0x2
  1135                           
  1136     0072                     LCD_Command@cmd:	
  1137                           ; 1 bytes @ 0x2
  1138                           
  1139     0072                     LCD_Char@dat:	
  1140                           ; 1 bytes @ 0x2
  1141                           
  1142     0072                     ___lwdiv@dividend:	
  1143                           ; 1 bytes @ 0x2
  1144                           
  1145                           
  1146                           ; 2 bytes @ 0x2
  1147     0072                     	ds	1
  1148     0073                     ??_LCD_Init:
  1149     0073                     ??_strncmp:	
  1150                           ; 1 bytes @ 0x3
  1151                           
  1152     0073                     ?_LCD_String:	
  1153                           ; 1 bytes @ 0x3
  1154                           
  1155     0073                     ??_LCD_Clear:	
  1156                           ; 1 bytes @ 0x3
  1157                           
  1158     0073                     LCD_String@msg:	
  1159                           ; 1 bytes @ 0x3
  1160                           
  1161                           
  1162                           ; 2 bytes @ 0x3
  1163     0073                     	ds	1
  1164     0074                     ??___fltol:
  1165     0074                     ??___lwdiv:	
  1166                           ; 1 bytes @ 0x4
  1167                           
  1168     0074                     ??___xxtofl:	
  1169                           ; 1 bytes @ 0x4
  1170                           
  1171     0074                     ___lwdiv@quotient:	
  1172                           ; 1 bytes @ 0x4
  1173                           
  1174     0074                     __Umul8_16@product:	
  1175                           ; 2 bytes @ 0x4
  1176                           
  1177     0074                     ___fleq@ff2:	
  1178                           ; 2 bytes @ 0x4
  1179                           
  1180     0074                     ___flge@ff2:	
  1181                           ; 4 bytes @ 0x4
  1182                           
  1183                           
  1184                           ; 4 bytes @ 0x4
  1185     0074                     	ds	1
  1186     0075                     ??_LCD_String:
  1187     0075                     ?_LCD_String_xy:	
  1188                           ; 1 bytes @ 0x5
  1189                           
  1190     0075                     LCD_String_xy@pos:	
  1191                           ; 1 bytes @ 0x5
  1192                           
  1193     0075                     strncmp@s1:	
  1194                           ; 1 bytes @ 0x5
  1195                           
  1196                           
  1197                           ; 1 bytes @ 0x5
  1198     0075                     	ds	1
  1199     0076                     ___lwdiv@counter:
  1200     0076                     LCD_String_xy@msg:	
  1201                           ; 1 bytes @ 0x6
  1202                           
  1203     0076                     __Umul8_16@word_mpld:	
  1204                           ; 2 bytes @ 0x6
  1205                           
  1206                           
  1207                           ; 2 bytes @ 0x6
  1208     0076                     	ds	1
  1209     0077                     ?___lwmod:
  1210     0077                     ___lwmod@divisor:	
  1211                           ; 2 bytes @ 0x7
  1212                           
  1213                           
  1214                           ; 2 bytes @ 0x7
  1215     0077                     	ds	1
  1216     0078                     ??_LCD_String_xy:
  1217     0078                     ??___fleq:	
  1218                           ; 1 bytes @ 0x8
  1219                           
  1220     0078                     ??___flge:	
  1221                           ; 1 bytes @ 0x8
  1222                           
  1223     0078                     LCD_String_xy@row:	
  1224                           ; 1 bytes @ 0x8
  1225                           
  1226     0078                     ___fltol@sign1:	
  1227                           ; 1 bytes @ 0x8
  1228                           
  1229     0078                     __Umul8_16@multiplier:	
  1230                           ; 1 bytes @ 0x8
  1231                           
  1232     0078                     ___xxtofl@sign:	
  1233                           ; 1 bytes @ 0x8
  1234                           
  1235                           
  1236                           ; 1 bytes @ 0x8
  1237     0078                     	ds	1
  1238     0079                     LCD_String_xy@location:
  1239     0079                     ___fltol@exp1:	
  1240                           ; 1 bytes @ 0x9
  1241                           
  1242     0079                     ___xxtofl@exp:	
  1243                           ; 1 bytes @ 0x9
  1244                           
  1245     0079                     ___lwmod@dividend:	
  1246                           ; 1 bytes @ 0x9
  1247                           
  1248                           
  1249                           ; 2 bytes @ 0x9
  1250     0079                     	ds	1
  1251     007A                     ??_function_Security:
  1252     007A                     ??_function_Locked:	
  1253                           ; 1 bytes @ 0xA
  1254                           
  1255     007A                     ??_function_Alarm:	
  1256                           ; 1 bytes @ 0xA
  1257                           
  1258     007A                     ??_function_Environment:	
  1259                           ; 1 bytes @ 0xA
  1260                           
  1261     007A                     ___xxtofl@arg:	
  1262                           ; 1 bytes @ 0xA
  1263                           
  1264                           
  1265                           ; 4 bytes @ 0xA
  1266     007A                     	ds	1
  1267     007B                     ??___lwmod:
  1268     007B                     ___lwmod@counter:	
  1269                           ; 1 bytes @ 0xB
  1270                           
  1271                           
  1272                           ; 1 bytes @ 0xB
  1273     007B                     	ds	1
  1274     007C                     ??_frexp:
  1275                           
  1276                           ; 1 bytes @ 0xC
  1277     007C                     	ds	1
  1278     007D                     function_Security@key:
  1279     007D                     function_Alarm@time:	
  1280                           ; 1 bytes @ 0xD
  1281                           
  1282     007D                     function_Environment@time2:	
  1283                           ; 1 bytes @ 0xD
  1284                           
  1285                           
  1286                           ; 1 bytes @ 0xD
  1287     007D                     	ds	1
  1288     007E                     ??_log:
  1289     007E                     ??_main:	
  1290                           ; 1 bytes @ 0xE
  1291                           
  1292                           
  1293                           	psect	cstackBANK0
  1294     0020                     __pcstackBANK0:	
  1295                           ; 1 bytes @ 0xE
  1296                           
  1297     0020                     ?_sprintf:
  1298     0020                     ?_frexp:	
  1299                           ; 2 bytes @ 0x0
  1300                           
  1301     0020                     sprintf@f:	
  1302                           ; 4 bytes @ 0x0
  1303                           
  1304     0020                     frexp@value:	
  1305                           ; 1 bytes @ 0x0
  1306                           
  1307     0020                     keypad_getkey@letras:	
  1308                           ; 4 bytes @ 0x0
  1309                           
  1310                           
  1311                           ; 16 bytes @ 0x0
  1312     0020                     	ds	4
  1313     0024                     frexp@eptr:
  1314                           
  1315                           ; 1 bytes @ 0x4
  1316     0024                     	ds	1
  1317     0025                     ?___flmul:
  1318     0025                     ___flmul@b:	
  1319                           ; 4 bytes @ 0x5
  1320                           
  1321                           
  1322                           ; 4 bytes @ 0x5
  1323     0025                     	ds	2
  1324     0027                     ??_sprintf:
  1325                           
  1326                           ; 1 bytes @ 0x7
  1327     0027                     	ds	2
  1328     0029                     ___flmul@a:
  1329                           
  1330                           ; 4 bytes @ 0x9
  1331     0029                     	ds	1
  1332     002A                     sprintf@ap:
  1333                           
  1334                           ; 1 bytes @ 0xA
  1335     002A                     	ds	1
  1336     002B                     sprintf@flag:
  1337                           
  1338                           ; 1 bytes @ 0xB
  1339     002B                     	ds	1
  1340     002C                     sprintf@ccnt:
  1341                           
  1342                           ; 2 bytes @ 0xC
  1343     002C                     	ds	1
  1344     002D                     ??___flmul:
  1345                           
  1346                           ; 1 bytes @ 0xD
  1347     002D                     	ds	1
  1348     002E                     sprintf@prec:
  1349                           
  1350                           ; 1 bytes @ 0xE
  1351     002E                     	ds	1
  1352     002F                     sprintf@val:
  1353                           
  1354                           ; 2 bytes @ 0xF
  1355     002F                     	ds	1
  1356     0030                     keypad_getkey@valor:
  1357                           
  1358                           ; 1 bytes @ 0x10
  1359     0030                     	ds	1
  1360     0031                     sprintf@sp:
  1361     0031                     keypad_getkey@i:	
  1362                           ; 1 bytes @ 0x11
  1363                           
  1364                           
  1365                           ; 2 bytes @ 0x11
  1366     0031                     	ds	1
  1367     0032                     sprintf@c:
  1368     0032                     ___flmul@sign:	
  1369                           ; 1 bytes @ 0x12
  1370                           
  1371                           
  1372                           ; 1 bytes @ 0x12
  1373     0032                     	ds	1
  1374     0033                     ??_function_Monitoring:
  1375     0033                     ___flmul@aexp:	
  1376                           ; 1 bytes @ 0x13
  1377                           
  1378                           
  1379                           ; 1 bytes @ 0x13
  1380     0033                     	ds	1
  1381     0034                     ___flmul@grs:
  1382                           
  1383                           ; 4 bytes @ 0x14
  1384     0034                     	ds	4
  1385     0038                     ___flmul@bexp:
  1386                           
  1387                           ; 1 bytes @ 0x18
  1388     0038                     	ds	1
  1389     0039                     ___flmul@prod:
  1390                           
  1391                           ; 4 bytes @ 0x19
  1392     0039                     	ds	4
  1393     003D                     ___flmul@temp:
  1394                           
  1395                           ; 2 bytes @ 0x1D
  1396     003D                     	ds	2
  1397     003F                     ?___fldiv:
  1398     003F                     ___fldiv@a:	
  1399                           ; 4 bytes @ 0x1F
  1400                           
  1401                           
  1402                           ; 4 bytes @ 0x1F
  1403     003F                     	ds	4
  1404     0043                     ___fldiv@b:
  1405                           
  1406                           ; 4 bytes @ 0x23
  1407     0043                     	ds	4
  1408     0047                     ??___fldiv:
  1409                           
  1410                           ; 1 bytes @ 0x27
  1411     0047                     	ds	5
  1412     004C                     ___fldiv@rem:
  1413                           
  1414                           ; 4 bytes @ 0x2C
  1415     004C                     	ds	4
  1416     0050                     ___fldiv@sign:
  1417                           
  1418                           ; 1 bytes @ 0x30
  1419     0050                     	ds	1
  1420     0051                     ___fldiv@new_exp:
  1421                           
  1422                           ; 2 bytes @ 0x31
  1423     0051                     	ds	2
  1424     0053                     ___fldiv@grs:
  1425                           
  1426                           ; 4 bytes @ 0x33
  1427     0053                     	ds	4
  1428     0057                     ___fldiv@bexp:
  1429                           
  1430                           ; 1 bytes @ 0x37
  1431     0057                     	ds	1
  1432     0058                     ___fldiv@aexp:
  1433                           
  1434                           ; 1 bytes @ 0x38
  1435     0058                     	ds	1
  1436     0059                     ?___fladd:
  1437     0059                     ___fladd@b:	
  1438                           ; 4 bytes @ 0x39
  1439                           
  1440                           
  1441                           ; 4 bytes @ 0x39
  1442     0059                     	ds	4
  1443     005D                     ___fladd@a:
  1444                           
  1445                           ; 4 bytes @ 0x3D
  1446     005D                     	ds	4
  1447     0061                     ??___fladd:
  1448                           
  1449                           ; 1 bytes @ 0x41
  1450     0061                     	ds	8
  1451     0069                     ___fladd@signs:
  1452                           
  1453                           ; 1 bytes @ 0x49
  1454     0069                     	ds	1
  1455     006A                     ___fladd@aexp:
  1456                           
  1457                           ; 1 bytes @ 0x4A
  1458     006A                     	ds	1
  1459     006B                     ___fladd@bexp:
  1460                           
  1461                           ; 1 bytes @ 0x4B
  1462     006B                     	ds	1
  1463     006C                     ___fladd@grs:
  1464                           
  1465                           ; 1 bytes @ 0x4C
  1466     006C                     	ds	1
  1467     006D                     log@exponent:
  1468                           
  1469                           ; 2 bytes @ 0x4D
  1470     006D                     	ds	2
  1471                           
  1472                           	psect	maintext
  1473     0006                     __pmaintext:	
  1474 ;;
  1475 ;;Main: autosize = 0, tempsize = 0, incstack = 0, save=0
  1476 ;;
  1477 ;; *************** function _main *****************
  1478 ;; Defined at:
  1479 ;;		line 30 in file "Main_Seguridad.c"
  1480 ;; Parameters:    Size  Location     Type
  1481 ;;		None
  1482 ;; Auto vars:     Size  Location     Type
  1483 ;;		None
  1484 ;; Return value:  Size  Location     Type
  1485 ;;                  1    wreg      void 
  1486 ;; Registers used:
  1487 ;;		wreg, fsr0l, fsr0h, status,2, status,0, btemp+1, pclath, cstack
  1488 ;; Tracked objects:
  1489 ;;		On entry : B00/0
  1490 ;;		On exit  : 0/0
  1491 ;;		Unchanged: 0/0
  1492 ;; Data sizes:     COMMON   BANK0   BANK1   BANK3   BANK2
  1493 ;;      Params:         0       0       0       0       0
  1494 ;;      Locals:         0       0       0       0       0
  1495 ;;      Temps:          0       0       0       0       0
  1496 ;;      Totals:         0       0       0       0       0
  1497 ;;Total ram usage:        0 bytes
  1498 ;; Hardware stack levels required when called: 6
  1499 ;; This function calls:
  1500 ;;		_ADC_Init
  1501 ;;		_LCD_Init
  1502 ;;		_function_Alarm
  1503 ;;		_function_Environment
  1504 ;;		_function_Environment_alarm
  1505 ;;		_function_Locked
  1506 ;;		_function_Monitoring
  1507 ;;		_function_Security
  1508 ;;		_keypad_init
  1509 ;; This function is called by:
  1510 ;;		Startup code after reset
  1511 ;; This function uses a non-reentrant model
  1512 ;;
  1513                           
  1514     0006                     _main:	
  1515                           ;psect for function _main
  1516                           
  1517     0006                     l4034:	
  1518                           ;incstack = 0
  1519                           ; Regs used in _main: [wreg-fsr0h+status,2+status,0+btemp+1+pclath+cstack]
  1520                           
  1521                           
  1522                           ;Main_Seguridad.c: 32:     OSCCON = 0x71;
  1523     0006  3071               	movlw	113
  1524     0007  1683               	bsf	3,5	;RP0=1, select bank1
  1525     0008  1303               	bcf	3,6	;RP1=0, select bank1
  1526     0009  008F               	movwf	15	;volatile
  1527     000A                     l4036:
  1528                           
  1529                           ;Main_Seguridad.c: 33:     TRISE = 0;
  1530     000A  0189               	clrf	9	;volatile
  1531     000B                     l4038:
  1532                           
  1533                           ;Main_Seguridad.c: 34:     PORTE = 0;
  1534     000B  1283               	bcf	3,5	;RP0=0, select bank0
  1535     000C  1303               	bcf	3,6	;RP1=0, select bank0
  1536     000D  0189               	clrf	9	;volatile
  1537     000E                     l4040:
  1538                           
  1539                           ;Main_Seguridad.c: 35:     TRISD = 0x00;
  1540     000E  1683               	bsf	3,5	;RP0=1, select bank1
  1541     000F  1303               	bcf	3,6	;RP1=0, select bank1
  1542     0010  0188               	clrf	8	;volatile
  1543     0011                     l4042:
  1544                           
  1545                           ;Main_Seguridad.c: 36:     TRISC = 0x07;
  1546     0011  3007               	movlw	7
  1547     0012  0087               	movwf	7	;volatile
  1548     0013                     l4044:
  1549                           
  1550                           ;Main_Seguridad.c: 37:     TRISA = 0b00010011;
  1551     0013  3013               	movlw	19
  1552     0014  0085               	movwf	5	;volatile
  1553     0015                     l4046:
  1554                           
  1555                           ;Main_Seguridad.c: 38:     ANSEL = 0b00010011;
  1556     0015  3013               	movlw	19
  1557     0016  1683               	bsf	3,5	;RP0=1, select bank3
  1558     0017  1703               	bsf	3,6	;RP1=1, select bank3
  1559     0018  0088               	movwf	8	;volatile
  1560     0019                     l4048:
  1561                           
  1562                           ;Main_Seguridad.c: 40:     ADC_Init();
  1563     0019  160A  118A  2266  120A  118A  	fcall	_ADC_Init
  1564     001E                     l4050:
  1565                           
  1566                           ;Main_Seguridad.c: 41:     LCD_Init();
  1567     001E  160A  118A  235C  120A  118A  	fcall	_LCD_Init
  1568     0023                     l4052:
  1569                           
  1570                           ;Main_Seguridad.c: 42:     keypad_init();
  1571     0023  160A  118A  2272  120A  118A  	fcall	_keypad_init
  1572     0028                     l4054:
  1573                           
  1574                           ;Main_Seguridad.c: 44:     Estado = security;
  1575     0028  1283               	bcf	3,5	;RP0=0, select bank0
  1576     0029  1303               	bcf	3,6	;RP1=0, select bank0
  1577     002A  01EF               	clrf	_Estado
  1578     002B                     l4056:
  1579                           
  1580                           ;Main_Seguridad.c: 47:         if(Estado == security){
  1581     002B  1283               	bcf	3,5	;RP0=0, select bank0
  1582     002C  1303               	bcf	3,6	;RP1=0, select bank0
  1583     002D  086F               	movf	_Estado,w
  1584     002E  1D03               	btfss	3,2
  1585     002F  2831               	goto	u5601
  1586     0030  2832               	goto	u5600
  1587     0031                     u5601:
  1588     0031  2838               	goto	l4060
  1589     0032                     u5600:
  1590     0032                     l4058:
  1591                           
  1592                           ;Main_Seguridad.c: 48:             function_Security();
  1593     0032  160A  118A  2754  120A  118A  	fcall	_function_Security
  1594                           
  1595                           ;Main_Seguridad.c: 49:         }
  1596     0037  282B               	goto	l4056
  1597     0038                     l4060:
  1598     0038  036F               	decf	_Estado,w
  1599     0039  1D03               	btfss	3,2
  1600     003A  283C               	goto	u5611
  1601     003B  283D               	goto	u5610
  1602     003C                     u5611:
  1603     003C  2843               	goto	l4064
  1604     003D                     u5610:
  1605     003D                     l4062:
  1606                           
  1607                           ;Main_Seguridad.c: 51:             function_Monitoring();
  1608     003D  160A  118A  2635  120A  118A  	fcall	_function_Monitoring
  1609                           
  1610                           ;Main_Seguridad.c: 52:         }
  1611     0042  282B               	goto	l4056
  1612     0043                     l4064:
  1613     0043  3002               	movlw	2
  1614     0044  066F               	xorwf	_Estado,w
  1615     0045  1D03               	btfss	3,2
  1616     0046  2848               	goto	u5621
  1617     0047  2849               	goto	u5620
  1618     0048                     u5621:
  1619     0048  284F               	goto	l4068
  1620     0049                     u5620:
  1621     0049                     l4066:
  1622                           
  1623                           ;Main_Seguridad.c: 54:             function_Locked();
  1624     0049  160A  118A  2386  120A  118A  	fcall	_function_Locked
  1625                           
  1626                           ;Main_Seguridad.c: 55:         }
  1627     004E  282B               	goto	l4056
  1628     004F                     l4068:
  1629     004F  3003               	movlw	3
  1630     0050  066F               	xorwf	_Estado,w
  1631     0051  1D03               	btfss	3,2
  1632     0052  2854               	goto	u5631
  1633     0053  2855               	goto	u5630
  1634     0054                     u5631:
  1635     0054  285B               	goto	l4072
  1636     0055                     u5630:
  1637     0055                     l4070:
  1638                           
  1639                           ;Main_Seguridad.c: 57:             function_Alarm();
  1640     0055  160A  118A  2457  120A  118A  	fcall	_function_Alarm
  1641                           
  1642                           ;Main_Seguridad.c: 58:         }
  1643     005A  282B               	goto	l4056
  1644     005B                     l4072:
  1645     005B  3005               	movlw	5
  1646     005C  066F               	xorwf	_Estado,w
  1647     005D  1D03               	btfss	3,2
  1648     005E  2860               	goto	u5641
  1649     005F  2861               	goto	u5640
  1650     0060                     u5641:
  1651     0060  2867               	goto	l4076
  1652     0061                     u5640:
  1653     0061                     l4074:
  1654                           
  1655                           ;Main_Seguridad.c: 60:             function_Environment_alarm();
  1656     0061  120A  158A  211B  120A  118A  	fcall	_function_Environment_alarm
  1657                           
  1658                           ;Main_Seguridad.c: 61:         }
  1659     0066  282B               	goto	l4056
  1660     0067                     l4076:
  1661                           
  1662                           ;Main_Seguridad.c: 63:             function_Environment();
  1663     0067  160A  118A  2498  120A  118A  	fcall	_function_Environment
  1664     006C  282B               	goto	l4056
  1665     006D  120A  118A  2800   	ljmp	start
  1666     0070                     __end_of_main:
  1667                           
  1668                           	psect	text1
  1669     1272                     __ptext1:	
  1670 ;; *************** function _keypad_init *****************
  1671 ;; Defined at:
  1672 ;;		line 39 in file "keypad.c"
  1673 ;; Parameters:    Size  Location     Type
  1674 ;;		None
  1675 ;; Auto vars:     Size  Location     Type
  1676 ;;		None
  1677 ;; Return value:  Size  Location     Type
  1678 ;;                  1    wreg      void 
  1679 ;; Registers used:
  1680 ;;		wreg, status,2, status,0, btemp+1
  1681 ;; Tracked objects:
  1682 ;;		On entry : 0/0
  1683 ;;		On exit  : 0/0
  1684 ;;		Unchanged: 0/0
  1685 ;; Data sizes:     COMMON   BANK0   BANK1   BANK3   BANK2
  1686 ;;      Params:         0       0       0       0       0
  1687 ;;      Locals:         0       0       0       0       0
  1688 ;;      Temps:          0       0       0       0       0
  1689 ;;      Totals:         0       0       0       0       0
  1690 ;;Total ram usage:        0 bytes
  1691 ;; Hardware stack levels used: 1
  1692 ;; This function calls:
  1693 ;;		Nothing
  1694 ;; This function is called by:
  1695 ;;		_main
  1696 ;; This function uses a non-reentrant model
  1697 ;;
  1698                           
  1699     1272                     _keypad_init:	
  1700                           ;psect for function _keypad_init
  1701                           
  1702     1272                     l3286:	
  1703                           ;incstack = 0
  1704                           ; Regs used in _keypad_init: [wreg+status,2+status,0+btemp+1]
  1705                           
  1706                           
  1707                           ;keypad.c: 41:     TRISB &= ~(1<<0) & ~(1<<1) & ~(1<<2) & ~(1<<3);
  1708     1272  30F0               	movlw	240
  1709     1273  00FF               	movwf	btemp+1
  1710     1274  087F               	movf	btemp+1,w
  1711     1275  1683               	bsf	3,5	;RP0=1, select bank1
  1712     1276  1303               	bcf	3,6	;RP1=0, select bank1
  1713     1277  0586               	andwf	6,f	;volatile
  1714                           
  1715                           ;keypad.c: 42:     TRISB |= (1<<4) | (1<<5) | (1<<6) | (1<<7);
  1716     1278  30F0               	movlw	240
  1717     1279  00FF               	movwf	btemp+1
  1718     127A  087F               	movf	btemp+1,w
  1719     127B  0486               	iorwf	6,f	;volatile
  1720     127C                     l3288:
  1721                           
  1722                           ;keypad.c: 43:     OPTION_REGbits.nRBPU = 0;
  1723     127C  1381               	bcf	1,7	;volatile
  1724     127D                     l81:
  1725     127D  0008               	return
  1726     127E                     __end_of_keypad_init:
  1727                           
  1728                           	psect	text2
  1729     1754                     __ptext2:	
  1730 ;; *************** function _function_Security *****************
  1731 ;; Defined at:
  1732 ;;		line 71 in file "Funciones_Estado.c"
  1733 ;; Parameters:    Size  Location     Type
  1734 ;;		None
  1735 ;; Auto vars:     Size  Location     Type
  1736 ;;  key             1   13[COMMON] unsigned char 
  1737 ;; Return value:  Size  Location     Type
  1738 ;;                  1    wreg      void 
  1739 ;; Registers used:
  1740 ;;		wreg, fsr0l, fsr0h, status,2, status,0, btemp+1, pclath, cstack
  1741 ;; Tracked objects:
  1742 ;;		On entry : 0/0
  1743 ;;		On exit  : 0/0
  1744 ;;		Unchanged: 0/0
  1745 ;; Data sizes:     COMMON   BANK0   BANK1   BANK3   BANK2
  1746 ;;      Params:         0       0       0       0       0
  1747 ;;      Locals:         1       0       0       0       0
  1748 ;;      Temps:          3       0       0       0       0
  1749 ;;      Totals:         4       0       0       0       0
  1750 ;;Total ram usage:        4 bytes
  1751 ;; Hardware stack levels used: 1
  1752 ;; Hardware stack levels required when called: 3
  1753 ;; This function calls:
  1754 ;;		_LCD_Char
  1755 ;;		_LCD_Clear
  1756 ;;		_LCD_Command
  1757 ;;		_LCD_String_xy
  1758 ;;		_keypad_getkey
  1759 ;;		_strncmp
  1760 ;; This function is called by:
  1761 ;;		_main
  1762 ;; This function uses a non-reentrant model
  1763 ;;
  1764                           
  1765     1754                     _function_Security:	
  1766                           ;psect for function _function_Security
  1767                           
  1768     1754                     l3290:	
  1769                           ;incstack = 0
  1770                           ; Regs used in _function_Security: [wreg-fsr0h+status,2+status,0+btemp+1+pclath+cstack]
  1771                           
  1772     1754                     l3292:
  1773                           
  1774                           ;Funciones_Estado.c: 74:     LCD_Clear();
  1775     1754  160A  118A  227E  160A  118A  	fcall	_LCD_Clear
  1776     1759                     l3294:
  1777                           
  1778                           ;Funciones_Estado.c: 75:     LCD_String_xy(0,0,"Press a Key");
  1779     1759  01F5               	clrf	LCD_String_xy@pos
  1780     175A  30A1               	movlw	(low ((STR_2-__stringbase)| (0+32768)))& (0+255)
  1781     175B  00F6               	movwf	LCD_String_xy@msg
  1782     175C  3080               	movlw	128
  1783     175D  00F7               	movwf	LCD_String_xy@msg+1
  1784     175E  3000               	movlw	0
  1785     175F  160A  118A  230F  160A  118A  	fcall	_LCD_String_xy
  1786     1764                     l3296:
  1787                           
  1788                           ;Funciones_Estado.c: 76:     LCD_Command(0xC0);
  1789     1764  30C0               	movlw	192
  1790     1765  160A  118A  23B1  160A  118A  	fcall	_LCD_Command
  1791     176A                     l3298:
  1792                           
  1793                           ;Funciones_Estado.c: 79:         key = keypad_getkey();
  1794     176A  120A  158A  235B  160A  118A  	fcall	_keypad_getkey
  1795     176F  00FD               	movwf	function_Security@key
  1796     1770                     l3300:
  1797                           
  1798                           ;Funciones_Estado.c: 80:         if(key != 0){
  1799     1770  087D               	movf	function_Security@key,w
  1800     1771  1903               	btfsc	3,2
  1801     1772  2F74               	goto	u4301
  1802     1773  2F75               	goto	u4300
  1803     1774                     u4301:
  1804     1774  2F87               	goto	l3308
  1805     1775                     u4300:
  1806     1775                     l3302:
  1807                           
  1808                           ;Funciones_Estado.c: 81:             LCD_Char('*');
  1809     1775  302A               	movlw	42
  1810     1776  160A  118A  23E7  160A  118A  	fcall	_LCD_Char
  1811     177B                     l3304:
  1812                           
  1813                           ;Funciones_Estado.c: 83:             pass_user[idx++] = key;
  1814     177B  1683               	bsf	3,5	;RP0=1, select bank1
  1815     177C  1303               	bcf	3,6	;RP1=0, select bank1
  1816     177D  0856               	movf	_idx^(0+128),w
  1817     177E  3EDB               	addlw	(low (_pass_user| 0))& (0+255)
  1818     177F  0084               	movwf	4
  1819     1780  087D               	movf	function_Security@key,w
  1820     1781  1383               	bcf	3,7	;select IRP bank1
  1821     1782  0080               	movwf	0
  1822     1783                     l3306:
  1823     1783  3001               	movlw	1
  1824     1784  00FF               	movwf	btemp+1
  1825     1785  087F               	movf	btemp+1,w
  1826     1786  07D6               	addwf	_idx^(0+128),f
  1827     1787                     l3308:
  1828                           
  1829                           ;Funciones_Estado.c: 86:     }while(idx < 5);
  1830     1787  3005               	movlw	5
  1831     1788  1683               	bsf	3,5	;RP0=1, select bank1
  1832     1789  1303               	bcf	3,6	;RP1=0, select bank1
  1833     178A  0256               	subwf	_idx^(0+128),w
  1834     178B  1C03               	skipc
  1835     178C  2F8E               	goto	u4311
  1836     178D  2F8F               	goto	u4310
  1837     178E                     u4311:
  1838     178E  2F6A               	goto	l3298
  1839     178F                     u4310:
  1840     178F                     l3310:
  1841                           
  1842                           ;Funciones_Estado.c: 87:     if(strncmp(pass_user,password,4) == 0){
  1843     178F  302F               	movlw	(low ((_password-__stringbase)| (0+32768)))& (0+255)
  1844     1790  00F0               	movwf	strncmp@s2
  1845     1791  3004               	movlw	4
  1846     1792  00F1               	movwf	strncmp@len
  1847     1793  3000               	movlw	0
  1848     1794  00F2               	movwf	strncmp@len+1
  1849     1795  30DB               	movlw	(low (_pass_user| 0))& (0+255)
  1850     1796  160A  118A  251D  160A  118A  	fcall	_strncmp
  1851     179B  0870               	movf	?_strncmp,w
  1852     179C  0471               	iorwf	?_strncmp+1,w
  1853     179D  1D03               	btfss	3,2
  1854     179E  2FA0               	goto	u4321
  1855     179F  2FA1               	goto	u4320
  1856     17A0                     u4321:
  1857     17A0  2FC7               	goto	l3324
  1858     17A1                     u4320:
  1859     17A1                     l3312:
  1860                           
  1861                           ;Funciones_Estado.c: 88:         LCD_Clear();
  1862     17A1  160A  118A  227E  160A  118A  	fcall	_LCD_Clear
  1863     17A6                     l3314:
  1864                           
  1865                           ;Funciones_Estado.c: 89:         LCD_String_xy(0,0,"Clave Correcta");
  1866     17A6  01F5               	clrf	LCD_String_xy@pos
  1867     17A7  3078               	movlw	(low ((STR_3-__stringbase)| (0+32768)))& (0+255)
  1868     17A8  00F6               	movwf	LCD_String_xy@msg
  1869     17A9  3080               	movlw	128
  1870     17AA  00F7               	movwf	LCD_String_xy@msg+1
  1871     17AB  3000               	movlw	0
  1872     17AC  160A  118A  230F  160A  118A  	fcall	_LCD_String_xy
  1873     17B1                     l3316:
  1874                           
  1875                           ;Funciones_Estado.c: 90:         RE1 = 1;
  1876     17B1  1283               	bcf	3,5	;RP0=0, select bank0
  1877     17B2  1303               	bcf	3,6	;RP1=0, select bank0
  1878     17B3  1489               	bsf	9,1	;volatile
  1879     17B4                     l3318:
  1880                           
  1881                           ;Funciones_Estado.c: 91:         _delay((unsigned long)((2000)*(8000000/4000.0)));
  1882     17B4  3015               	movlw	21
  1883     17B5  00FC               	movwf	??_function_Security+2
  1884     17B6  304B               	movlw	75
  1885     17B7  00FB               	movwf	??_function_Security+1
  1886     17B8  30BE               	movlw	190
  1887     17B9  00FA               	movwf	??_function_Security
  1888     17BA                     u5657:
  1889     17BA  0BFA               	decfsz	??_function_Security,f
  1890     17BB  2FBA               	goto	u5657
  1891     17BC  0BFB               	decfsz	??_function_Security+1,f
  1892     17BD  2FBA               	goto	u5657
  1893     17BE  0BFC               	decfsz	??_function_Security+2,f
  1894     17BF  2FBA               	goto	u5657
  1895     17C0  0000               	nop
  1896     17C1                     l3320:
  1897                           
  1898                           ;Funciones_Estado.c: 92:         RE1 = 0;
  1899     17C1  1283               	bcf	3,5	;RP0=0, select bank0
  1900     17C2  1303               	bcf	3,6	;RP1=0, select bank0
  1901     17C3  1089               	bcf	9,1	;volatile
  1902     17C4                     l3322:
  1903                           
  1904                           ;Funciones_Estado.c: 93:         Estado = monitoring;
  1905     17C4  01EF               	clrf	_Estado
  1906     17C5  0AEF               	incf	_Estado,f
  1907                           
  1908                           ;Funciones_Estado.c: 95:     }else{
  1909     17C6  2FF1               	goto	l3338
  1910     17C7                     l3324:
  1911                           
  1912                           ;Funciones_Estado.c: 96:         LCD_Clear();
  1913     17C7  160A  118A  227E  160A  118A  	fcall	_LCD_Clear
  1914     17CC                     l3326:
  1915                           
  1916                           ;Funciones_Estado.c: 97:         LCD_String_xy(0,0,"Clave Incorrecta");
  1917     17CC  01F5               	clrf	LCD_String_xy@pos
  1918     17CD  3047               	movlw	(low ((STR_4-__stringbase)| (0+32768)))& (0+255)
  1919     17CE  00F6               	movwf	LCD_String_xy@msg
  1920     17CF  3080               	movlw	128
  1921     17D0  00F7               	movwf	LCD_String_xy@msg+1
  1922     17D1  3000               	movlw	0
  1923     17D2  160A  118A  230F  160A  118A  	fcall	_LCD_String_xy
  1924     17D7                     l3328:
  1925                           
  1926                           ;Funciones_Estado.c: 98:         RE2 = 1;
  1927     17D7  1283               	bcf	3,5	;RP0=0, select bank0
  1928     17D8  1303               	bcf	3,6	;RP1=0, select bank0
  1929     17D9  1509               	bsf	9,2	;volatile
  1930     17DA                     l3330:
  1931                           
  1932                           ;Funciones_Estado.c: 99:         _delay((unsigned long)((1000)*(8000000/4000.0)));
  1933     17DA  300B               	movlw	11
  1934     17DB  00FC               	movwf	??_function_Security+2
  1935     17DC  3026               	movlw	38
  1936     17DD  00FB               	movwf	??_function_Security+1
  1937     17DE  305D               	movlw	93
  1938     17DF  00FA               	movwf	??_function_Security
  1939     17E0                     u5667:
  1940     17E0  0BFA               	decfsz	??_function_Security,f
  1941     17E1  2FE0               	goto	u5667
  1942     17E2  0BFB               	decfsz	??_function_Security+1,f
  1943     17E3  2FE0               	goto	u5667
  1944     17E4  0BFC               	decfsz	??_function_Security+2,f
  1945     17E5  2FE0               	goto	u5667
  1946     17E6  2FE7               	nop2
  1947     17E7                     l3332:
  1948                           
  1949                           ;Funciones_Estado.c: 100:         RE2 = 0;
  1950     17E7  1283               	bcf	3,5	;RP0=0, select bank0
  1951     17E8  1303               	bcf	3,6	;RP1=0, select bank0
  1952     17E9  1109               	bcf	9,2	;volatile
  1953     17EA                     l3334:
  1954                           
  1955                           ;Funciones_Estado.c: 101:         intend++;
  1956     17EA  3001               	movlw	1
  1957     17EB  00FF               	movwf	btemp+1
  1958     17EC  087F               	movf	btemp+1,w
  1959     17ED  1683               	bsf	3,5	;RP0=1, select bank1
  1960     17EE  1303               	bcf	3,6	;RP1=0, select bank1
  1961     17EF  07D7               	addwf	_intend^(0+128),f
  1962     17F0                     l3336:
  1963                           
  1964                           ;Funciones_Estado.c: 102:         idx = 0;
  1965     17F0  01D6               	clrf	_idx^(0+128)
  1966     17F1                     l3338:
  1967                           
  1968                           ;Funciones_Estado.c: 104:     if(intend > 3){
  1969     17F1  3004               	movlw	4
  1970     17F2  1683               	bsf	3,5	;RP0=1, select bank1
  1971     17F3  1303               	bcf	3,6	;RP1=0, select bank1
  1972     17F4  0257               	subwf	_intend^(0+128),w
  1973     17F5  1C03               	skipc
  1974     17F6  2FF8               	goto	u4331
  1975     17F7  2FF9               	goto	u4330
  1976     17F8                     u4331:
  1977     17F8  2FFF               	goto	l243
  1978     17F9                     u4330:
  1979     17F9                     l3340:
  1980                           
  1981                           ;Funciones_Estado.c: 105:         intend = 0;
  1982     17F9  01D7               	clrf	_intend^(0+128)
  1983                           
  1984                           ;Funciones_Estado.c: 106:         idx = 0;
  1985     17FA  01D6               	clrf	_idx^(0+128)
  1986     17FB                     l3342:
  1987                           
  1988                           ;Funciones_Estado.c: 107:         Estado = locked;
  1989     17FB  3002               	movlw	2
  1990     17FC  1283               	bcf	3,5	;RP0=0, select bank0
  1991     17FD  1303               	bcf	3,6	;RP1=0, select bank0
  1992     17FE  00EF               	movwf	_Estado
  1993     17FF                     l243:
  1994     17FF  0008               	return
  1995     1800                     __end_of_function_Security:
  1996                           
  1997                           	psect	text3
  1998     151D                     __ptext3:	
  1999 ;; *************** function _strncmp *****************
  2000 ;; Defined at:
  2001 ;;		line 4 in file "C:\Program Files\Microchip\xc8\v2.41\pic\sources\c90\common\strncmp.c"
  2002 ;; Parameters:    Size  Location     Type
  2003 ;;  s1              1    wreg     PTR const unsigned char 
  2004 ;;		 -> pass_user(5), 
  2005 ;;  s2              1    0[COMMON] PTR const unsigned char 
  2006 ;;		 -> password(5), 
  2007 ;;  len             2    1[COMMON] unsigned int 
  2008 ;; Auto vars:     Size  Location     Type
  2009 ;;  s1              1    5[COMMON] PTR const unsigned char 
  2010 ;;		 -> pass_user(5), 
  2011 ;; Return value:  Size  Location     Type
  2012 ;;                  2    0[COMMON] int 
  2013 ;; Registers used:
  2014 ;;		wreg, fsr0l, fsr0h, status,2, status,0, btemp+1, pclath
  2015 ;; Tracked objects:
  2016 ;;		On entry : 0/0
  2017 ;;		On exit  : 0/0
  2018 ;;		Unchanged: 0/0
  2019 ;; Data sizes:     COMMON   BANK0   BANK1   BANK3   BANK2
  2020 ;;      Params:         3       0       0       0       0
  2021 ;;      Locals:         1       0       0       0       0
  2022 ;;      Temps:          2       0       0       0       0
  2023 ;;      Totals:         6       0       0       0       0
  2024 ;;Total ram usage:        6 bytes
  2025 ;; Hardware stack levels used: 2
  2026 ;; This function calls:
  2027 ;;		Nothing
  2028 ;; This function is called by:
  2029 ;;		_function_Security
  2030 ;; This function uses a non-reentrant model
  2031 ;;
  2032                           
  2033     151D                     _strncmp:	
  2034                           ;psect for function _strncmp
  2035                           
  2036                           
  2037                           ;incstack = 0
  2038                           ; Regs used in _strncmp: [wreg-fsr0h+status,2+status,0+btemp+1+pclath]
  2039                           ;strncmp@s1 stored from wreg
  2040     151D  00F5               	movwf	strncmp@s1
  2041     151E                     l3222:
  2042     151E  2D52               	goto	l3234
  2043     151F                     l3224:
  2044     151F  0875               	movf	strncmp@s1,w
  2045     1520  0084               	movwf	4
  2046     1521  1383               	bcf	3,7	;select IRP bank0
  2047     1522  0800               	movf	0,w
  2048     1523  1903               	btfsc	3,2
  2049     1524  2D26               	goto	u4261
  2050     1525  2D27               	goto	u4260
  2051     1526                     u4261:
  2052     1526  2D37               	goto	l3228
  2053     1527                     u4260:
  2054     1527                     l3226:
  2055     1527  0870               	movf	strncmp@s2,w
  2056     1528  0084               	movwf	4
  2057     1529  120A  158A  200A  160A  118A  	fcall	stringdir
  2058     152E  00F3               	movwf	??_strncmp
  2059     152F  0875               	movf	strncmp@s1,w
  2060     1530  0084               	movwf	4
  2061     1531  0800               	movf	0,w
  2062     1532  0673               	xorwf	??_strncmp,w
  2063     1533  1903               	skipnz
  2064     1534  2D36               	goto	u4271
  2065     1535  2D37               	goto	u4270
  2066     1536                     u4271:
  2067     1536  2D4A               	goto	l3232
  2068     1537                     u4270:
  2069     1537                     l3228:
  2070     1537  0870               	movf	strncmp@s2,w
  2071     1538  0084               	movwf	4
  2072     1539  120A  158A  200A  160A  118A  	fcall	stringdir
  2073     153E  00F3               	movwf	??_strncmp
  2074     153F  0875               	movf	strncmp@s1,w
  2075     1540  0084               	movwf	4
  2076     1541  0800               	movf	0,w
  2077     1542  00F4               	movwf	??_strncmp+1
  2078     1543  0873               	movf	??_strncmp,w
  2079     1544  0274               	subwf	??_strncmp+1,w
  2080     1545  00F0               	movwf	?_strncmp
  2081     1546  01F1               	clrf	?_strncmp+1
  2082     1547  1C03               	skipc
  2083     1548  03F1               	decf	?_strncmp+1,f
  2084     1549  2D62               	goto	l909
  2085     154A                     l3232:
  2086     154A  3001               	movlw	1
  2087     154B  00FF               	movwf	btemp+1
  2088     154C  087F               	movf	btemp+1,w
  2089     154D  07F5               	addwf	strncmp@s1,f
  2090     154E  3001               	movlw	1
  2091     154F  00FF               	movwf	btemp+1
  2092     1550  087F               	movf	btemp+1,w
  2093     1551  07F0               	addwf	strncmp@s2,f
  2094     1552                     l3234:
  2095     1552  3001               	movlw	1
  2096     1553  02F1               	subwf	strncmp@len,f
  2097     1554  3000               	movlw	0
  2098     1555  1C03               	skipc
  2099     1556  03F2               	decf	strncmp@len+1,f
  2100     1557  02F2               	subwf	strncmp@len+1,f
  2101     1558  0A71               	incf	strncmp@len,w
  2102     1559  1D03               	skipz
  2103     155A  2D5F               	goto	u4281
  2104     155B  0A72               	incf	strncmp@len+1,w
  2105     155C  1D03               	btfss	3,2
  2106     155D  2D5F               	goto	u4281
  2107     155E  2D60               	goto	u4280
  2108     155F                     u4281:
  2109     155F  2D1F               	goto	l3224
  2110     1560                     u4280:
  2111     1560                     l3236:
  2112     1560  01F0               	clrf	?_strncmp
  2113     1561  01F1               	clrf	?_strncmp+1
  2114     1562                     l909:
  2115     1562  0008               	return
  2116     1563                     __end_of_strncmp:
  2117                           
  2118                           	psect	text4
  2119     0B5B                     __ptext4:	
  2120 ;; *************** function _keypad_getkey *****************
  2121 ;; Defined at:
  2122 ;;		line 58 in file "keypad.c"
  2123 ;; Parameters:    Size  Location     Type
  2124 ;;		None
  2125 ;; Auto vars:     Size  Location     Type
  2126 ;;  letras         16    0[BANK0 ] unsigned char [4][4]
  2127 ;;  i               2   17[BANK0 ] int 
  2128 ;;  valor           1   16[BANK0 ] unsigned char 
  2129 ;; Return value:  Size  Location     Type
  2130 ;;                  1    wreg      unsigned char 
  2131 ;; Registers used:
  2132 ;;		wreg, fsr0l, fsr0h, status,2, status,0, btemp+1
  2133 ;; Tracked objects:
  2134 ;;		On entry : 0/0
  2135 ;;		On exit  : 0/0
  2136 ;;		Unchanged: 0/0
  2137 ;; Data sizes:     COMMON   BANK0   BANK1   BANK3   BANK2
  2138 ;;      Params:         0       0       0       0       0
  2139 ;;      Locals:         0      19       0       0       0
  2140 ;;      Temps:          4       0       0       0       0
  2141 ;;      Totals:         4      19       0       0       0
  2142 ;;Total ram usage:       23 bytes
  2143 ;; Hardware stack levels used: 1
  2144 ;; This function calls:
  2145 ;;		Nothing
  2146 ;; This function is called by:
  2147 ;;		_function_Security
  2148 ;; This function uses a non-reentrant model
  2149 ;;
  2150                           
  2151     0B5B                     _keypad_getkey:	
  2152                           ;psect for function _keypad_getkey
  2153                           
  2154     0B5B                     l3016:	
  2155                           ;incstack = 0
  2156                           ; Regs used in _keypad_getkey: [wreg-fsr0h+status,2+status,0+btemp+1]
  2157                           
  2158                           
  2159                           ;keypad.c: 60: char letras[4][4]={ {'1','2','3','A'},
  2160     0B5B  3020               	movlw	keypad_getkey@letras& (0+255)
  2161     0B5C  0084               	movwf	4
  2162     0B5D  30A1               	movlw	low keypad_getkey@F1268
  2163     0B5E  00F0               	movwf	??_keypad_getkey
  2164     0B5F  0804               	movf	4,w
  2165     0B60  00F1               	movwf	??_keypad_getkey+1
  2166     0B61  3010               	movlw	16
  2167     0B62  00F2               	movwf	??_keypad_getkey+2
  2168     0B63                     u3930:
  2169     0B63  0870               	movf	??_keypad_getkey,w
  2170     0B64  0084               	movwf	4
  2171     0B65  1783               	bsf	3,7	;select IRP bank3
  2172     0B66  0800               	movf	0,w
  2173     0B67  00F3               	movwf	??_keypad_getkey+3
  2174     0B68  0AF0               	incf	??_keypad_getkey,f
  2175     0B69  0871               	movf	??_keypad_getkey+1,w
  2176     0B6A  0084               	movwf	4
  2177     0B6B  1383               	bcf	3,7	;select IRP bank0
  2178     0B6C  0873               	movf	??_keypad_getkey+3,w
  2179     0B6D  0080               	movwf	0
  2180     0B6E  0AF1               	incf	??_keypad_getkey+1,f
  2181     0B6F  0BF2               	decfsz	??_keypad_getkey+2,f
  2182     0B70  2B63               	goto	u3930
  2183     0B71                     l3018:
  2184     0B71                     l3020:
  2185                           
  2186                           ;keypad.c: 65: char valor=0;
  2187     0B71  1283               	bcf	3,5	;RP0=0, select bank0
  2188     0B72  1303               	bcf	3,6	;RP1=0, select bank0
  2189     0B73  01B0               	clrf	keypad_getkey@valor
  2190     0B74                     l3022:
  2191                           
  2192                           ;keypad.c: 67: for(i=0;i<4;i++){
  2193     0B74  01B1               	clrf	keypad_getkey@i
  2194     0B75  01B2               	clrf	keypad_getkey@i+1
  2195     0B76                     l3028:
  2196                           
  2197                           ;keypad.c: 69:    if(i==0){
  2198     0B76  1283               	bcf	3,5	;RP0=0, select bank0
  2199     0B77  1303               	bcf	3,6	;RP1=0, select bank0
  2200     0B78  0831               	movf	keypad_getkey@i,w
  2201     0B79  0432               	iorwf	keypad_getkey@i+1,w
  2202     0B7A  1D03               	btfss	3,2
  2203     0B7B  2B7D               	goto	u3941
  2204     0B7C  2B7E               	goto	u3940
  2205     0B7D                     u3941:
  2206     0B7D  2BA3               	goto	l3048
  2207     0B7E                     u3940:
  2208     0B7E                     l3030:
  2209                           
  2210                           ;keypad.c: 71:       PORTB = (1<<7)|(1<<6)|(1<<5)|(1<<4)|(1<<3)|(1<<2)|(1<<1)|(0<<0);
  2211     0B7E  30FE               	movlw	254
  2212     0B7F  0086               	movwf	6	;volatile
  2213                           
  2214                           ;keypad.c: 72:       _delay((unsigned long)((100)*(8000000/4000000.0)));
  2215     0B80  3042               	movlw	66
  2216     0B81  00F0               	movwf	??_keypad_getkey
  2217     0B82                     u5677:
  2218     0B82  0BF0               	decfsz	??_keypad_getkey,f
  2219     0B83  2B82               	goto	u5677
  2220     0B84  0000               	nop
  2221                           
  2222                           ;keypad.c: 73:       while (!(PORTB & (1<<4))){valor=letras[0][0];}
  2223     0B85  2B88               	goto	l3034
  2224     0B86                     l3032:
  2225     0B86  0820               	movf	keypad_getkey@letras,w
  2226     0B87  00B0               	movwf	keypad_getkey@valor
  2227     0B88                     l3034:
  2228     0B88  1283               	bcf	3,5	;RP0=0, select bank0
  2229     0B89  1303               	bcf	3,6	;RP1=0, select bank0
  2230     0B8A  1E06               	btfss	6,4	;volatile
  2231     0B8B  2B8D               	goto	u3951
  2232     0B8C  2B8E               	goto	u3950
  2233     0B8D                     u3951:
  2234     0B8D  2B86               	goto	l3032
  2235     0B8E                     u3950:
  2236     0B8E  2B91               	goto	l3038
  2237     0B8F                     l3036:
  2238     0B8F  0821               	movf	keypad_getkey@letras+1,w
  2239     0B90  00B0               	movwf	keypad_getkey@valor
  2240     0B91                     l3038:
  2241     0B91  1E86               	btfss	6,5	;volatile
  2242     0B92  2B94               	goto	u3961
  2243     0B93  2B95               	goto	u3960
  2244     0B94                     u3961:
  2245     0B94  2B8F               	goto	l3036
  2246     0B95                     u3960:
  2247     0B95  2B98               	goto	l3042
  2248     0B96                     l3040:
  2249     0B96  0822               	movf	keypad_getkey@letras+2,w
  2250     0B97  00B0               	movwf	keypad_getkey@valor
  2251     0B98                     l3042:
  2252     0B98  1F06               	btfss	6,6	;volatile
  2253     0B99  2B9B               	goto	u3971
  2254     0B9A  2B9C               	goto	u3970
  2255     0B9B                     u3971:
  2256     0B9B  2B96               	goto	l3040
  2257     0B9C                     u3970:
  2258     0B9C  2B9F               	goto	l3046
  2259     0B9D                     l3044:
  2260     0B9D  0823               	movf	keypad_getkey@letras+3,w
  2261     0B9E  00B0               	movwf	keypad_getkey@valor
  2262     0B9F                     l3046:
  2263     0B9F  1F86               	btfss	6,7	;volatile
  2264     0BA0  2BA2               	goto	u3981
  2265     0BA1  2BA3               	goto	u3980
  2266     0BA2                     u3981:
  2267     0BA2  2B9D               	goto	l3044
  2268     0BA3                     u3980:
  2269     0BA3                     l3048:
  2270                           
  2271                           ;keypad.c: 79:    if(i==1){
  2272     0BA3  0331               	decf	keypad_getkey@i,w
  2273     0BA4  0432               	iorwf	keypad_getkey@i+1,w
  2274     0BA5  1D03               	btfss	3,2
  2275     0BA6  2BA8               	goto	u3991
  2276     0BA7  2BA9               	goto	u3990
  2277     0BA8                     u3991:
  2278     0BA8  2BCE               	goto	l3068
  2279     0BA9                     u3990:
  2280     0BA9                     l3050:
  2281                           
  2282                           ;keypad.c: 80:       PORTB = (1<<7)|(1<<6)|(1<<5)|(1<<4)|(1<<3)|(1<<2)|(0<<1)|(1<<0);
  2283     0BA9  30FD               	movlw	253
  2284     0BAA  0086               	movwf	6	;volatile
  2285                           
  2286                           ;keypad.c: 81:       _delay((unsigned long)((100)*(8000000/4000000.0)));
  2287     0BAB  3042               	movlw	66
  2288     0BAC  00F0               	movwf	??_keypad_getkey
  2289     0BAD                     u5687:
  2290     0BAD  0BF0               	decfsz	??_keypad_getkey,f
  2291     0BAE  2BAD               	goto	u5687
  2292     0BAF  0000               	nop
  2293                           
  2294                           ;keypad.c: 82:       while (!(PORTB & (1<<4))){valor=letras[1][0];}
  2295     0BB0  2BB3               	goto	l3054
  2296     0BB1                     l3052:
  2297     0BB1  0824               	movf	keypad_getkey@letras+4,w
  2298     0BB2  00B0               	movwf	keypad_getkey@valor
  2299     0BB3                     l3054:
  2300     0BB3  1283               	bcf	3,5	;RP0=0, select bank0
  2301     0BB4  1303               	bcf	3,6	;RP1=0, select bank0
  2302     0BB5  1E06               	btfss	6,4	;volatile
  2303     0BB6  2BB8               	goto	u4001
  2304     0BB7  2BB9               	goto	u4000
  2305     0BB8                     u4001:
  2306     0BB8  2BB1               	goto	l3052
  2307     0BB9                     u4000:
  2308     0BB9  2BBC               	goto	l3058
  2309     0BBA                     l3056:
  2310     0BBA  0825               	movf	keypad_getkey@letras+5,w
  2311     0BBB  00B0               	movwf	keypad_getkey@valor
  2312     0BBC                     l3058:
  2313     0BBC  1E86               	btfss	6,5	;volatile
  2314     0BBD  2BBF               	goto	u4011
  2315     0BBE  2BC0               	goto	u4010
  2316     0BBF                     u4011:
  2317     0BBF  2BBA               	goto	l3056
  2318     0BC0                     u4010:
  2319     0BC0  2BC3               	goto	l3062
  2320     0BC1                     l3060:
  2321     0BC1  0826               	movf	keypad_getkey@letras+6,w
  2322     0BC2  00B0               	movwf	keypad_getkey@valor
  2323     0BC3                     l3062:
  2324     0BC3  1F06               	btfss	6,6	;volatile
  2325     0BC4  2BC6               	goto	u4021
  2326     0BC5  2BC7               	goto	u4020
  2327     0BC6                     u4021:
  2328     0BC6  2BC1               	goto	l3060
  2329     0BC7                     u4020:
  2330     0BC7  2BCA               	goto	l3066
  2331     0BC8                     l3064:
  2332     0BC8  0827               	movf	keypad_getkey@letras+7,w
  2333     0BC9  00B0               	movwf	keypad_getkey@valor
  2334     0BCA                     l3066:
  2335     0BCA  1F86               	btfss	6,7	;volatile
  2336     0BCB  2BCD               	goto	u4031
  2337     0BCC  2BCE               	goto	u4030
  2338     0BCD                     u4031:
  2339     0BCD  2BC8               	goto	l3064
  2340     0BCE                     u4030:
  2341     0BCE                     l3068:
  2342                           
  2343                           ;keypad.c: 88:    if(i==2){
  2344     0BCE  3002               	movlw	2
  2345     0BCF  0631               	xorwf	keypad_getkey@i,w
  2346     0BD0  0432               	iorwf	keypad_getkey@i+1,w
  2347     0BD1  1D03               	btfss	3,2
  2348     0BD2  2BD4               	goto	u4041
  2349     0BD3  2BD5               	goto	u4040
  2350     0BD4                     u4041:
  2351     0BD4  2BFA               	goto	l3088
  2352     0BD5                     u4040:
  2353     0BD5                     l3070:
  2354                           
  2355                           ;keypad.c: 89:       PORTB = (1<<7)|(1<<6)|(1<<5)|(1<<4)|(1<<3)|(0<<2)|(1<<1)|(1<<0);
  2356     0BD5  30FB               	movlw	251
  2357     0BD6  0086               	movwf	6	;volatile
  2358                           
  2359                           ;keypad.c: 90:       _delay((unsigned long)((100)*(8000000/4000000.0)));
  2360     0BD7  3042               	movlw	66
  2361     0BD8  00F0               	movwf	??_keypad_getkey
  2362     0BD9                     u5697:
  2363     0BD9  0BF0               	decfsz	??_keypad_getkey,f
  2364     0BDA  2BD9               	goto	u5697
  2365     0BDB  0000               	nop
  2366                           
  2367                           ;keypad.c: 91:       while (!(PORTB & (1<<4))){valor=letras[2][0];}
  2368     0BDC  2BDF               	goto	l3074
  2369     0BDD                     l3072:
  2370     0BDD  0828               	movf	keypad_getkey@letras+8,w
  2371     0BDE  00B0               	movwf	keypad_getkey@valor
  2372     0BDF                     l3074:
  2373     0BDF  1283               	bcf	3,5	;RP0=0, select bank0
  2374     0BE0  1303               	bcf	3,6	;RP1=0, select bank0
  2375     0BE1  1E06               	btfss	6,4	;volatile
  2376     0BE2  2BE4               	goto	u4051
  2377     0BE3  2BE5               	goto	u4050
  2378     0BE4                     u4051:
  2379     0BE4  2BDD               	goto	l3072
  2380     0BE5                     u4050:
  2381     0BE5  2BE8               	goto	l3078
  2382     0BE6                     l3076:
  2383     0BE6  0829               	movf	keypad_getkey@letras+9,w
  2384     0BE7  00B0               	movwf	keypad_getkey@valor
  2385     0BE8                     l3078:
  2386     0BE8  1E86               	btfss	6,5	;volatile
  2387     0BE9  2BEB               	goto	u4061
  2388     0BEA  2BEC               	goto	u4060
  2389     0BEB                     u4061:
  2390     0BEB  2BE6               	goto	l3076
  2391     0BEC                     u4060:
  2392     0BEC  2BEF               	goto	l3082
  2393     0BED                     l3080:
  2394     0BED  082A               	movf	keypad_getkey@letras+10,w
  2395     0BEE  00B0               	movwf	keypad_getkey@valor
  2396     0BEF                     l3082:
  2397     0BEF  1F06               	btfss	6,6	;volatile
  2398     0BF0  2BF2               	goto	u4071
  2399     0BF1  2BF3               	goto	u4070
  2400     0BF2                     u4071:
  2401     0BF2  2BED               	goto	l3080
  2402     0BF3                     u4070:
  2403     0BF3  2BF6               	goto	l3086
  2404     0BF4                     l3084:
  2405     0BF4  082B               	movf	keypad_getkey@letras+11,w
  2406     0BF5  00B0               	movwf	keypad_getkey@valor
  2407     0BF6                     l3086:
  2408     0BF6  1F86               	btfss	6,7	;volatile
  2409     0BF7  2BF9               	goto	u4081
  2410     0BF8  2BFA               	goto	u4080
  2411     0BF9                     u4081:
  2412     0BF9  2BF4               	goto	l3084
  2413     0BFA                     u4080:
  2414     0BFA                     l3088:
  2415                           
  2416                           ;keypad.c: 97:    if(i==3){
  2417     0BFA  3003               	movlw	3
  2418     0BFB  0631               	xorwf	keypad_getkey@i,w
  2419     0BFC  0432               	iorwf	keypad_getkey@i+1,w
  2420     0BFD  1D03               	btfss	3,2
  2421     0BFE  2C00               	goto	u4091
  2422     0BFF  2C01               	goto	u4090
  2423     0C00                     u4091:
  2424     0C00  2C26               	goto	l3108
  2425     0C01                     u4090:
  2426     0C01                     l3090:
  2427                           
  2428                           ;keypad.c: 98:       PORTB = (1<<7)|(1<<6)|(1<<5)|(1<<4)|(0<<3)|(1<<2)|(1<<1)|(1<<0);
  2429     0C01  30F7               	movlw	247
  2430     0C02  0086               	movwf	6	;volatile
  2431                           
  2432                           ;keypad.c: 99:       _delay((unsigned long)((100)*(8000000/4000000.0)));
  2433     0C03  3042               	movlw	66
  2434     0C04  00F0               	movwf	??_keypad_getkey
  2435     0C05                     u5707:
  2436     0C05  0BF0               	decfsz	??_keypad_getkey,f
  2437     0C06  2C05               	goto	u5707
  2438     0C07  0000               	nop
  2439                           
  2440                           ;keypad.c: 100:       while (!(PORTB & (1<<4))){valor=letras[3][0];}
  2441     0C08  2C0B               	goto	l3094
  2442     0C09                     l3092:
  2443     0C09  082C               	movf	keypad_getkey@letras+12,w
  2444     0C0A  00B0               	movwf	keypad_getkey@valor
  2445     0C0B                     l3094:
  2446     0C0B  1283               	bcf	3,5	;RP0=0, select bank0
  2447     0C0C  1303               	bcf	3,6	;RP1=0, select bank0
  2448     0C0D  1E06               	btfss	6,4	;volatile
  2449     0C0E  2C10               	goto	u4101
  2450     0C0F  2C11               	goto	u4100
  2451     0C10                     u4101:
  2452     0C10  2C09               	goto	l3092
  2453     0C11                     u4100:
  2454     0C11  2C14               	goto	l3098
  2455     0C12                     l3096:
  2456     0C12  082D               	movf	keypad_getkey@letras+13,w
  2457     0C13  00B0               	movwf	keypad_getkey@valor
  2458     0C14                     l3098:
  2459     0C14  1E86               	btfss	6,5	;volatile
  2460     0C15  2C17               	goto	u4111
  2461     0C16  2C18               	goto	u4110
  2462     0C17                     u4111:
  2463     0C17  2C12               	goto	l3096
  2464     0C18                     u4110:
  2465     0C18  2C1B               	goto	l3102
  2466     0C19                     l3100:
  2467     0C19  082E               	movf	keypad_getkey@letras+14,w
  2468     0C1A  00B0               	movwf	keypad_getkey@valor
  2469     0C1B                     l3102:
  2470     0C1B  1F06               	btfss	6,6	;volatile
  2471     0C1C  2C1E               	goto	u4121
  2472     0C1D  2C1F               	goto	u4120
  2473     0C1E                     u4121:
  2474     0C1E  2C19               	goto	l3100
  2475     0C1F                     u4120:
  2476     0C1F  2C22               	goto	l3106
  2477     0C20                     l3104:
  2478     0C20  082F               	movf	keypad_getkey@letras+15,w
  2479     0C21  00B0               	movwf	keypad_getkey@valor
  2480     0C22                     l3106:
  2481     0C22  1F86               	btfss	6,7	;volatile
  2482     0C23  2C25               	goto	u4131
  2483     0C24  2C26               	goto	u4130
  2484     0C25                     u4131:
  2485     0C25  2C20               	goto	l3104
  2486     0C26                     u4130:
  2487     0C26                     l3108:
  2488                           
  2489                           ;keypad.c: 105:    }
  2490     0C26  3001               	movlw	1
  2491     0C27  07B1               	addwf	keypad_getkey@i,f
  2492     0C28  1803               	skipnc
  2493     0C29  0AB2               	incf	keypad_getkey@i+1,f
  2494     0C2A  3000               	movlw	0
  2495     0C2B  07B2               	addwf	keypad_getkey@i+1,f
  2496     0C2C                     l3110:
  2497     0C2C  0832               	movf	keypad_getkey@i+1,w
  2498     0C2D  3A80               	xorlw	128
  2499     0C2E  00FF               	movwf	btemp+1
  2500     0C2F  3080               	movlw	128
  2501     0C30  027F               	subwf	btemp+1,w
  2502     0C31  1D03               	skipz
  2503     0C32  2C35               	goto	u4145
  2504     0C33  3004               	movlw	4
  2505     0C34  0231               	subwf	keypad_getkey@i,w
  2506     0C35                     u4145:
  2507     0C35  1C03               	skipc
  2508     0C36  2C38               	goto	u4141
  2509     0C37  2C39               	goto	u4140
  2510     0C38                     u4141:
  2511     0C38  2B76               	goto	l3028
  2512     0C39                     u4140:
  2513     0C39                     l3112:
  2514                           
  2515                           ;keypad.c: 107:    return valor;
  2516     0C39  1283               	bcf	3,5	;RP0=0, select bank0
  2517     0C3A  1303               	bcf	3,6	;RP1=0, select bank0
  2518     0C3B  0830               	movf	keypad_getkey@valor,w
  2519     0C3C                     l140:
  2520     0C3C  0008               	return
  2521     0C3D                     __end_of_keypad_getkey:
  2522                           
  2523                           	psect	text5
  2524     1635                     __ptext5:	
  2525 ;; *************** function _function_Monitoring *****************
  2526 ;; Defined at:
  2527 ;;		line 43 in file "Funciones_Estado.c"
  2528 ;; Parameters:    Size  Location     Type
  2529 ;;		None
  2530 ;; Auto vars:     Size  Location     Type
  2531 ;;  n               2    0        int 
  2532 ;; Return value:  Size  Location     Type
  2533 ;;                  1    wreg      void 
  2534 ;; Registers used:
  2535 ;;		wreg, fsr0l, fsr0h, status,2, status,0, btemp+1, pclath, cstack
  2536 ;; Tracked objects:
  2537 ;;		On entry : 0/0
  2538 ;;		On exit  : 0/0
  2539 ;;		Unchanged: 0/0
  2540 ;; Data sizes:     COMMON   BANK0   BANK1   BANK3   BANK2
  2541 ;;      Params:         0       0       0       0       0
  2542 ;;      Locals:         0       0       0       0       0
  2543 ;;      Temps:          0       6       0       0       0
  2544 ;;      Totals:         0       6       0       0       0
  2545 ;;Total ram usage:        6 bytes
  2546 ;; Hardware stack levels used: 1
  2547 ;; Hardware stack levels required when called: 3
  2548 ;; This function calls:
  2549 ;;		_LCD_String_xy
  2550 ;;		_Sensors_IHM
  2551 ;;		_sprintf
  2552 ;; This function is called by:
  2553 ;;		_main
  2554 ;; This function uses a non-reentrant model
  2555 ;;
  2556                           
  2557     1635                     _function_Monitoring:	
  2558                           ;psect for function _function_Monitoring
  2559                           
  2560     1635                     l3344:	
  2561                           ;incstack = 0
  2562                           ; Regs used in _function_Monitoring: [wreg-fsr0h+status,2+status,0+btemp+1+pclath+cstack
      +                          ]
  2563                           
  2564                           
  2565                           ;Funciones_Estado.c: 44:     var_sensor_ir = RC1;
  2566     1635  3000               	movlw	0
  2567     1636  1283               	bcf	3,5	;RP0=0, select bank0
  2568     1637  1303               	bcf	3,6	;RP1=0, select bank0
  2569     1638  1887               	btfsc	7,1	;volatile
  2570     1639  3001               	movlw	1
  2571     163A  1683               	bsf	3,5	;RP0=1, select bank1
  2572     163B  1303               	bcf	3,6	;RP1=0, select bank1
  2573     163C  00DA               	movwf	_var_sensor_ir^(0+128)
  2574                           
  2575                           ;Funciones_Estado.c: 45:     var_sensor_hall = RC0;
  2576     163D  3000               	movlw	0
  2577     163E  1283               	bcf	3,5	;RP0=0, select bank0
  2578     163F  1303               	bcf	3,6	;RP1=0, select bank0
  2579     1640  1807               	btfsc	7,0	;volatile
  2580     1641  3001               	movlw	1
  2581     1642  1683               	bsf	3,5	;RP0=1, select bank1
  2582     1643  1303               	bcf	3,6	;RP1=0, select bank1
  2583     1644  00D9               	movwf	_var_sensor_hall^(0+128)
  2584                           
  2585                           ;Funciones_Estado.c: 46:     var_sensor_metal = RC2;
  2586     1645  3000               	movlw	0
  2587     1646  1283               	bcf	3,5	;RP0=0, select bank0
  2588     1647  1303               	bcf	3,6	;RP1=0, select bank0
  2589     1648  1907               	btfsc	7,2	;volatile
  2590     1649  3001               	movlw	1
  2591     164A  1683               	bsf	3,5	;RP0=1, select bank1
  2592     164B  1303               	bcf	3,6	;RP1=0, select bank1
  2593     164C  00D8               	movwf	_var_sensor_metal^(0+128)
  2594     164D                     l3346:
  2595                           
  2596                           ;Funciones_Estado.c: 48:     if (Sensors_IHM() == 1){
  2597     164D  160A  118A  22B1  160A  118A  	fcall	_Sensors_IHM
  2598     1652  3A01               	xorlw	1
  2599     1653  1D03               	skipz
  2600     1654  2E56               	goto	u4341
  2601     1655  2E57               	goto	u4340
  2602     1656                     u4341:
  2603     1656  2E9E               	goto	l3354
  2604     1657                     u4340:
  2605     1657                     l3348:
  2606                           
  2607                           ;Funciones_Estado.c: 49:         Estado = alarm;
  2608     1657  3003               	movlw	3
  2609     1658  1283               	bcf	3,5	;RP0=0, select bank0
  2610     1659  1303               	bcf	3,6	;RP1=0, select bank0
  2611     165A  00EF               	movwf	_Estado
  2612     165B                     l3350:
  2613     165B  3034               	movlw	(low ((STR_1-__stringbase)| (0+32768)))& (0+255)
  2614     165C  00A0               	movwf	sprintf@f
  2615     165D  1683               	bsf	3,5	;RP0=1, select bank1
  2616     165E  1303               	bcf	3,6	;RP1=0, select bank1
  2617     165F  085A               	movf	_var_sensor_ir^(0+128),w
  2618     1660  1283               	bcf	3,5	;RP0=0, select bank0
  2619     1661  1303               	bcf	3,6	;RP1=0, select bank0
  2620     1662  00B3               	movwf	??_function_Monitoring
  2621     1663  01B4               	clrf	??_function_Monitoring+1
  2622     1664  0833               	movf	??_function_Monitoring,w
  2623     1665  00A1               	movwf	?_sprintf+1
  2624     1666  0834               	movf	??_function_Monitoring+1,w
  2625     1667  00A2               	movwf	?_sprintf+2
  2626     1668  1683               	bsf	3,5	;RP0=1, select bank1
  2627     1669  1303               	bcf	3,6	;RP1=0, select bank1
  2628     166A  0859               	movf	_var_sensor_hall^(0+128),w
  2629     166B  1283               	bcf	3,5	;RP0=0, select bank0
  2630     166C  1303               	bcf	3,6	;RP1=0, select bank0
  2631     166D  00B5               	movwf	??_function_Monitoring+2
  2632     166E  01B6               	clrf	??_function_Monitoring+3
  2633     166F  0835               	movf	??_function_Monitoring+2,w
  2634     1670  00A3               	movwf	?_sprintf+3
  2635     1671  0836               	movf	??_function_Monitoring+3,w
  2636     1672  00A4               	movwf	?_sprintf+4
  2637     1673  1683               	bsf	3,5	;RP0=1, select bank1
  2638     1674  1303               	bcf	3,6	;RP1=0, select bank1
  2639     1675  0858               	movf	_var_sensor_metal^(0+128),w
  2640     1676  1283               	bcf	3,5	;RP0=0, select bank0
  2641     1677  1303               	bcf	3,6	;RP1=0, select bank0
  2642     1678  00B7               	movwf	??_function_Monitoring+4
  2643     1679  01B8               	clrf	??_function_Monitoring+5
  2644     167A  0837               	movf	??_function_Monitoring+4,w
  2645     167B  00A5               	movwf	?_sprintf+5
  2646     167C  0838               	movf	??_function_Monitoring+5,w
  2647     167D  00A6               	movwf	?_sprintf+6
  2648     167E  3090               	movlw	(low (_buffer| (0+256)))& (0+255)
  2649     167F  120A  158A  243D  160A  118A  	fcall	_sprintf
  2650     1684                     l3352:
  2651                           
  2652                           ;Funciones_Estado.c: 51:         LCD_String_xy(0,0,buffer);
  2653     1684  01F5               	clrf	LCD_String_xy@pos
  2654     1685  3090               	movlw	(low (_buffer| (0+256)))& (0+255)
  2655     1686  00F6               	movwf	LCD_String_xy@msg
  2656     1687  3001               	movlw	1
  2657     1688  00F7               	movwf	LCD_String_xy@msg+1
  2658     1689  3000               	movlw	0
  2659     168A  160A  118A  230F  160A  118A  	fcall	_LCD_String_xy
  2660                           
  2661                           ;Funciones_Estado.c: 52:         _delay((unsigned long)((1000)*(8000000/4000.0)));
  2662     168F  300B               	movlw	11
  2663     1690  1283               	bcf	3,5	;RP0=0, select bank0
  2664     1691  1303               	bcf	3,6	;RP1=0, select bank0
  2665     1692  00B5               	movwf	??_function_Monitoring+2
  2666     1693  3026               	movlw	38
  2667     1694  00B4               	movwf	??_function_Monitoring+1
  2668     1695  305D               	movlw	93
  2669     1696  00B3               	movwf	??_function_Monitoring
  2670     1697                     u5717:
  2671     1697  0BB3               	decfsz	??_function_Monitoring,f
  2672     1698  2E97               	goto	u5717
  2673     1699  0BB4               	decfsz	??_function_Monitoring+1,f
  2674     169A  2E97               	goto	u5717
  2675     169B  0BB5               	decfsz	??_function_Monitoring+2,f
  2676     169C  2E97               	goto	u5717
  2677                           
  2678                           ;Funciones_Estado.c: 53:     }else{
  2679     169D  2EB1               	goto	l234
  2680     169E                     l3354:
  2681                           
  2682                           ;Funciones_Estado.c: 54:         _delay((unsigned long)((2000)*(8000000/4000.0)));
  2683     169E  3015               	movlw	21
  2684     169F  1283               	bcf	3,5	;RP0=0, select bank0
  2685     16A0  1303               	bcf	3,6	;RP1=0, select bank0
  2686     16A1  00B5               	movwf	??_function_Monitoring+2
  2687     16A2  304B               	movlw	75
  2688     16A3  00B4               	movwf	??_function_Monitoring+1
  2689     16A4  30BD               	movlw	189
  2690     16A5  00B3               	movwf	??_function_Monitoring
  2691     16A6                     u5727:
  2692     16A6  0BB3               	decfsz	??_function_Monitoring,f
  2693     16A7  2EA6               	goto	u5727
  2694     16A8  0BB4               	decfsz	??_function_Monitoring+1,f
  2695     16A9  2EA6               	goto	u5727
  2696     16AA  0BB5               	decfsz	??_function_Monitoring+2,f
  2697     16AB  2EA6               	goto	u5727
  2698     16AC  2EAD               	nop2
  2699                           
  2700                           ;Funciones_Estado.c: 55:         Estado = environment;
  2701     16AD  3004               	movlw	4
  2702     16AE  1283               	bcf	3,5	;RP0=0, select bank0
  2703     16AF  1303               	bcf	3,6	;RP1=0, select bank0
  2704     16B0  00EF               	movwf	_Estado
  2705     16B1                     l234:
  2706     16B1  0008               	return
  2707     16B2                     __end_of_function_Monitoring:
  2708                           
  2709                           	psect	text6
  2710     12B1                     __ptext6:	
  2711 ;; *************** function _Sensors_IHM *****************
  2712 ;; Defined at:
  2713 ;;		line 104 in file "Sensors_Control.c"
  2714 ;; Parameters:    Size  Location     Type
  2715 ;;		None
  2716 ;; Auto vars:     Size  Location     Type
  2717 ;;  alarm_activa    1    0[COMMON] unsigned char 
  2718 ;; Return value:  Size  Location     Type
  2719 ;;                  1    wreg      unsigned char 
  2720 ;; Registers used:
  2721 ;;		wreg, status,2
  2722 ;; Tracked objects:
  2723 ;;		On entry : 0/0
  2724 ;;		On exit  : 0/0
  2725 ;;		Unchanged: 0/0
  2726 ;; Data sizes:     COMMON   BANK0   BANK1   BANK3   BANK2
  2727 ;;      Params:         0       0       0       0       0
  2728 ;;      Locals:         1       0       0       0       0
  2729 ;;      Temps:          0       0       0       0       0
  2730 ;;      Totals:         1       0       0       0       0
  2731 ;;Total ram usage:        1 bytes
  2732 ;; Hardware stack levels used: 1
  2733 ;; This function calls:
  2734 ;;		Nothing
  2735 ;; This function is called by:
  2736 ;;		_function_Monitoring
  2737 ;; This function uses a non-reentrant model
  2738 ;;
  2739                           
  2740     12B1                     _Sensors_IHM:	
  2741                           ;psect for function _Sensors_IHM
  2742                           
  2743     12B1                     l3134:	
  2744                           ;incstack = 0
  2745                           ; Regs used in _Sensors_IHM: [wreg+status,2]
  2746                           
  2747                           
  2748                           ;Sensors_Control.c: 105:     unsigned char alarm_activate = 0;
  2749     12B1  01F0               	clrf	Sensors_IHM@alarm_activate
  2750     12B2                     l3136:
  2751                           
  2752                           ;Sensors_Control.c: 106:     if(RC1 == 0){
  2753     12B2  1283               	bcf	3,5	;RP0=0, select bank0
  2754     12B3  1303               	bcf	3,6	;RP1=0, select bank0
  2755     12B4  1887               	btfsc	7,1	;volatile
  2756     12B5  2AB7               	goto	u4161
  2757     12B6  2AB8               	goto	u4160
  2758     12B7                     u4161:
  2759     12B7  2ABA               	goto	l296
  2760     12B8                     u4160:
  2761     12B8                     l3138:
  2762                           
  2763                           ;Sensors_Control.c: 107:         alarm_activate = 1;
  2764     12B8  01F0               	clrf	Sensors_IHM@alarm_activate
  2765     12B9  0AF0               	incf	Sensors_IHM@alarm_activate,f
  2766     12BA                     l296:	
  2767                           ;Sensors_Control.c: 108:     }
  2768                           
  2769                           
  2770                           ;Sensors_Control.c: 109:     if(RC0 == 1){
  2771     12BA  1C07               	btfss	7,0	;volatile
  2772     12BB  2ABD               	goto	u4171
  2773     12BC  2ABE               	goto	u4170
  2774     12BD                     u4171:
  2775     12BD  2AC0               	goto	l297
  2776     12BE                     u4170:
  2777     12BE                     l3140:
  2778                           
  2779                           ;Sensors_Control.c: 110:         alarm_activate = 1;
  2780     12BE  01F0               	clrf	Sensors_IHM@alarm_activate
  2781     12BF  0AF0               	incf	Sensors_IHM@alarm_activate,f
  2782     12C0                     l297:	
  2783                           ;Sensors_Control.c: 111:     }
  2784                           
  2785                           
  2786                           ;Sensors_Control.c: 112:     if(RC2 == 1){
  2787     12C0  1D07               	btfss	7,2	;volatile
  2788     12C1  2AC3               	goto	u4181
  2789     12C2  2AC4               	goto	u4180
  2790     12C3                     u4181:
  2791     12C3  2AC6               	goto	l3144
  2792     12C4                     u4180:
  2793     12C4                     l3142:
  2794                           
  2795                           ;Sensors_Control.c: 113:         alarm_activate = 1;
  2796     12C4  01F0               	clrf	Sensors_IHM@alarm_activate
  2797     12C5  0AF0               	incf	Sensors_IHM@alarm_activate,f
  2798     12C6                     l3144:
  2799                           
  2800                           ;Sensors_Control.c: 115:     return alarm_activate;
  2801     12C6  0870               	movf	Sensors_IHM@alarm_activate,w
  2802     12C7                     l299:
  2803     12C7  0008               	return
  2804     12C8                     __end_of_Sensors_IHM:
  2805                           
  2806                           	psect	text7
  2807     1386                     __ptext7:	
  2808 ;; *************** function _function_Locked *****************
  2809 ;; Defined at:
  2810 ;;		line 123 in file "Funciones_Estado.c"
  2811 ;; Parameters:    Size  Location     Type
  2812 ;;		None
  2813 ;; Auto vars:     Size  Location     Type
  2814 ;;		None
  2815 ;; Return value:  Size  Location     Type
  2816 ;;                  1    wreg      void 
  2817 ;; Registers used:
  2818 ;;		wreg, fsr0l, fsr0h, status,2, status,0, btemp+1, pclath, cstack
  2819 ;; Tracked objects:
  2820 ;;		On entry : 0/0
  2821 ;;		On exit  : 0/0
  2822 ;;		Unchanged: 0/0
  2823 ;; Data sizes:     COMMON   BANK0   BANK1   BANK3   BANK2
  2824 ;;      Params:         0       0       0       0       0
  2825 ;;      Locals:         0       0       0       0       0
  2826 ;;      Temps:          3       0       0       0       0
  2827 ;;      Totals:         3       0       0       0       0
  2828 ;;Total ram usage:        3 bytes
  2829 ;; Hardware stack levels used: 1
  2830 ;; Hardware stack levels required when called: 3
  2831 ;; This function calls:
  2832 ;;		_LCD_Clear
  2833 ;;		_LCD_String_xy
  2834 ;; This function is called by:
  2835 ;;		_main
  2836 ;; This function uses a non-reentrant model
  2837 ;;
  2838                           
  2839     1386                     _function_Locked:	
  2840                           ;psect for function _function_Locked
  2841                           
  2842     1386                     l3356:	
  2843                           ;incstack = 0
  2844                           ; Regs used in _function_Locked: [wreg-fsr0h+status,2+status,0+btemp+1+pclath+cstack]
  2845                           
  2846                           
  2847                           ;Funciones_Estado.c: 124:     LCD_Clear();
  2848     1386  160A  118A  227E  160A  118A  	fcall	_LCD_Clear
  2849     138B                     l3358:
  2850                           
  2851                           ;Funciones_Estado.c: 125:     LCD_String_xy(0,0,"Block System");
  2852     138B  01F5               	clrf	LCD_String_xy@pos
  2853     138C  3094               	movlw	(low ((STR_5-__stringbase)| (0+32768)))& (0+255)
  2854     138D  00F6               	movwf	LCD_String_xy@msg
  2855     138E  3080               	movlw	128
  2856     138F  00F7               	movwf	LCD_String_xy@msg+1
  2857     1390  3000               	movlw	0
  2858     1391  160A  118A  230F  160A  118A  	fcall	_LCD_String_xy
  2859     1396                     l3360:
  2860                           
  2861                           ;Funciones_Estado.c: 126:     RE0 = 1;
  2862     1396  1283               	bcf	3,5	;RP0=0, select bank0
  2863     1397  1303               	bcf	3,6	;RP1=0, select bank0
  2864     1398  1409               	bsf	9,0	;volatile
  2865     1399                     l3362:
  2866                           
  2867                           ;Funciones_Estado.c: 127:     _delay((unsigned long)((10000)*(8000000/4000.0)));
  2868     1399  3066               	movlw	102
  2869     139A  00FC               	movwf	??_function_Locked+2
  2870     139B  3076               	movlw	118
  2871     139C  00FB               	movwf	??_function_Locked+1
  2872     139D  30C1               	movlw	193
  2873     139E  00FA               	movwf	??_function_Locked
  2874     139F                     u5737:
  2875     139F  0BFA               	decfsz	??_function_Locked,f
  2876     13A0  2B9F               	goto	u5737
  2877     13A1  0BFB               	decfsz	??_function_Locked+1,f
  2878     13A2  2B9F               	goto	u5737
  2879     13A3  0BFC               	decfsz	??_function_Locked+2,f
  2880     13A4  2B9F               	goto	u5737
  2881     13A5                     l3364:
  2882                           
  2883                           ;Funciones_Estado.c: 128:     RE0 = 0;
  2884     13A5  1283               	bcf	3,5	;RP0=0, select bank0
  2885     13A6  1303               	bcf	3,6	;RP1=0, select bank0
  2886     13A7  1009               	bcf	9,0	;volatile
  2887     13A8                     l3366:
  2888                           
  2889                           ;Funciones_Estado.c: 129:     LCD_Clear();
  2890     13A8  160A  118A  227E  160A  118A  	fcall	_LCD_Clear
  2891     13AD                     l3368:
  2892                           
  2893                           ;Funciones_Estado.c: 130:     Estado = security;
  2894     13AD  1283               	bcf	3,5	;RP0=0, select bank0
  2895     13AE  1303               	bcf	3,6	;RP1=0, select bank0
  2896     13AF  01EF               	clrf	_Estado
  2897     13B0                     l246:
  2898     13B0  0008               	return
  2899     13B1                     __end_of_function_Locked:
  2900                           
  2901                           	psect	text8
  2902     091B                     __ptext8:	
  2903 ;; *************** function _function_Environment_alarm *****************
  2904 ;; Defined at:
  2905 ;;		line 171 in file "Funciones_Estado.c"
  2906 ;; Parameters:    Size  Location     Type
  2907 ;;		None
  2908 ;; Auto vars:     Size  Location     Type
  2909 ;;  temperature_    2   49[BANK1 ] int 
  2910 ;;  value_temper    2   47[BANK1 ] int 
  2911 ;;  n               2    0        int 
  2912 ;;  value_fotoce    2    0        int 
  2913 ;;  value_potenc    2    0        int 
  2914 ;; Return value:  Size  Location     Type
  2915 ;;                  1    wreg      void 
  2916 ;; Registers used:
  2917 ;;		wreg, fsr0l, fsr0h, status,2, status,0, btemp+1, pclath, cstack
  2918 ;; Tracked objects:
  2919 ;;		On entry : 0/0
  2920 ;;		On exit  : 0/0
  2921 ;;		Unchanged: 0/0
  2922 ;; Data sizes:     COMMON   BANK0   BANK1   BANK3   BANK2
  2923 ;;      Params:         0       0       0       0       0
  2924 ;;      Locals:         0       0       4       0       0
  2925 ;;      Temps:          0       0       3       0       0
  2926 ;;      Totals:         0       0       7       0       0
  2927 ;;Total ram usage:        7 bytes
  2928 ;; Hardware stack levels used: 1
  2929 ;; Hardware stack levels required when called: 5
  2930 ;; This function calls:
  2931 ;;		_Calculus_Temperature
  2932 ;;		_LCD_Clear
  2933 ;;		_LCD_String_xy
  2934 ;;		_Use_Chanel
  2935 ;;		_sprintf
  2936 ;; This function is called by:
  2937 ;;		_main
  2938 ;; This function uses a non-reentrant model
  2939 ;;
  2940                           
  2941     091B                     _function_Environment_alarm:	
  2942                           ;psect for function _function_Environment_alarm
  2943                           
  2944     091B                     l4004:	
  2945                           ;incstack = 0
  2946                           ; Regs used in _function_Environment_alarm: [wreg-fsr0h+status,2+status,0+btemp+1+pclath
      +                          +cstack]
  2947                           
  2948                           
  2949                           ;Funciones_Estado.c: 172:     LCD_Clear();
  2950     091B  160A  118A  227E  120A  158A  	fcall	_LCD_Clear
  2951     0920                     l4006:
  2952                           
  2953                           ;Funciones_Estado.c: 173:     LCD_String_xy(0,0,"Temperatura Amb");
  2954     0920  01F5               	clrf	LCD_String_xy@pos
  2955     0921  3068               	movlw	(low ((STR_7-__stringbase)| (0+32768)))& (0+255)
  2956     0922  00F6               	movwf	LCD_String_xy@msg
  2957     0923  3080               	movlw	128
  2958     0924  00F7               	movwf	LCD_String_xy@msg+1
  2959     0925  3000               	movlw	0
  2960     0926  160A  118A  230F  120A  158A  	fcall	_LCD_String_xy
  2961     092B                     l4008:
  2962     092B  3000               	movlw	0
  2963     092C  00F0               	movwf	Use_Chanel@select
  2964     092D  00F1               	movwf	Use_Chanel@select+1
  2965     092E  160A  118A  22C8  120A  158A  	fcall	_Use_Chanel
  2966     0933                     l4010:
  2967                           
  2968                           ;Funciones_Estado.c: 175:     int value_temperature = Use_Chanel(1);
  2969     0933  3001               	movlw	1
  2970     0934  00F0               	movwf	Use_Chanel@select
  2971     0935  3000               	movlw	0
  2972     0936  00F1               	movwf	Use_Chanel@select+1
  2973     0937  160A  118A  22C8  120A  158A  	fcall	_Use_Chanel
  2974     093C  0871               	movf	?_Use_Chanel+1,w
  2975     093D  1683               	bsf	3,5	;RP0=1, select bank1
  2976     093E  1303               	bcf	3,6	;RP1=0, select bank1
  2977     093F  00D0               	movwf	(function_Environment_alarm@value_temperature+1)^(0+128)
  2978     0940  0870               	movf	?_Use_Chanel,w
  2979     0941  00CF               	movwf	function_Environment_alarm@value_temperature^(0+128)
  2980     0942                     l4012:
  2981                           
  2982                           ;Funciones_Estado.c: 176:     int temperature_celsius = Calculus_Temperature(value_tempe
      +                          rature);
  2983     0942  0850               	movf	(function_Environment_alarm@value_temperature+1)^(0+128),w
  2984     0943  00B5               	movwf	(Calculus_Temperature@temperature+1)^(0+128)
  2985     0944  084F               	movf	function_Environment_alarm@value_temperature^(0+128),w
  2986     0945  00B4               	movwf	Calculus_Temperature@temperature^(0+128)
  2987     0946  120A  158A  2675  120A  158A  	fcall	_Calculus_Temperature
  2988     094B  1683               	bsf	3,5	;RP0=1, select bank1
  2989     094C  1303               	bcf	3,6	;RP1=0, select bank1
  2990     094D  0835               	movf	(?_Calculus_Temperature+1)^(0+128),w
  2991     094E  00D2               	movwf	(function_Environment_alarm@temperature_celsius+1)^(0+128)
  2992     094F  0834               	movf	?_Calculus_Temperature^(0+128),w
  2993     0950  00D1               	movwf	function_Environment_alarm@temperature_celsius^(0+128)
  2994     0951  3004               	movlw	4
  2995     0952  00F0               	movwf	Use_Chanel@select
  2996     0953  3000               	movlw	0
  2997     0954  00F1               	movwf	Use_Chanel@select+1
  2998     0955  160A  118A  22C8  120A  158A  	fcall	_Use_Chanel
  2999     095A                     l4014:
  3000                           
  3001                           ;Funciones_Estado.c: 178:     _delay((unsigned long)((500)*(8000000/4000.0)));
  3002     095A  3006               	movlw	6
  3003     095B  1683               	bsf	3,5	;RP0=1, select bank1
  3004     095C  1303               	bcf	3,6	;RP1=0, select bank1
  3005     095D  00CE               	movwf	(??_function_Environment_alarm^(0+128)+2)
  3006     095E  3013               	movlw	19
  3007     095F  00CD               	movwf	(??_function_Environment_alarm^(0+128)+1)
  3008     0960  30AD               	movlw	173
  3009     0961  00CC               	movwf	??_function_Environment_alarm^(0+128)
  3010     0962                     u5747:
  3011     0962  0BCC               	decfsz	??_function_Environment_alarm^(0+128),f
  3012     0963  2962               	goto	u5747
  3013     0964  0BCD               	decfsz	(??_function_Environment_alarm^(0+128)+1),f
  3014     0965  2962               	goto	u5747
  3015     0966  0BCE               	decfsz	(??_function_Environment_alarm^(0+128)+2),f
  3016     0967  2962               	goto	u5747
  3017     0968                     l4016:
  3018     0968  30AD               	movlw	(low ((STR_8-__stringbase)| (0+32768)))& (0+255)
  3019     0969  1283               	bcf	3,5	;RP0=0, select bank0
  3020     096A  1303               	bcf	3,6	;RP1=0, select bank0
  3021     096B  00A0               	movwf	sprintf@f
  3022     096C  1683               	bsf	3,5	;RP0=1, select bank1
  3023     096D  1303               	bcf	3,6	;RP1=0, select bank1
  3024     096E  0852               	movf	(function_Environment_alarm@temperature_celsius+1)^(0+128),w
  3025     096F  1283               	bcf	3,5	;RP0=0, select bank0
  3026     0970  1303               	bcf	3,6	;RP1=0, select bank0
  3027     0971  00A2               	movwf	?_sprintf+2
  3028     0972  1683               	bsf	3,5	;RP0=1, select bank1
  3029     0973  1303               	bcf	3,6	;RP1=0, select bank1
  3030     0974  0851               	movf	function_Environment_alarm@temperature_celsius^(0+128),w
  3031     0975  1283               	bcf	3,5	;RP0=0, select bank0
  3032     0976  1303               	bcf	3,6	;RP1=0, select bank0
  3033     0977  00A1               	movwf	?_sprintf+1
  3034     0978  3090               	movlw	(low (_buffer| (0+256)))& (0+255)
  3035     0979  120A  158A  243D  120A  158A  	fcall	_sprintf
  3036     097E                     l4018:
  3037                           
  3038                           ;Funciones_Estado.c: 180:     LCD_String_xy(0,0,buffer);
  3039     097E  01F5               	clrf	LCD_String_xy@pos
  3040     097F  3090               	movlw	(low (_buffer| (0+256)))& (0+255)
  3041     0980  00F6               	movwf	LCD_String_xy@msg
  3042     0981  3001               	movlw	1
  3043     0982  00F7               	movwf	LCD_String_xy@msg+1
  3044     0983  3000               	movlw	0
  3045     0984  160A  118A  230F  120A  158A  	fcall	_LCD_String_xy
  3046     0989                     l4020:
  3047                           
  3048                           ;Funciones_Estado.c: 181:     _delay((unsigned long)((2000)*(8000000/4000.0)));
  3049     0989  3015               	movlw	21
  3050     098A  1683               	bsf	3,5	;RP0=1, select bank1
  3051     098B  1303               	bcf	3,6	;RP1=0, select bank1
  3052     098C  00CE               	movwf	(??_function_Environment_alarm^(0+128)+2)
  3053     098D  304B               	movlw	75
  3054     098E  00CD               	movwf	(??_function_Environment_alarm^(0+128)+1)
  3055     098F  30BD               	movlw	189
  3056     0990  00CC               	movwf	??_function_Environment_alarm^(0+128)
  3057     0991                     u5757:
  3058     0991  0BCC               	decfsz	??_function_Environment_alarm^(0+128),f
  3059     0992  2991               	goto	u5757
  3060     0993  0BCD               	decfsz	(??_function_Environment_alarm^(0+128)+1),f
  3061     0994  2991               	goto	u5757
  3062     0995  0BCE               	decfsz	(??_function_Environment_alarm^(0+128)+2),f
  3063     0996  2991               	goto	u5757
  3064     0997  2998               	nop2
  3065     0998                     l4022:
  3066                           
  3067                           ;Funciones_Estado.c: 183:     if(temperature_celsius > 30){
  3068     0998  1683               	bsf	3,5	;RP0=1, select bank1
  3069     0999  1303               	bcf	3,6	;RP1=0, select bank1
  3070     099A  0852               	movf	(function_Environment_alarm@temperature_celsius+1)^(0+128),w
  3071     099B  3A80               	xorlw	128
  3072     099C  00FF               	movwf	btemp+1
  3073     099D  3080               	movlw	128
  3074     099E  027F               	subwf	btemp+1,w
  3075     099F  1D03               	skipz
  3076     09A0  29A3               	goto	u5595
  3077     09A1  301F               	movlw	31
  3078     09A2  0251               	subwf	function_Environment_alarm@temperature_celsius^(0+128),w
  3079     09A3                     u5595:
  3080     09A3  1C03               	skipc
  3081     09A4  29A6               	goto	u5591
  3082     09A5  29A7               	goto	u5590
  3083     09A6                     u5591:
  3084     09A6  29AC               	goto	l4026
  3085     09A7                     u5590:
  3086     09A7                     l4024:
  3087                           
  3088                           ;Funciones_Estado.c: 184:         Estado = alarm_environment;
  3089     09A7  3005               	movlw	5
  3090     09A8  1283               	bcf	3,5	;RP0=0, select bank0
  3091     09A9  1303               	bcf	3,6	;RP1=0, select bank0
  3092     09AA  00EF               	movwf	_Estado
  3093                           
  3094                           ;Funciones_Estado.c: 185:     }
  3095     09AB  29B0               	goto	l4028
  3096     09AC                     l4026:
  3097                           
  3098                           ;Funciones_Estado.c: 187:         Estado = environment;
  3099     09AC  3004               	movlw	4
  3100     09AD  1283               	bcf	3,5	;RP0=0, select bank0
  3101     09AE  1303               	bcf	3,6	;RP1=0, select bank0
  3102     09AF  00EF               	movwf	_Estado
  3103     09B0                     l4028:
  3104                           
  3105                           ;Funciones_Estado.c: 189:     LCD_Clear();
  3106     09B0  160A  118A  227E  120A  158A  	fcall	_LCD_Clear
  3107     09B5                     l4030:
  3108                           
  3109                           ;Funciones_Estado.c: 190:     _delay((unsigned long)((3000)*(8000000/4000.0)));
  3110     09B5  301F               	movlw	31
  3111     09B6  1683               	bsf	3,5	;RP0=1, select bank1
  3112     09B7  1303               	bcf	3,6	;RP1=0, select bank1
  3113     09B8  00CE               	movwf	(??_function_Environment_alarm^(0+128)+2)
  3114     09B9  3071               	movlw	113
  3115     09BA  00CD               	movwf	(??_function_Environment_alarm^(0+128)+1)
  3116     09BB  301D               	movlw	29
  3117     09BC  00CC               	movwf	??_function_Environment_alarm^(0+128)
  3118     09BD                     u5767:
  3119     09BD  0BCC               	decfsz	??_function_Environment_alarm^(0+128),f
  3120     09BE  29BD               	goto	u5767
  3121     09BF  0BCD               	decfsz	(??_function_Environment_alarm^(0+128)+1),f
  3122     09C0  29BD               	goto	u5767
  3123     09C1  0BCE               	decfsz	(??_function_Environment_alarm^(0+128)+2),f
  3124     09C2  29BD               	goto	u5767
  3125     09C3  29C4               	nop2
  3126     09C4                     l4032:
  3127                           
  3128                           ;Funciones_Estado.c: 191:     Estado = monitoring;
  3129     09C4  1283               	bcf	3,5	;RP0=0, select bank0
  3130     09C5  1303               	bcf	3,6	;RP1=0, select bank0
  3131     09C6  01EF               	clrf	_Estado
  3132     09C7  0AEF               	incf	_Estado,f
  3133     09C8                     l257:
  3134     09C8  0008               	return
  3135     09C9                     __end_of_function_Environment_alarm:
  3136                           
  3137                           	psect	text9
  3138     0C3D                     __ptext9:	
  3139 ;; *************** function _sprintf *****************
  3140 ;; Defined at:
  3141 ;;		line 505 in file "C:\Program Files\Microchip\xc8\v2.41\pic\sources\c90\common\doprnt.c"
  3142 ;; Parameters:    Size  Location     Type
  3143 ;;  sp              1    wreg     PTR unsigned char 
  3144 ;;		 -> buffer(17), 
  3145 ;;  f               1    0[BANK0 ] PTR const unsigned char 
  3146 ;;		 -> STR_8(6), STR_1(19), 
  3147 ;; Auto vars:     Size  Location     Type
  3148 ;;  sp              1   17[BANK0 ] PTR unsigned char 
  3149 ;;		 -> buffer(17), 
  3150 ;;  tmpval          4    0        struct .
  3151 ;;  val             2   15[BANK0 ] unsigned int 
  3152 ;;  ccnt            2   12[BANK0 ] int 
  3153 ;;  cp              2    0        PTR const unsigned char 
  3154 ;;  len             2    0        unsigned int 
  3155 ;;  c               1   18[BANK0 ] unsigned char 
  3156 ;;  prec            1   14[BANK0 ] char 
  3157 ;;  flag            1   11[BANK0 ] unsigned char 
  3158 ;;  ap              1   10[BANK0 ] PTR void [1]
  3159 ;;		 -> ?_sprintf(2), 
  3160 ;; Return value:  Size  Location     Type
  3161 ;;                  2    0[BANK0 ] int 
  3162 ;; Registers used:
  3163 ;;		wreg, fsr0l, fsr0h, status,2, status,0, btemp+1, pclath, cstack
  3164 ;; Tracked objects:
  3165 ;;		On entry : 0/0
  3166 ;;		On exit  : 0/0
  3167 ;;		Unchanged: 0/0
  3168 ;; Data sizes:     COMMON   BANK0   BANK1   BANK3   BANK2
  3169 ;;      Params:         0       7       0       0       0
  3170 ;;      Locals:         0       9       0       0       0
  3171 ;;      Temps:          0       3       0       0       0
  3172 ;;      Totals:         0      19       0       0       0
  3173 ;;Total ram usage:       19 bytes
  3174 ;; Hardware stack levels used: 1
  3175 ;; Hardware stack levels required when called: 1
  3176 ;; This function calls:
  3177 ;;		___lwdiv
  3178 ;;		___lwmod
  3179 ;; This function is called by:
  3180 ;;		_function_Monitoring
  3181 ;;		_function_Environment_alarm
  3182 ;; This function uses a non-reentrant model
  3183 ;;
  3184                           
  3185     0C3D                     _sprintf:	
  3186                           ;psect for function _sprintf
  3187                           
  3188                           
  3189                           ;incstack = 0
  3190                           ; Regs used in _sprintf: [wreg-fsr0h+status,2+status,0+btemp+1+pclath+cstack]
  3191                           ;sprintf@sp stored from wreg
  3192     0C3D  1283               	bcf	3,5	;RP0=0, select bank0
  3193     0C3E  1303               	bcf	3,6	;RP1=0, select bank0
  3194     0C3F  00B1               	movwf	sprintf@sp
  3195     0C40                     l3148:
  3196                           
  3197                           ;C:\Program Files\Microchip\xc8\v2.41\pic\sources\c90\common\doprnt.c: 505: sprintf(char
      +                           * sp, const char * f, ...);C:\Program Files\Microchip\xc8\v2.41\pic\sources\c90\common\
      +                          doprnt.c: 506: {;C:\Program Files\Microchip\xc8\v2.41\pic\sources\c90\common\doprnt.c: 5
      +                          07:  va_list ap;;C:\Program Files\Microchip\xc8\v2.41\pic\sources\c90\common\doprnt.c: 5
      +                          12:  char c;;C:\Program Files\Microchip\xc8\v2.41\pic\sources\c90\common\doprnt.c: 521: 
      +                           signed char prec;;C:\Program Files\Microchip\xc8\v2.41\pic\sources\c90\common\doprnt.c:
      +                           525:  unsigned char flag;
  3198     0C40  01AC               	clrf	sprintf@ccnt
  3199     0C41  01AD               	clrf	sprintf@ccnt+1
  3200     0C42                     l3150:
  3201                           
  3202                           ;C:\Program Files\Microchip\xc8\v2.41\pic\sources\c90\common\doprnt.c: 543:  } tmpval;;C
      +                          :\Program Files\Microchip\xc8\v2.41\pic\sources\c90\common\doprnt.c: 545:  unsigned int 
      +                          val;;C:\Program Files\Microchip\xc8\v2.41\pic\sources\c90\common\doprnt.c: 546:  unsigne
      +                          d len;;C:\Program Files\Microchip\xc8\v2.41\pic\sources\c90\common\doprnt.c: 547:  const
      +                           char * cp;;C:\Program Files\Microchip\xc8\v2.41\pic\sources\c90\common\doprnt.c: 550:  
      +                          *ap = __va_start();
  3203     0C42  3021               	movlw	(low ((?_sprintf| 0+1)))& (0+255)
  3204     0C43  00AA               	movwf	sprintf@ap
  3205                           
  3206                           ;C:\Program Files\Microchip\xc8\v2.41\pic\sources\c90\common\doprnt.c: 553:  while((c = 
      +                          *f++)) {
  3207     0C44  2D16               	goto	l3210
  3208     0C45                     l3152:
  3209                           
  3210                           ;C:\Program Files\Microchip\xc8\v2.41\pic\sources\c90\common\doprnt.c: 555:   if(c != '%
      +                          ')
  3211     0C45  3025               	movlw	37
  3212     0C46  0632               	xorwf	sprintf@c,w
  3213     0C47  1903               	btfsc	3,2
  3214     0C48  2C4A               	goto	u4191
  3215     0C49  2C4B               	goto	u4190
  3216     0C4A                     u4191:
  3217     0C4A  2C5B               	goto	l3160
  3218     0C4B                     u4190:
  3219     0C4B                     l3154:
  3220                           
  3221                           ;C:\Program Files\Microchip\xc8\v2.41\pic\sources\c90\common\doprnt.c: 557:   {;C:\Progr
      +                          am Files\Microchip\xc8\v2.41\pic\sources\c90\common\doprnt.c: 558:    ((*sp++ = (c)),(++
      +                          ccnt));
  3222     0C4B  0831               	movf	sprintf@sp,w
  3223     0C4C  0084               	movwf	4
  3224     0C4D  0832               	movf	sprintf@c,w
  3225     0C4E  1783               	bsf	3,7	;select IRP bank2
  3226     0C4F  0080               	movwf	0
  3227     0C50                     l3156:
  3228     0C50  3001               	movlw	1
  3229     0C51  00FF               	movwf	btemp+1
  3230     0C52  087F               	movf	btemp+1,w
  3231     0C53  07B1               	addwf	sprintf@sp,f
  3232     0C54                     l3158:
  3233     0C54  3001               	movlw	1
  3234     0C55  07AC               	addwf	sprintf@ccnt,f
  3235     0C56  1803               	skipnc
  3236     0C57  0AAD               	incf	sprintf@ccnt+1,f
  3237     0C58  3000               	movlw	0
  3238     0C59  07AD               	addwf	sprintf@ccnt+1,f
  3239                           
  3240                           ;C:\Program Files\Microchip\xc8\v2.41\pic\sources\c90\common\doprnt.c: 559:    continue;
  3241     0C5A  2D16               	goto	l3210
  3242     0C5B                     l3160:
  3243                           
  3244                           ;C:\Program Files\Microchip\xc8\v2.41\pic\sources\c90\common\doprnt.c: 565:   flag = 0;
  3245     0C5B  01AB               	clrf	sprintf@flag
  3246     0C5C                     l3164:	
  3247                           ;C:\Program Files\Microchip\xc8\v2.41\pic\sources\c90\common\doprnt.c: 661:   switch(c =
      +                           *f++) {
  3248                           
  3249     0C5C  3001               	movlw	1
  3250     0C5D  07A0               	addwf	sprintf@f,f
  3251     0C5E  30FF               	movlw	-1
  3252     0C5F  0720               	addwf	sprintf@f,w
  3253     0C60  0084               	movwf	4
  3254     0C61  120A  158A  200A  120A  158A  	fcall	stringdir
  3255     0C66  00B2               	movwf	sprintf@c
  3256     0C67  00A7               	movwf	??_sprintf
  3257     0C68  01A8               	clrf	??_sprintf+1
  3258                           
  3259                           ; Switch on 2 bytes has been partitioned into a top level switch of size 1, and 1 sub-sw
      +                          itches
  3260                           ; Switch size 1, requested type "simple"
  3261                           ; Number of cases is 1, Range of values is 0 to 0
  3262                           ; switch strategies available:
  3263                           ; Name         Instructions Cycles
  3264                           ; simple_byte            4     3 (average)
  3265                           ; direct_byte           11     8 (fixed)
  3266                           ; jumptable            260     6 (fixed)
  3267                           ;	Chosen strategy is simple_byte
  3268     0C69  0828               	movf	??_sprintf+1,w
  3269     0C6A  3A00               	xorlw	0	; case 0
  3270     0C6B  1903               	skipnz
  3271     0C6C  2C6E               	goto	l4098
  3272     0C6D  2D16               	goto	l3210
  3273     0C6E                     l4098:
  3274                           
  3275                           ; Switch size 1, requested type "simple"
  3276                           ; Number of cases is 3, Range of values is 0 to 105
  3277                           ; switch strategies available:
  3278                           ; Name         Instructions Cycles
  3279                           ; simple_byte           10     6 (average)
  3280                           ; jumptable            260     6 (fixed)
  3281                           ;	Chosen strategy is simple_byte
  3282     0C6E  0827               	movf	??_sprintf,w
  3283     0C6F  3A00               	xorlw	0	; case 0
  3284     0C70  1903               	skipnz
  3285     0C71  2D26               	goto	l3212
  3286     0C72  3A64               	xorlw	100	; case 100
  3287     0C73  1903               	skipnz
  3288     0C74  2C79               	goto	l3166
  3289     0C75  3A0D               	xorlw	13	; case 105
  3290     0C76  1903               	skipnz
  3291     0C77  2C79               	goto	l3166
  3292     0C78  2D16               	goto	l3210
  3293     0C79                     l3166:
  3294                           
  3295                           ;C:\Program Files\Microchip\xc8\v2.41\pic\sources\c90\common\doprnt.c: 1279:   {;C:\Prog
      +                          ram Files\Microchip\xc8\v2.41\pic\sources\c90\common\doprnt.c: 1285:     val = (unsigned
      +                           int)(*(int *)__va_arg((*(int **)ap), (int)0));
  3296     0C79  082A               	movf	sprintf@ap,w
  3297     0C7A  0084               	movwf	4
  3298     0C7B  1383               	bcf	3,7	;select IRP bank0
  3299     0C7C  0800               	movf	0,w
  3300     0C7D  00AF               	movwf	sprintf@val
  3301     0C7E  0A84               	incf	4,f
  3302     0C7F  0800               	movf	0,w
  3303     0C80  00B0               	movwf	sprintf@val+1
  3304     0C81                     l3168:
  3305     0C81  3002               	movlw	2
  3306     0C82  00FF               	movwf	btemp+1
  3307     0C83  087F               	movf	btemp+1,w
  3308     0C84  07AA               	addwf	sprintf@ap,f
  3309     0C85                     l3170:
  3310                           
  3311                           ;C:\Program Files\Microchip\xc8\v2.41\pic\sources\c90\common\doprnt.c: 1287:    if((int)
      +                          val < 0) {
  3312     0C85  1FB0               	btfss	sprintf@val+1,7
  3313     0C86  2C88               	goto	u4201
  3314     0C87  2C89               	goto	u4200
  3315     0C88                     u4201:
  3316     0C88  2C92               	goto	l3176
  3317     0C89                     u4200:
  3318     0C89                     l3172:
  3319                           
  3320                           ;C:\Program Files\Microchip\xc8\v2.41\pic\sources\c90\common\doprnt.c: 1288:     flag |=
      +                           0x03;
  3321     0C89  3003               	movlw	3
  3322     0C8A  00FF               	movwf	btemp+1
  3323     0C8B  087F               	movf	btemp+1,w
  3324     0C8C  04AB               	iorwf	sprintf@flag,f
  3325     0C8D                     l3174:
  3326                           
  3327                           ;C:\Program Files\Microchip\xc8\v2.41\pic\sources\c90\common\doprnt.c: 1289:     val = -
      +                          val;
  3328     0C8D  09AF               	comf	sprintf@val,f
  3329     0C8E  09B0               	comf	sprintf@val+1,f
  3330     0C8F  0AAF               	incf	sprintf@val,f
  3331     0C90  1903               	skipnz
  3332     0C91  0AB0               	incf	sprintf@val+1,f
  3333     0C92                     l3176:
  3334                           
  3335                           ;C:\Program Files\Microchip\xc8\v2.41\pic\sources\c90\common\doprnt.c: 1292:   };C:\Prog
      +                          ram Files\Microchip\xc8\v2.41\pic\sources\c90\common\doprnt.c: 1331:    for(c = 1 ; c !=
      +                           sizeof dpowers/sizeof dpowers[0] ; c++)
  3336     0C92  01B2               	clrf	sprintf@c
  3337     0C93  0AB2               	incf	sprintf@c,f
  3338     0C94                     l3182:
  3339                           
  3340                           ;C:\Program Files\Microchip\xc8\v2.41\pic\sources\c90\common\doprnt.c: 1332:     if(val 
      +                          < dpowers[c])
  3341     0C94  0832               	movf	sprintf@c,w
  3342     0C95  00A7               	movwf	??_sprintf
  3343     0C96  0727               	addwf	??_sprintf,w
  3344     0C97  3E01               	addlw	low ((_dpowers-__stringbase)| (0+32768))
  3345     0C98  0084               	movwf	4
  3346     0C99  120A  158A  200A  120A  158A  	fcall	stringdir
  3347     0C9E  00A8               	movwf	??_sprintf+1
  3348     0C9F  120A  158A  200A  120A  158A  	fcall	stringdir
  3349     0CA4  00A9               	movwf	??_sprintf+2
  3350     0CA5  0829               	movf	??_sprintf+2,w
  3351     0CA6  0230               	subwf	sprintf@val+1,w
  3352     0CA7  1D03               	skipz
  3353     0CA8  2CAB               	goto	u4215
  3354     0CA9  0828               	movf	??_sprintf+1,w
  3355     0CAA  022F               	subwf	sprintf@val,w
  3356     0CAB                     u4215:
  3357     0CAB  1803               	skipnc
  3358     0CAC  2CAE               	goto	u4211
  3359     0CAD  2CAF               	goto	u4210
  3360     0CAE                     u4211:
  3361     0CAE  2CB0               	goto	l3186
  3362     0CAF                     u4210:
  3363     0CAF  2CBA               	goto	l3190
  3364     0CB0                     l3186:
  3365     0CB0  3001               	movlw	1
  3366     0CB1  00FF               	movwf	btemp+1
  3367     0CB2  087F               	movf	btemp+1,w
  3368     0CB3  07B2               	addwf	sprintf@c,f
  3369     0CB4                     l3188:
  3370     0CB4  3005               	movlw	5
  3371     0CB5  0632               	xorwf	sprintf@c,w
  3372     0CB6  1D03               	btfss	3,2
  3373     0CB7  2CB9               	goto	u4221
  3374     0CB8  2CBA               	goto	u4220
  3375     0CB9                     u4221:
  3376     0CB9  2C94               	goto	l3182
  3377     0CBA                     u4220:
  3378     0CBA                     l3190:
  3379                           
  3380                           ;C:\Program Files\Microchip\xc8\v2.41\pic\sources\c90\common\doprnt.c: 1448:   {;C:\Prog
      +                          ram Files\Microchip\xc8\v2.41\pic\sources\c90\common\doprnt.c: 1464:    if(flag & 0x03)
  3381     0CBA  082B               	movf	sprintf@flag,w
  3382     0CBB  3903               	andlw	3
  3383     0CBC  1903               	btfsc	3,2
  3384     0CBD  2CBF               	goto	u4231
  3385     0CBE  2CC0               	goto	u4230
  3386     0CBF                     u4231:
  3387     0CBF  2CCF               	goto	l3198
  3388     0CC0                     u4230:
  3389     0CC0                     l3192:
  3390                           
  3391                           ;C:\Program Files\Microchip\xc8\v2.41\pic\sources\c90\common\doprnt.c: 1465:     ((*sp++
      +                           = ('-')),(++ccnt));
  3392     0CC0  0831               	movf	sprintf@sp,w
  3393     0CC1  0084               	movwf	4
  3394     0CC2  302D               	movlw	45
  3395     0CC3  1783               	bsf	3,7	;select IRP bank2
  3396     0CC4  0080               	movwf	0
  3397     0CC5                     l3194:
  3398     0CC5  3001               	movlw	1
  3399     0CC6  00FF               	movwf	btemp+1
  3400     0CC7  087F               	movf	btemp+1,w
  3401     0CC8  07B1               	addwf	sprintf@sp,f
  3402     0CC9                     l3196:
  3403     0CC9  3001               	movlw	1
  3404     0CCA  07AC               	addwf	sprintf@ccnt,f
  3405     0CCB  1803               	skipnc
  3406     0CCC  0AAD               	incf	sprintf@ccnt+1,f
  3407     0CCD  3000               	movlw	0
  3408     0CCE  07AD               	addwf	sprintf@ccnt+1,f
  3409     0CCF                     l3198:
  3410                           
  3411                           ;C:\Program Files\Microchip\xc8\v2.41\pic\sources\c90\common\doprnt.c: 1495:   };C:\Prog
      +                          ram Files\Microchip\xc8\v2.41\pic\sources\c90\common\doprnt.c: 1498:   prec = c;
  3412     0CCF  0832               	movf	sprintf@c,w
  3413     0CD0  00AE               	movwf	sprintf@prec
  3414                           
  3415                           ;C:\Program Files\Microchip\xc8\v2.41\pic\sources\c90\common\doprnt.c: 1500:   while(pre
      +                          c--) {
  3416     0CD1  2D0D               	goto	l3208
  3417     0CD2                     l3200:
  3418                           
  3419                           ;C:\Program Files\Microchip\xc8\v2.41\pic\sources\c90\common\doprnt.c: 1504:    {;C:\Pro
      +                          gram Files\Microchip\xc8\v2.41\pic\sources\c90\common\doprnt.c: 1515:     c = (val / dpo
      +                          wers[(unsigned char)prec]) % 10 + '0';
  3420     0CD2  300A               	movlw	10
  3421     0CD3  00F7               	movwf	___lwmod@divisor
  3422     0CD4  3000               	movlw	0
  3423     0CD5  00F8               	movwf	___lwmod@divisor+1
  3424     0CD6  082E               	movf	sprintf@prec,w
  3425     0CD7  00A7               	movwf	??_sprintf
  3426     0CD8  0727               	addwf	??_sprintf,w
  3427     0CD9  3E01               	addlw	low ((_dpowers-__stringbase)| (0+32768))
  3428     0CDA  0084               	movwf	4
  3429     0CDB  120A  158A  200A  120A  158A  	fcall	stringdir
  3430     0CE0  00F0               	movwf	___lwdiv@divisor
  3431     0CE1  120A  158A  200A  120A  158A  	fcall	stringdir
  3432     0CE6  00F1               	movwf	___lwdiv@divisor+1
  3433     0CE7  0830               	movf	sprintf@val+1,w
  3434     0CE8  00F3               	movwf	___lwdiv@dividend+1
  3435     0CE9  082F               	movf	sprintf@val,w
  3436     0CEA  00F2               	movwf	___lwdiv@dividend
  3437     0CEB  160A  118A  24D9  120A  158A  	fcall	___lwdiv
  3438     0CF0  0871               	movf	?___lwdiv+1,w
  3439     0CF1  00FA               	movwf	___lwmod@dividend+1
  3440     0CF2  0870               	movf	?___lwdiv,w
  3441     0CF3  00F9               	movwf	___lwmod@dividend
  3442     0CF4  160A  118A  241D  120A  158A  	fcall	___lwmod
  3443     0CF9  0877               	movf	?___lwmod,w
  3444     0CFA  3E30               	addlw	48
  3445     0CFB  1283               	bcf	3,5	;RP0=0, select bank0
  3446     0CFC  1303               	bcf	3,6	;RP1=0, select bank0
  3447     0CFD  00B2               	movwf	sprintf@c
  3448     0CFE                     l3202:
  3449                           
  3450                           ;C:\Program Files\Microchip\xc8\v2.41\pic\sources\c90\common\doprnt.c: 1549:    };C:\Pro
      +                          gram Files\Microchip\xc8\v2.41\pic\sources\c90\common\doprnt.c: 1550:    ((*sp++ = (c)),
      +                          (++ccnt));
  3451     0CFE  0831               	movf	sprintf@sp,w
  3452     0CFF  0084               	movwf	4
  3453     0D00  0832               	movf	sprintf@c,w
  3454     0D01  1783               	bsf	3,7	;select IRP bank2
  3455     0D02  0080               	movwf	0
  3456     0D03                     l3204:
  3457     0D03  3001               	movlw	1
  3458     0D04  00FF               	movwf	btemp+1
  3459     0D05  087F               	movf	btemp+1,w
  3460     0D06  07B1               	addwf	sprintf@sp,f
  3461     0D07                     l3206:
  3462     0D07  3001               	movlw	1
  3463     0D08  07AC               	addwf	sprintf@ccnt,f
  3464     0D09  1803               	skipnc
  3465     0D0A  0AAD               	incf	sprintf@ccnt+1,f
  3466     0D0B  3000               	movlw	0
  3467     0D0C  07AD               	addwf	sprintf@ccnt+1,f
  3468     0D0D                     l3208:
  3469                           
  3470                           ;C:\Program Files\Microchip\xc8\v2.41\pic\sources\c90\common\doprnt.c: 1500:   while(pre
      +                          c--) {
  3471     0D0D  30FF               	movlw	255
  3472     0D0E  00FF               	movwf	btemp+1
  3473     0D0F  087F               	movf	btemp+1,w
  3474     0D10  07AE               	addwf	sprintf@prec,f
  3475     0D11  0A2E               	incf	sprintf@prec,w
  3476     0D12  1D03               	btfss	3,2
  3477     0D13  2D15               	goto	u4241
  3478     0D14  2D16               	goto	u4240
  3479     0D15                     u4241:
  3480     0D15  2CD2               	goto	l3200
  3481     0D16                     u4240:
  3482     0D16                     l3210:
  3483                           
  3484                           ;C:\Program Files\Microchip\xc8\v2.41\pic\sources\c90\common\doprnt.c: 553:  while((c = 
      +                          *f++)) {
  3485     0D16  3001               	movlw	1
  3486     0D17  07A0               	addwf	sprintf@f,f
  3487     0D18  30FF               	movlw	-1
  3488     0D19  0720               	addwf	sprintf@f,w
  3489     0D1A  0084               	movwf	4
  3490     0D1B  120A  158A  200A  120A  158A  	fcall	stringdir
  3491     0D20  00B2               	movwf	sprintf@c
  3492     0D21  0832               	movf	sprintf@c,w
  3493     0D22  1D03               	btfss	3,2
  3494     0D23  2D25               	goto	u4251
  3495     0D24  2D26               	goto	u4250
  3496     0D25                     u4251:
  3497     0D25  2C45               	goto	l3152
  3498     0D26                     u4250:
  3499     0D26                     l3212:
  3500                           
  3501                           ;C:\Program Files\Microchip\xc8\v2.41\pic\sources\c90\common\doprnt.c: 1564:  *sp = 0;
  3502     0D26  0831               	movf	sprintf@sp,w
  3503     0D27  0084               	movwf	4
  3504     0D28  1783               	bsf	3,7	;select IRP bank2
  3505     0D29  0180               	clrf	0
  3506     0D2A                     l3214:
  3507                           
  3508                           ;C:\Program Files\Microchip\xc8\v2.41\pic\sources\c90\common\doprnt.c: 1566:  return ccn
      +                          t;
  3509     0D2A  082D               	movf	sprintf@ccnt+1,w
  3510     0D2B  00A1               	movwf	?_sprintf+1
  3511     0D2C  082C               	movf	sprintf@ccnt,w
  3512     0D2D  00A0               	movwf	?_sprintf
  3513     0D2E                     l409:
  3514     0D2E  0008               	return
  3515     0D2F                     __end_of_sprintf:
  3516                           
  3517                           	psect	text10
  3518     141D                     __ptext10:	
  3519 ;; *************** function ___lwmod *****************
  3520 ;; Defined at:
  3521 ;;		line 5 in file "C:\Program Files\Microchip\xc8\v2.41\pic\sources\c90\common\lwmod.c"
  3522 ;; Parameters:    Size  Location     Type
  3523 ;;  divisor         2    7[COMMON] unsigned int 
  3524 ;;  dividend        2    9[COMMON] unsigned int 
  3525 ;; Auto vars:     Size  Location     Type
  3526 ;;  counter         1   11[COMMON] unsigned char 
  3527 ;; Return value:  Size  Location     Type
  3528 ;;                  2    7[COMMON] unsigned int 
  3529 ;; Registers used:
  3530 ;;		wreg, status,2, status,0, btemp+1
  3531 ;; Tracked objects:
  3532 ;;		On entry : 0/0
  3533 ;;		On exit  : 0/0
  3534 ;;		Unchanged: 0/0
  3535 ;; Data sizes:     COMMON   BANK0   BANK1   BANK3   BANK2
  3536 ;;      Params:         4       0       0       0       0
  3537 ;;      Locals:         1       0       0       0       0
  3538 ;;      Temps:          0       0       0       0       0
  3539 ;;      Totals:         5       0       0       0       0
  3540 ;;Total ram usage:        5 bytes
  3541 ;; Hardware stack levels used: 1
  3542 ;; This function calls:
  3543 ;;		Nothing
  3544 ;; This function is called by:
  3545 ;;		_sprintf
  3546 ;; This function uses a non-reentrant model
  3547 ;;
  3548                           
  3549     141D                     ___lwmod:	
  3550                           ;psect for function ___lwmod
  3551                           
  3552     141D                     l2848:	
  3553                           ;incstack = 0
  3554                           ; Regs used in ___lwmod: [wreg+status,2+status,0+btemp+1]
  3555                           
  3556     141D  0877               	movf	___lwmod@divisor,w
  3557     141E  0478               	iorwf	___lwmod@divisor+1,w
  3558     141F  1903               	btfsc	3,2
  3559     1420  2C22               	goto	u3581
  3560     1421  2C23               	goto	u3580
  3561     1422                     u3581:
  3562     1422  2C52               	goto	l2866
  3563     1423                     u3580:
  3564     1423                     l2850:
  3565     1423  01FB               	clrf	___lwmod@counter
  3566     1424  0AFB               	incf	___lwmod@counter,f
  3567     1425  2C31               	goto	l2856
  3568     1426                     l2852:
  3569     1426  3001               	movlw	1
  3570     1427                     u3595:
  3571     1427  1003               	clrc
  3572     1428  0DF7               	rlf	___lwmod@divisor,f
  3573     1429  0DF8               	rlf	___lwmod@divisor+1,f
  3574     142A  3EFF               	addlw	-1
  3575     142B  1D03               	skipz
  3576     142C  2C27               	goto	u3595
  3577     142D                     l2854:
  3578     142D  3001               	movlw	1
  3579     142E  00FF               	movwf	btemp+1
  3580     142F  087F               	movf	btemp+1,w
  3581     1430  07FB               	addwf	___lwmod@counter,f
  3582     1431                     l2856:
  3583     1431  1FF8               	btfss	___lwmod@divisor+1,7
  3584     1432  2C34               	goto	u3601
  3585     1433  2C35               	goto	u3600
  3586     1434                     u3601:
  3587     1434  2C26               	goto	l2852
  3588     1435                     u3600:
  3589     1435                     l2858:
  3590     1435  0878               	movf	___lwmod@divisor+1,w
  3591     1436  027A               	subwf	___lwmod@dividend+1,w
  3592     1437  1D03               	skipz
  3593     1438  2C3B               	goto	u3615
  3594     1439  0877               	movf	___lwmod@divisor,w
  3595     143A  0279               	subwf	___lwmod@dividend,w
  3596     143B                     u3615:
  3597     143B  1C03               	skipc
  3598     143C  2C3E               	goto	u3611
  3599     143D  2C3F               	goto	u3610
  3600     143E                     u3611:
  3601     143E  2C45               	goto	l2862
  3602     143F                     u3610:
  3603     143F                     l2860:
  3604     143F  0877               	movf	___lwmod@divisor,w
  3605     1440  02F9               	subwf	___lwmod@dividend,f
  3606     1441  0878               	movf	___lwmod@divisor+1,w
  3607     1442  1C03               	skipc
  3608     1443  03FA               	decf	___lwmod@dividend+1,f
  3609     1444  02FA               	subwf	___lwmod@dividend+1,f
  3610     1445                     l2862:
  3611     1445  3001               	movlw	1
  3612     1446                     u3625:
  3613     1446  1003               	clrc
  3614     1447  0CF8               	rrf	___lwmod@divisor+1,f
  3615     1448  0CF7               	rrf	___lwmod@divisor,f
  3616     1449  3EFF               	addlw	-1
  3617     144A  1D03               	skipz
  3618     144B  2C46               	goto	u3625
  3619     144C                     l2864:
  3620     144C  3001               	movlw	1
  3621     144D  02FB               	subwf	___lwmod@counter,f
  3622     144E  1D03               	btfss	3,2
  3623     144F  2C51               	goto	u3631
  3624     1450  2C52               	goto	u3630
  3625     1451                     u3631:
  3626     1451  2C35               	goto	l2858
  3627     1452                     u3630:
  3628     1452                     l2866:
  3629     1452  087A               	movf	___lwmod@dividend+1,w
  3630     1453  00F8               	movwf	?___lwmod+1
  3631     1454  0879               	movf	___lwmod@dividend,w
  3632     1455  00F7               	movwf	?___lwmod
  3633     1456                     l695:
  3634     1456  0008               	return
  3635     1457                     __end_of___lwmod:
  3636                           
  3637                           	psect	text11
  3638     14D9                     __ptext11:	
  3639 ;; *************** function ___lwdiv *****************
  3640 ;; Defined at:
  3641 ;;		line 5 in file "C:\Program Files\Microchip\xc8\v2.41\pic\sources\c90\common\lwdiv.c"
  3642 ;; Parameters:    Size  Location     Type
  3643 ;;  divisor         2    0[COMMON] unsigned int 
  3644 ;;  dividend        2    2[COMMON] unsigned int 
  3645 ;; Auto vars:     Size  Location     Type
  3646 ;;  quotient        2    4[COMMON] unsigned int 
  3647 ;;  counter         1    6[COMMON] unsigned char 
  3648 ;; Return value:  Size  Location     Type
  3649 ;;                  2    0[COMMON] unsigned int 
  3650 ;; Registers used:
  3651 ;;		wreg, status,2, status,0, btemp+1
  3652 ;; Tracked objects:
  3653 ;;		On entry : 0/0
  3654 ;;		On exit  : 0/0
  3655 ;;		Unchanged: 0/0
  3656 ;; Data sizes:     COMMON   BANK0   BANK1   BANK3   BANK2
  3657 ;;      Params:         4       0       0       0       0
  3658 ;;      Locals:         3       0       0       0       0
  3659 ;;      Temps:          0       0       0       0       0
  3660 ;;      Totals:         7       0       0       0       0
  3661 ;;Total ram usage:        7 bytes
  3662 ;; Hardware stack levels used: 1
  3663 ;; This function calls:
  3664 ;;		Nothing
  3665 ;; This function is called by:
  3666 ;;		_sprintf
  3667 ;; This function uses a non-reentrant model
  3668 ;;
  3669                           
  3670     14D9                     ___lwdiv:	
  3671                           ;psect for function ___lwdiv
  3672                           
  3673     14D9                     l2822:	
  3674                           ;incstack = 0
  3675                           ; Regs used in ___lwdiv: [wreg+status,2+status,0+btemp+1]
  3676                           
  3677     14D9  01F4               	clrf	___lwdiv@quotient
  3678     14DA  01F5               	clrf	___lwdiv@quotient+1
  3679     14DB                     l2824:
  3680     14DB  0870               	movf	___lwdiv@divisor,w
  3681     14DC  0471               	iorwf	___lwdiv@divisor+1,w
  3682     14DD  1903               	btfsc	3,2
  3683     14DE  2CE0               	goto	u3511
  3684     14DF  2CE1               	goto	u3510
  3685     14E0                     u3511:
  3686     14E0  2D18               	goto	l2844
  3687     14E1                     u3510:
  3688     14E1                     l2826:
  3689     14E1  01F6               	clrf	___lwdiv@counter
  3690     14E2  0AF6               	incf	___lwdiv@counter,f
  3691     14E3  2CEF               	goto	l2832
  3692     14E4                     l2828:
  3693     14E4  3001               	movlw	1
  3694     14E5                     u3525:
  3695     14E5  1003               	clrc
  3696     14E6  0DF0               	rlf	___lwdiv@divisor,f
  3697     14E7  0DF1               	rlf	___lwdiv@divisor+1,f
  3698     14E8  3EFF               	addlw	-1
  3699     14E9  1D03               	skipz
  3700     14EA  2CE5               	goto	u3525
  3701     14EB                     l2830:
  3702     14EB  3001               	movlw	1
  3703     14EC  00FF               	movwf	btemp+1
  3704     14ED  087F               	movf	btemp+1,w
  3705     14EE  07F6               	addwf	___lwdiv@counter,f
  3706     14EF                     l2832:
  3707     14EF  1FF1               	btfss	___lwdiv@divisor+1,7
  3708     14F0  2CF2               	goto	u3531
  3709     14F1  2CF3               	goto	u3530
  3710     14F2                     u3531:
  3711     14F2  2CE4               	goto	l2828
  3712     14F3                     u3530:
  3713     14F3                     l2834:
  3714     14F3  3001               	movlw	1
  3715     14F4                     u3545:
  3716     14F4  1003               	clrc
  3717     14F5  0DF4               	rlf	___lwdiv@quotient,f
  3718     14F6  0DF5               	rlf	___lwdiv@quotient+1,f
  3719     14F7  3EFF               	addlw	-1
  3720     14F8  1D03               	skipz
  3721     14F9  2CF4               	goto	u3545
  3722     14FA  0871               	movf	___lwdiv@divisor+1,w
  3723     14FB  0273               	subwf	___lwdiv@dividend+1,w
  3724     14FC  1D03               	skipz
  3725     14FD  2D00               	goto	u3555
  3726     14FE  0870               	movf	___lwdiv@divisor,w
  3727     14FF  0272               	subwf	___lwdiv@dividend,w
  3728     1500                     u3555:
  3729     1500  1C03               	skipc
  3730     1501  2D03               	goto	u3551
  3731     1502  2D04               	goto	u3550
  3732     1503                     u3551:
  3733     1503  2D0B               	goto	l2840
  3734     1504                     u3550:
  3735     1504                     l2836:
  3736     1504  0870               	movf	___lwdiv@divisor,w
  3737     1505  02F2               	subwf	___lwdiv@dividend,f
  3738     1506  0871               	movf	___lwdiv@divisor+1,w
  3739     1507  1C03               	skipc
  3740     1508  03F3               	decf	___lwdiv@dividend+1,f
  3741     1509  02F3               	subwf	___lwdiv@dividend+1,f
  3742     150A                     l2838:
  3743     150A  1474               	bsf	___lwdiv@quotient,0
  3744     150B                     l2840:
  3745     150B  3001               	movlw	1
  3746     150C                     u3565:
  3747     150C  1003               	clrc
  3748     150D  0CF1               	rrf	___lwdiv@divisor+1,f
  3749     150E  0CF0               	rrf	___lwdiv@divisor,f
  3750     150F  3EFF               	addlw	-1
  3751     1510  1D03               	skipz
  3752     1511  2D0C               	goto	u3565
  3753     1512                     l2842:
  3754     1512  3001               	movlw	1
  3755     1513  02F6               	subwf	___lwdiv@counter,f
  3756     1514  1D03               	btfss	3,2
  3757     1515  2D17               	goto	u3571
  3758     1516  2D18               	goto	u3570
  3759     1517                     u3571:
  3760     1517  2CF3               	goto	l2834
  3761     1518                     u3570:
  3762     1518                     l2844:
  3763     1518  0875               	movf	___lwdiv@quotient+1,w
  3764     1519  00F1               	movwf	?___lwdiv+1
  3765     151A  0874               	movf	___lwdiv@quotient,w
  3766     151B  00F0               	movwf	?___lwdiv
  3767     151C                     l685:
  3768     151C  0008               	return
  3769     151D                     __end_of___lwdiv:
  3770                           
  3771                           	psect	text12
  3772     12C8                     __ptext12:	
  3773 ;; *************** function _Use_Chanel *****************
  3774 ;; Defined at:
  3775 ;;		line 61 in file "Sensors_Control.c"
  3776 ;; Parameters:    Size  Location     Type
  3777 ;;  select          2    0[COMMON] int 
  3778 ;; Auto vars:     Size  Location     Type
  3779 ;;		None
  3780 ;; Return value:  Size  Location     Type
  3781 ;;                  2    0[COMMON] int 
  3782 ;; Registers used:
  3783 ;;		wreg, status,2, status,0
  3784 ;; Tracked objects:
  3785 ;;		On entry : 0/0
  3786 ;;		On exit  : 0/0
  3787 ;;		Unchanged: 0/0
  3788 ;; Data sizes:     COMMON   BANK0   BANK1   BANK3   BANK2
  3789 ;;      Params:         2       0       0       0       0
  3790 ;;      Locals:         0       0       0       0       0
  3791 ;;      Temps:          1       0       0       0       0
  3792 ;;      Totals:         3       0       0       0       0
  3793 ;;Total ram usage:        3 bytes
  3794 ;; Hardware stack levels used: 1
  3795 ;; This function calls:
  3796 ;;		Nothing
  3797 ;; This function is called by:
  3798 ;;		_function_Environment_alarm
  3799 ;; This function uses a non-reentrant model
  3800 ;;
  3801                           
  3802     12C8                     _Use_Chanel:	
  3803                           ;psect for function _Use_Chanel
  3804                           
  3805     12C8                     l3240:	
  3806                           ;incstack = 0
  3807                           ; Regs used in _Use_Chanel: [wreg+status,2+status,0]
  3808                           
  3809                           
  3810                           ;Sensors_Control.c: 62:     ADCON0bits.CHS = (0x0f & select);
  3811     12C8  0870               	movf	Use_Chanel@select,w
  3812     12C9  390F               	andlw	15
  3813     12CA  00F2               	movwf	??_Use_Chanel
  3814     12CB  0DF2               	rlf	??_Use_Chanel,f
  3815     12CC  0DF2               	rlf	??_Use_Chanel,f
  3816     12CD  1283               	bcf	3,5	;RP0=0, select bank0
  3817     12CE  1303               	bcf	3,6	;RP1=0, select bank0
  3818     12CF  081F               	movf	31,w	;volatile
  3819     12D0  0672               	xorwf	??_Use_Chanel,w
  3820     12D1  39C3               	andlw	-61
  3821     12D2  0672               	xorwf	??_Use_Chanel,w
  3822     12D3  009F               	movwf	31	;volatile
  3823     12D4                     l3242:
  3824                           
  3825                           ;Sensors_Control.c: 63:     ADCON0bits.ADON = 1;
  3826     12D4  141F               	bsf	31,0	;volatile
  3827     12D5                     l3244:
  3828                           
  3829                           ;Sensors_Control.c: 64:     _delay((unsigned long)((30)*(8000000/4000000.0)));
  3830     12D5  3013               	movlw	19
  3831     12D6  00F2               	movwf	??_Use_Chanel
  3832     12D7                     u5777:
  3833     12D7  0BF2               	decfsz	??_Use_Chanel,f
  3834     12D8  2AD7               	goto	u5777
  3835     12D9  2ADA               	nop2
  3836     12DA                     l3246:
  3837                           
  3838                           ;Sensors_Control.c: 65:     ADCON0bits.GO = 1;
  3839     12DA  1283               	bcf	3,5	;RP0=0, select bank0
  3840     12DB  1303               	bcf	3,6	;RP1=0, select bank0
  3841     12DC  149F               	bsf	31,1	;volatile
  3842     12DD                     l287:	
  3843                           ;Sensors_Control.c: 66:     while (ADCON0bits.GO);
  3844                           
  3845     12DD  189F               	btfsc	31,1	;volatile
  3846     12DE  2AE0               	goto	u4291
  3847     12DF  2AE1               	goto	u4290
  3848     12E0                     u4291:
  3849     12E0  2ADD               	goto	l287
  3850     12E1                     u4290:
  3851     12E1                     l289:
  3852                           
  3853                           ;Sensors_Control.c: 67:     ADCON0bits.ADON = 0;
  3854     12E1  101F               	bcf	31,0	;volatile
  3855     12E2                     l3248:
  3856                           
  3857                           ;Sensors_Control.c: 69:     return ((ADRESH << 8) | ADRESL);
  3858     12E2  081E               	movf	30,w	;volatile
  3859     12E3  00F1               	movwf	?_Use_Chanel+1
  3860     12E4  1683               	bsf	3,5	;RP0=1, select bank1
  3861     12E5  1303               	bcf	3,6	;RP1=0, select bank1
  3862     12E6  081E               	movf	30,w	;volatile
  3863     12E7  00F0               	movwf	?_Use_Chanel
  3864     12E8                     l290:
  3865     12E8  0008               	return
  3866     12E9                     __end_of_Use_Chanel:
  3867                           
  3868                           	psect	text13
  3869     0E75                     __ptext13:	
  3870 ;; *************** function _Calculus_Temperature *****************
  3871 ;; Defined at:
  3872 ;;		line 84 in file "Sensors_Control.c"
  3873 ;; Parameters:    Size  Location     Type
  3874 ;;  temperature     2   20[BANK1 ] int 
  3875 ;; Auto vars:     Size  Location     Type
  3876 ;;  tempC           4   40[BANK1 ] float 
  3877 ;;  a               4   24[BANK1 ] long 
  3878 ;;  tempF           4    0        float 
  3879 ;; Return value:  Size  Location     Type
  3880 ;;                  2   20[BANK1 ] int 
  3881 ;; Registers used:
  3882 ;;		wreg, fsr0l, fsr0h, status,2, status,0, btemp+1, pclath, cstack
  3883 ;; Tracked objects:
  3884 ;;		On entry : 0/0
  3885 ;;		On exit  : 0/0
  3886 ;;		Unchanged: 0/0
  3887 ;; Data sizes:     COMMON   BANK0   BANK1   BANK3   BANK2
  3888 ;;      Params:         0       0       2       0       0
  3889 ;;      Locals:         0       0      20       0       0
  3890 ;;      Temps:          0       0       2       0       0
  3891 ;;      Totals:         0       0      24       0       0
  3892 ;;Total ram usage:       24 bytes
  3893 ;; Hardware stack levels used: 1
  3894 ;; Hardware stack levels required when called: 4
  3895 ;; This function calls:
  3896 ;;		___fladd
  3897 ;;		___fldiv
  3898 ;;		___fltol
  3899 ;;		___xxtofl
  3900 ;;		_log
  3901 ;; This function is called by:
  3902 ;;		_function_Environment_alarm
  3903 ;; This function uses a non-reentrant model
  3904 ;;
  3905                           
  3906     0E75                     _Calculus_Temperature:	
  3907                           ;psect for function _Calculus_Temperature
  3908                           
  3909     0E75                     l3988:	
  3910                           ;incstack = 0
  3911                           ; Regs used in _Calculus_Temperature: [wreg-fsr0h+status,2+status,0+btemp+1+pclath+cstac
      +                          k]
  3912                           
  3913                           
  3914                           ;Sensors_Control.c: 85:     long a = 1023 - temperature;
  3915     0E75  30FF               	movlw	255
  3916     0E76  1683               	bsf	3,5	;RP0=1, select bank1
  3917     0E77  1303               	bcf	3,6	;RP1=0, select bank1
  3918     0E78  00B6               	movwf	??_Calculus_Temperature^(0+128)
  3919     0E79  3003               	movlw	3
  3920     0E7A  00B7               	movwf	(??_Calculus_Temperature^(0+128)+1)
  3921     0E7B  0834               	movf	Calculus_Temperature@temperature^(0+128),w
  3922     0E7C  0236               	subwf	??_Calculus_Temperature^(0+128),w
  3923     0E7D  00B8               	movwf	Calculus_Temperature@a^(0+128)
  3924     0E7E  0835               	movf	(Calculus_Temperature@temperature+1)^(0+128),w
  3925     0E7F  1C03               	skipc
  3926     0E80  0A35               	incf	(Calculus_Temperature@temperature+1)^(0+128),w
  3927     0E81  0237               	subwf	(??_Calculus_Temperature+1)^(0+128),w
  3928     0E82  00B9               	movwf	(Calculus_Temperature@a+1)^(0+128)
  3929     0E83  01BA               	clrf	(Calculus_Temperature@a^(0+128)+2)
  3930     0E84  1BB9               	btfsc	(Calculus_Temperature@a^(0+128)+1),7
  3931     0E85  03BA               	decf	(Calculus_Temperature@a+2)^(0+128),f
  3932     0E86  083A               	movf	(Calculus_Temperature@a^(0+128)+2),w
  3933     0E87  00BB               	movwf	(Calculus_Temperature@a+3)^(0+128)
  3934     0E88                     l3990:
  3935                           
  3936                           ;Sensors_Control.c: 87:     float tempC = (float)(4090/(log((1025.0 * 10 / a - 10) / 10)
      +                           + 4090/298.0) - 273.0);
  3937     0E88  30C1               	movlw	193
  3938     0E89  1283               	bcf	3,5	;RP0=0, select bank0
  3939     0E8A  1303               	bcf	3,6	;RP1=0, select bank0
  3940     0E8B  00DC               	movwf	___fladd@b+3
  3941     0E8C  3020               	movlw	32
  3942     0E8D  00DB               	movwf	___fladd@b+2
  3943     0E8E  3000               	movlw	0
  3944     0E8F  00DA               	movwf	___fladd@b+1
  3945     0E90  3000               	movlw	0
  3946     0E91  00D9               	movwf	___fladd@b
  3947     0E92  1683               	bsf	3,5	;RP0=1, select bank1
  3948     0E93  1303               	bcf	3,6	;RP1=0, select bank1
  3949     0E94  083B               	movf	(Calculus_Temperature@a+3)^(0+128),w
  3950     0E95  00F3               	movwf	___xxtofl@val+3
  3951     0E96  083A               	movf	(Calculus_Temperature@a+2)^(0+128),w
  3952     0E97  00F2               	movwf	___xxtofl@val+2
  3953     0E98  0839               	movf	(Calculus_Temperature@a+1)^(0+128),w
  3954     0E99  00F1               	movwf	___xxtofl@val+1
  3955     0E9A  0838               	movf	Calculus_Temperature@a^(0+128),w
  3956     0E9B  00F0               	movwf	___xxtofl@val
  3957     0E9C  3001               	movlw	1
  3958     0E9D  120A  158A  21C9  120A  158A  	fcall	___xxtofl
  3959     0EA2  0873               	movf	?___xxtofl+3,w
  3960     0EA3  1283               	bcf	3,5	;RP0=0, select bank0
  3961     0EA4  1303               	bcf	3,6	;RP1=0, select bank0
  3962     0EA5  00C2               	movwf	___fldiv@a+3
  3963     0EA6  0872               	movf	?___xxtofl+2,w
  3964     0EA7  00C1               	movwf	___fldiv@a+2
  3965     0EA8  0871               	movf	?___xxtofl+1,w
  3966     0EA9  00C0               	movwf	___fldiv@a+1
  3967     0EAA  0870               	movf	?___xxtofl,w
  3968     0EAB  00BF               	movwf	___fldiv@a
  3969     0EAC  3046               	movlw	70
  3970     0EAD  00C6               	movwf	___fldiv@b+3
  3971     0EAE  3020               	movlw	32
  3972     0EAF  00C5               	movwf	___fldiv@b+2
  3973     0EB0  3028               	movlw	40
  3974     0EB1  00C4               	movwf	___fldiv@b+1
  3975     0EB2  3000               	movlw	0
  3976     0EB3  00C3               	movwf	___fldiv@b
  3977     0EB4  120A  118A  2070  120A  158A  	fcall	___fldiv
  3978     0EB9  1283               	bcf	3,5	;RP0=0, select bank0
  3979     0EBA  1303               	bcf	3,6	;RP1=0, select bank0
  3980     0EBB  0842               	movf	?___fldiv+3,w
  3981     0EBC  00E0               	movwf	___fladd@a+3
  3982     0EBD  0841               	movf	?___fldiv+2,w
  3983     0EBE  00DF               	movwf	___fladd@a+2
  3984     0EBF  0840               	movf	?___fldiv+1,w
  3985     0EC0  00DE               	movwf	___fladd@a+1
  3986     0EC1  083F               	movf	?___fldiv,w
  3987     0EC2  00DD               	movwf	___fladd@a
  3988     0EC3  120A  118A  223F  120A  158A  	fcall	___fladd
  3989     0EC8  1283               	bcf	3,5	;RP0=0, select bank0
  3990     0EC9  1303               	bcf	3,6	;RP1=0, select bank0
  3991     0ECA  085C               	movf	?___fladd+3,w
  3992     0ECB  1683               	bsf	3,5	;RP0=1, select bank1
  3993     0ECC  1303               	bcf	3,6	;RP1=0, select bank1
  3994     0ECD  00BF               	movwf	(_Calculus_Temperature$1075+3)^(0+128)
  3995     0ECE  1283               	bcf	3,5	;RP0=0, select bank0
  3996     0ECF  1303               	bcf	3,6	;RP1=0, select bank0
  3997     0ED0  085B               	movf	?___fladd+2,w
  3998     0ED1  1683               	bsf	3,5	;RP0=1, select bank1
  3999     0ED2  1303               	bcf	3,6	;RP1=0, select bank1
  4000     0ED3  00BE               	movwf	(_Calculus_Temperature$1075+2)^(0+128)
  4001     0ED4  1283               	bcf	3,5	;RP0=0, select bank0
  4002     0ED5  1303               	bcf	3,6	;RP1=0, select bank0
  4003     0ED6  085A               	movf	?___fladd+1,w
  4004     0ED7  1683               	bsf	3,5	;RP0=1, select bank1
  4005     0ED8  1303               	bcf	3,6	;RP1=0, select bank1
  4006     0ED9  00BD               	movwf	(_Calculus_Temperature$1075+1)^(0+128)
  4007     0EDA  1283               	bcf	3,5	;RP0=0, select bank0
  4008     0EDB  1303               	bcf	3,6	;RP1=0, select bank0
  4009     0EDC  0859               	movf	?___fladd,w
  4010     0EDD  1683               	bsf	3,5	;RP0=1, select bank1
  4011     0EDE  1303               	bcf	3,6	;RP1=0, select bank1
  4012     0EDF  00BC               	movwf	_Calculus_Temperature$1075^(0+128)
  4013     0EE0                     l3992:
  4014                           
  4015                           ;Sensors_Control.c: 87:     float tempC = (float)(4090/(log((1025.0 * 10 / a - 10) / 10)
      +                           + 4090/298.0) - 273.0);
  4016     0EE0  3041               	movlw	65
  4017     0EE1  1283               	bcf	3,5	;RP0=0, select bank0
  4018     0EE2  1303               	bcf	3,6	;RP1=0, select bank0
  4019     0EE3  00C2               	movwf	___fldiv@a+3
  4020     0EE4  3020               	movlw	32
  4021     0EE5  00C1               	movwf	___fldiv@a+2
  4022     0EE6  3000               	movlw	0
  4023     0EE7  00C0               	movwf	___fldiv@a+1
  4024     0EE8  3000               	movlw	0
  4025     0EE9  00BF               	movwf	___fldiv@a
  4026     0EEA  1683               	bsf	3,5	;RP0=1, select bank1
  4027     0EEB  1303               	bcf	3,6	;RP1=0, select bank1
  4028     0EEC  083F               	movf	(_Calculus_Temperature$1075+3)^(0+128),w
  4029     0EED  1283               	bcf	3,5	;RP0=0, select bank0
  4030     0EEE  1303               	bcf	3,6	;RP1=0, select bank0
  4031     0EEF  00C6               	movwf	___fldiv@b+3
  4032     0EF0  1683               	bsf	3,5	;RP0=1, select bank1
  4033     0EF1  1303               	bcf	3,6	;RP1=0, select bank1
  4034     0EF2  083E               	movf	(_Calculus_Temperature$1075+2)^(0+128),w
  4035     0EF3  1283               	bcf	3,5	;RP0=0, select bank0
  4036     0EF4  1303               	bcf	3,6	;RP1=0, select bank0
  4037     0EF5  00C5               	movwf	___fldiv@b+2
  4038     0EF6  1683               	bsf	3,5	;RP0=1, select bank1
  4039     0EF7  1303               	bcf	3,6	;RP1=0, select bank1
  4040     0EF8  083D               	movf	(_Calculus_Temperature$1075+1)^(0+128),w
  4041     0EF9  1283               	bcf	3,5	;RP0=0, select bank0
  4042     0EFA  1303               	bcf	3,6	;RP1=0, select bank0
  4043     0EFB  00C4               	movwf	___fldiv@b+1
  4044     0EFC  1683               	bsf	3,5	;RP0=1, select bank1
  4045     0EFD  1303               	bcf	3,6	;RP1=0, select bank1
  4046     0EFE  083C               	movf	_Calculus_Temperature$1075^(0+128),w
  4047     0EFF  1283               	bcf	3,5	;RP0=0, select bank0
  4048     0F00  1303               	bcf	3,6	;RP1=0, select bank0
  4049     0F01  00C3               	movwf	___fldiv@b
  4050     0F02  120A  118A  2070  120A  158A  	fcall	___fldiv
  4051     0F07  1283               	bcf	3,5	;RP0=0, select bank0
  4052     0F08  1303               	bcf	3,6	;RP1=0, select bank0
  4053     0F09  0842               	movf	?___fldiv+3,w
  4054     0F0A  1683               	bsf	3,5	;RP0=1, select bank1
  4055     0F0B  1303               	bcf	3,6	;RP1=0, select bank1
  4056     0F0C  00B3               	movwf	(log@x+3)^(0+128)
  4057     0F0D  1283               	bcf	3,5	;RP0=0, select bank0
  4058     0F0E  1303               	bcf	3,6	;RP1=0, select bank0
  4059     0F0F  0841               	movf	?___fldiv+2,w
  4060     0F10  1683               	bsf	3,5	;RP0=1, select bank1
  4061     0F11  1303               	bcf	3,6	;RP1=0, select bank1
  4062     0F12  00B2               	movwf	(log@x+2)^(0+128)
  4063     0F13  1283               	bcf	3,5	;RP0=0, select bank0
  4064     0F14  1303               	bcf	3,6	;RP1=0, select bank0
  4065     0F15  0840               	movf	?___fldiv+1,w
  4066     0F16  1683               	bsf	3,5	;RP0=1, select bank1
  4067     0F17  1303               	bcf	3,6	;RP1=0, select bank1
  4068     0F18  00B1               	movwf	(log@x+1)^(0+128)
  4069     0F19  1283               	bcf	3,5	;RP0=0, select bank0
  4070     0F1A  1303               	bcf	3,6	;RP1=0, select bank0
  4071     0F1B  083F               	movf	?___fldiv,w
  4072     0F1C  1683               	bsf	3,5	;RP0=1, select bank1
  4073     0F1D  1303               	bcf	3,6	;RP1=0, select bank1
  4074     0F1E  00B0               	movwf	log@x^(0+128)
  4075     0F1F  120A  158A  252F  120A  158A  	fcall	_log
  4076     0F24  1683               	bsf	3,5	;RP0=1, select bank1
  4077     0F25  1303               	bcf	3,6	;RP1=0, select bank1
  4078     0F26  0833               	movf	(?_log+3)^(0+128),w
  4079     0F27  00C3               	movwf	(_Calculus_Temperature$1076+3)^(0+128)
  4080     0F28  0832               	movf	(?_log+2)^(0+128),w
  4081     0F29  00C2               	movwf	(_Calculus_Temperature$1076+2)^(0+128)
  4082     0F2A  0831               	movf	(?_log+1)^(0+128),w
  4083     0F2B  00C1               	movwf	(_Calculus_Temperature$1076+1)^(0+128)
  4084     0F2C  0830               	movf	?_log^(0+128),w
  4085     0F2D  00C0               	movwf	_Calculus_Temperature$1076^(0+128)
  4086     0F2E                     l3994:
  4087                           
  4088                           ;Sensors_Control.c: 87:     float tempC = (float)(4090/(log((1025.0 * 10 / a - 10) / 10)
      +                           + 4090/298.0) - 273.0);
  4089     0F2E  3041               	movlw	65
  4090     0F2F  1283               	bcf	3,5	;RP0=0, select bank0
  4091     0F30  1303               	bcf	3,6	;RP1=0, select bank0
  4092     0F31  00DC               	movwf	___fladd@b+3
  4093     0F32  305B               	movlw	91
  4094     0F33  00DB               	movwf	___fladd@b+2
  4095     0F34  3098               	movlw	152
  4096     0F35  00DA               	movwf	___fladd@b+1
  4097     0F36  30EA               	movlw	234
  4098     0F37  00D9               	movwf	___fladd@b
  4099     0F38  1683               	bsf	3,5	;RP0=1, select bank1
  4100     0F39  1303               	bcf	3,6	;RP1=0, select bank1
  4101     0F3A  0843               	movf	(_Calculus_Temperature$1076+3)^(0+128),w
  4102     0F3B  1283               	bcf	3,5	;RP0=0, select bank0
  4103     0F3C  1303               	bcf	3,6	;RP1=0, select bank0
  4104     0F3D  00E0               	movwf	___fladd@a+3
  4105     0F3E  1683               	bsf	3,5	;RP0=1, select bank1
  4106     0F3F  1303               	bcf	3,6	;RP1=0, select bank1
  4107     0F40  0842               	movf	(_Calculus_Temperature$1076+2)^(0+128),w
  4108     0F41  1283               	bcf	3,5	;RP0=0, select bank0
  4109     0F42  1303               	bcf	3,6	;RP1=0, select bank0
  4110     0F43  00DF               	movwf	___fladd@a+2
  4111     0F44  1683               	bsf	3,5	;RP0=1, select bank1
  4112     0F45  1303               	bcf	3,6	;RP1=0, select bank1
  4113     0F46  0841               	movf	(_Calculus_Temperature$1076+1)^(0+128),w
  4114     0F47  1283               	bcf	3,5	;RP0=0, select bank0
  4115     0F48  1303               	bcf	3,6	;RP1=0, select bank0
  4116     0F49  00DE               	movwf	___fladd@a+1
  4117     0F4A  1683               	bsf	3,5	;RP0=1, select bank1
  4118     0F4B  1303               	bcf	3,6	;RP1=0, select bank1
  4119     0F4C  0840               	movf	_Calculus_Temperature$1076^(0+128),w
  4120     0F4D  1283               	bcf	3,5	;RP0=0, select bank0
  4121     0F4E  1303               	bcf	3,6	;RP1=0, select bank0
  4122     0F4F  00DD               	movwf	___fladd@a
  4123     0F50  120A  118A  223F  120A  158A  	fcall	___fladd
  4124     0F55  1283               	bcf	3,5	;RP0=0, select bank0
  4125     0F56  1303               	bcf	3,6	;RP1=0, select bank0
  4126     0F57  085C               	movf	?___fladd+3,w
  4127     0F58  00C2               	movwf	___fldiv@a+3
  4128     0F59  085B               	movf	?___fladd+2,w
  4129     0F5A  00C1               	movwf	___fldiv@a+2
  4130     0F5B  085A               	movf	?___fladd+1,w
  4131     0F5C  00C0               	movwf	___fldiv@a+1
  4132     0F5D  0859               	movf	?___fladd,w
  4133     0F5E  00BF               	movwf	___fldiv@a
  4134     0F5F  3045               	movlw	69
  4135     0F60  00C6               	movwf	___fldiv@b+3
  4136     0F61  307F               	movlw	127
  4137     0F62  00C5               	movwf	___fldiv@b+2
  4138     0F63  30A0               	movlw	160
  4139     0F64  00C4               	movwf	___fldiv@b+1
  4140     0F65  3000               	movlw	0
  4141     0F66  00C3               	movwf	___fldiv@b
  4142     0F67  120A  118A  2070  120A  158A  	fcall	___fldiv
  4143     0F6C  1283               	bcf	3,5	;RP0=0, select bank0
  4144     0F6D  1303               	bcf	3,6	;RP1=0, select bank0
  4145     0F6E  0842               	movf	?___fldiv+3,w
  4146     0F6F  1683               	bsf	3,5	;RP0=1, select bank1
  4147     0F70  1303               	bcf	3,6	;RP1=0, select bank1
  4148     0F71  00C7               	movwf	(_Calculus_Temperature$1077+3)^(0+128)
  4149     0F72  1283               	bcf	3,5	;RP0=0, select bank0
  4150     0F73  1303               	bcf	3,6	;RP1=0, select bank0
  4151     0F74  0841               	movf	?___fldiv+2,w
  4152     0F75  1683               	bsf	3,5	;RP0=1, select bank1
  4153     0F76  1303               	bcf	3,6	;RP1=0, select bank1
  4154     0F77  00C6               	movwf	(_Calculus_Temperature$1077+2)^(0+128)
  4155     0F78  1283               	bcf	3,5	;RP0=0, select bank0
  4156     0F79  1303               	bcf	3,6	;RP1=0, select bank0
  4157     0F7A  0840               	movf	?___fldiv+1,w
  4158     0F7B  1683               	bsf	3,5	;RP0=1, select bank1
  4159     0F7C  1303               	bcf	3,6	;RP1=0, select bank1
  4160     0F7D  00C5               	movwf	(_Calculus_Temperature$1077+1)^(0+128)
  4161     0F7E  1283               	bcf	3,5	;RP0=0, select bank0
  4162     0F7F  1303               	bcf	3,6	;RP1=0, select bank0
  4163     0F80  083F               	movf	?___fldiv,w
  4164     0F81  1683               	bsf	3,5	;RP0=1, select bank1
  4165     0F82  1303               	bcf	3,6	;RP1=0, select bank1
  4166     0F83  00C4               	movwf	_Calculus_Temperature$1077^(0+128)
  4167     0F84                     l3996:
  4168                           
  4169                           ;Sensors_Control.c: 87:     float tempC = (float)(4090/(log((1025.0 * 10 / a - 10) / 10)
      +                           + 4090/298.0) - 273.0);
  4170     0F84  30C3               	movlw	195
  4171     0F85  1283               	bcf	3,5	;RP0=0, select bank0
  4172     0F86  1303               	bcf	3,6	;RP1=0, select bank0
  4173     0F87  00DC               	movwf	___fladd@b+3
  4174     0F88  3088               	movlw	136
  4175     0F89  00DB               	movwf	___fladd@b+2
  4176     0F8A  3080               	movlw	128
  4177     0F8B  00DA               	movwf	___fladd@b+1
  4178     0F8C  3000               	movlw	0
  4179     0F8D  00D9               	movwf	___fladd@b
  4180     0F8E  1683               	bsf	3,5	;RP0=1, select bank1
  4181     0F8F  1303               	bcf	3,6	;RP1=0, select bank1
  4182     0F90  0847               	movf	(_Calculus_Temperature$1077+3)^(0+128),w
  4183     0F91  1283               	bcf	3,5	;RP0=0, select bank0
  4184     0F92  1303               	bcf	3,6	;RP1=0, select bank0
  4185     0F93  00E0               	movwf	___fladd@a+3
  4186     0F94  1683               	bsf	3,5	;RP0=1, select bank1
  4187     0F95  1303               	bcf	3,6	;RP1=0, select bank1
  4188     0F96  0846               	movf	(_Calculus_Temperature$1077+2)^(0+128),w
  4189     0F97  1283               	bcf	3,5	;RP0=0, select bank0
  4190     0F98  1303               	bcf	3,6	;RP1=0, select bank0
  4191     0F99  00DF               	movwf	___fladd@a+2
  4192     0F9A  1683               	bsf	3,5	;RP0=1, select bank1
  4193     0F9B  1303               	bcf	3,6	;RP1=0, select bank1
  4194     0F9C  0845               	movf	(_Calculus_Temperature$1077+1)^(0+128),w
  4195     0F9D  1283               	bcf	3,5	;RP0=0, select bank0
  4196     0F9E  1303               	bcf	3,6	;RP1=0, select bank0
  4197     0F9F  00DE               	movwf	___fladd@a+1
  4198     0FA0  1683               	bsf	3,5	;RP0=1, select bank1
  4199     0FA1  1303               	bcf	3,6	;RP1=0, select bank1
  4200     0FA2  0844               	movf	_Calculus_Temperature$1077^(0+128),w
  4201     0FA3  1283               	bcf	3,5	;RP0=0, select bank0
  4202     0FA4  1303               	bcf	3,6	;RP1=0, select bank0
  4203     0FA5  00DD               	movwf	___fladd@a
  4204     0FA6  120A  118A  223F  120A  158A  	fcall	___fladd
  4205     0FAB  1283               	bcf	3,5	;RP0=0, select bank0
  4206     0FAC  1303               	bcf	3,6	;RP1=0, select bank0
  4207     0FAD  085C               	movf	?___fladd+3,w
  4208     0FAE  1683               	bsf	3,5	;RP0=1, select bank1
  4209     0FAF  1303               	bcf	3,6	;RP1=0, select bank1
  4210     0FB0  00CB               	movwf	(Calculus_Temperature@tempC+3)^(0+128)
  4211     0FB1  1283               	bcf	3,5	;RP0=0, select bank0
  4212     0FB2  1303               	bcf	3,6	;RP1=0, select bank0
  4213     0FB3  085B               	movf	?___fladd+2,w
  4214     0FB4  1683               	bsf	3,5	;RP0=1, select bank1
  4215     0FB5  1303               	bcf	3,6	;RP1=0, select bank1
  4216     0FB6  00CA               	movwf	(Calculus_Temperature@tempC+2)^(0+128)
  4217     0FB7  1283               	bcf	3,5	;RP0=0, select bank0
  4218     0FB8  1303               	bcf	3,6	;RP1=0, select bank0
  4219     0FB9  085A               	movf	?___fladd+1,w
  4220     0FBA  1683               	bsf	3,5	;RP0=1, select bank1
  4221     0FBB  1303               	bcf	3,6	;RP1=0, select bank1
  4222     0FBC  00C9               	movwf	(Calculus_Temperature@tempC+1)^(0+128)
  4223     0FBD  1283               	bcf	3,5	;RP0=0, select bank0
  4224     0FBE  1303               	bcf	3,6	;RP1=0, select bank0
  4225     0FBF  0859               	movf	?___fladd,w
  4226     0FC0  1683               	bsf	3,5	;RP0=1, select bank1
  4227     0FC1  1303               	bcf	3,6	;RP1=0, select bank1
  4228     0FC2  00C8               	movwf	Calculus_Temperature@tempC^(0+128)
  4229     0FC3                     l3998:
  4230     0FC3  3043               	movlw	67
  4231     0FC4  1283               	bcf	3,5	;RP0=0, select bank0
  4232     0FC5  1303               	bcf	3,6	;RP1=0, select bank0
  4233     0FC6  00DC               	movwf	___fladd@b+3
  4234     0FC7  3088               	movlw	136
  4235     0FC8  00DB               	movwf	___fladd@b+2
  4236     0FC9  3093               	movlw	147
  4237     0FCA  00DA               	movwf	___fladd@b+1
  4238     0FCB  3033               	movlw	51
  4239     0FCC  00D9               	movwf	___fladd@b
  4240     0FCD  1683               	bsf	3,5	;RP0=1, select bank1
  4241     0FCE  1303               	bcf	3,6	;RP1=0, select bank1
  4242     0FCF  084B               	movf	(Calculus_Temperature@tempC+3)^(0+128),w
  4243     0FD0  1283               	bcf	3,5	;RP0=0, select bank0
  4244     0FD1  1303               	bcf	3,6	;RP1=0, select bank0
  4245     0FD2  00E0               	movwf	___fladd@a+3
  4246     0FD3  1683               	bsf	3,5	;RP0=1, select bank1
  4247     0FD4  1303               	bcf	3,6	;RP1=0, select bank1
  4248     0FD5  084A               	movf	(Calculus_Temperature@tempC+2)^(0+128),w
  4249     0FD6  1283               	bcf	3,5	;RP0=0, select bank0
  4250     0FD7  1303               	bcf	3,6	;RP1=0, select bank0
  4251     0FD8  00DF               	movwf	___fladd@a+2
  4252     0FD9  1683               	bsf	3,5	;RP0=1, select bank1
  4253     0FDA  1303               	bcf	3,6	;RP1=0, select bank1
  4254     0FDB  0849               	movf	(Calculus_Temperature@tempC+1)^(0+128),w
  4255     0FDC  1283               	bcf	3,5	;RP0=0, select bank0
  4256     0FDD  1303               	bcf	3,6	;RP1=0, select bank0
  4257     0FDE  00DE               	movwf	___fladd@a+1
  4258     0FDF  1683               	bsf	3,5	;RP0=1, select bank1
  4259     0FE0  1303               	bcf	3,6	;RP1=0, select bank1
  4260     0FE1  0848               	movf	Calculus_Temperature@tempC^(0+128),w
  4261     0FE2  1283               	bcf	3,5	;RP0=0, select bank0
  4262     0FE3  1303               	bcf	3,6	;RP1=0, select bank0
  4263     0FE4  00DD               	movwf	___fladd@a
  4264     0FE5  120A  118A  223F  120A  158A  	fcall	___fladd
  4265     0FEA                     l4000:
  4266                           
  4267                           ;Sensors_Control.c: 89:     return (int)tempC;
  4268     0FEA  1683               	bsf	3,5	;RP0=1, select bank1
  4269     0FEB  1303               	bcf	3,6	;RP1=0, select bank1
  4270     0FEC  084B               	movf	(Calculus_Temperature@tempC+3)^(0+128),w
  4271     0FED  00F3               	movwf	___fltol@f1+3
  4272     0FEE  084A               	movf	(Calculus_Temperature@tempC+2)^(0+128),w
  4273     0FEF  00F2               	movwf	___fltol@f1+2
  4274     0FF0  0849               	movf	(Calculus_Temperature@tempC+1)^(0+128),w
  4275     0FF1  00F1               	movwf	___fltol@f1+1
  4276     0FF2  0848               	movf	Calculus_Temperature@tempC^(0+128),w
  4277     0FF3  00F0               	movwf	___fltol@f1
  4278     0FF4  160A  118A  25BF  120A  158A  	fcall	___fltol
  4279     0FF9  0871               	movf	?___fltol+1,w
  4280     0FFA  1683               	bsf	3,5	;RP0=1, select bank1
  4281     0FFB  1303               	bcf	3,6	;RP1=0, select bank1
  4282     0FFC  00B5               	movwf	(?_Calculus_Temperature+1)^(0+128)
  4283     0FFD  0870               	movf	?___fltol,w
  4284     0FFE  00B4               	movwf	?_Calculus_Temperature^(0+128)
  4285     0FFF                     l293:
  4286     0FFF  0008               	return
  4287     1000                     __end_of_Calculus_Temperature:
  4288                           
  4289                           	psect	text14
  4290     0D2F                     __ptext14:	
  4291 ;; *************** function _log *****************
  4292 ;; Defined at:
  4293 ;;		line 5 in file "C:\Program Files\Microchip\xc8\v2.41\pic\sources\c90\common\log.c"
  4294 ;; Parameters:    Size  Location     Type
  4295 ;;  x               4   16[BANK1 ] int 
  4296 ;; Auto vars:     Size  Location     Type
  4297 ;;  exponent        2   77[BANK0 ] int 
  4298 ;; Return value:  Size  Location     Type
  4299 ;;                  4   16[BANK1 ] int 
  4300 ;; Registers used:
  4301 ;;		wreg, fsr0l, fsr0h, status,2, status,0, btemp+1, pclath, cstack
  4302 ;; Tracked objects:
  4303 ;;		On entry : 0/0
  4304 ;;		On exit  : 0/0
  4305 ;;		Unchanged: 0/0
  4306 ;; Data sizes:     COMMON   BANK0   BANK1   BANK3   BANK2
  4307 ;;      Params:         0       0       4       0       0
  4308 ;;      Locals:         0       2       0       0       0
  4309 ;;      Temps:          0       0       0       0       0
  4310 ;;      Totals:         0       2       4       0       0
  4311 ;;Total ram usage:        6 bytes
  4312 ;; Hardware stack levels used: 1
  4313 ;; Hardware stack levels required when called: 3
  4314 ;; This function calls:
  4315 ;;		___fladd
  4316 ;;		___fleq
  4317 ;;		___flge
  4318 ;;		___flmul
  4319 ;;		___xxtofl
  4320 ;;		_eval_poly
  4321 ;;		_frexp
  4322 ;; This function is called by:
  4323 ;;		_Calculus_Temperature
  4324 ;; This function uses a non-reentrant model
  4325 ;;
  4326                           
  4327     0D2F                     _log:	
  4328                           ;psect for function _log
  4329                           
  4330     0D2F                     l3966:	
  4331                           ;incstack = 0
  4332                           ; Regs used in _log: [wreg-fsr0h+status,2+status,0+btemp+1+pclath+cstack]
  4333                           
  4334     0D2F  1683               	bsf	3,5	;RP0=1, select bank1
  4335     0D30  1303               	bcf	3,6	;RP1=0, select bank1
  4336     0D31  0833               	movf	(log@x+3)^(0+128),w
  4337     0D32  00F3               	movwf	___flge@ff1+3
  4338     0D33  0832               	movf	(log@x+2)^(0+128),w
  4339     0D34  00F2               	movwf	___flge@ff1+2
  4340     0D35  0831               	movf	(log@x+1)^(0+128),w
  4341     0D36  00F1               	movwf	___flge@ff1+1
  4342     0D37  0830               	movf	log@x^(0+128),w
  4343     0D38  00F0               	movwf	___flge@ff1
  4344     0D39  3000               	movlw	0
  4345     0D3A  00F7               	movwf	___flge@ff2+3
  4346     0D3B  3000               	movlw	0
  4347     0D3C  00F6               	movwf	___flge@ff2+2
  4348     0D3D  3000               	movlw	0
  4349     0D3E  00F5               	movwf	___flge@ff2+1
  4350     0D3F  3000               	movlw	0
  4351     0D40  00F4               	movwf	___flge@ff2
  4352     0D41  160A  118A  26B2  120A  158A  	fcall	___flge
  4353     0D46  1803               	btfsc	3,0
  4354     0D47  2D49               	goto	u5571
  4355     0D48  2D4A               	goto	u5570
  4356     0D49                     u5571:
  4357     0D49  2D59               	goto	l3972
  4358     0D4A                     u5570:
  4359     0D4A                     l3968:
  4360     0D4A  3021               	movlw	33
  4361     0D4B  1683               	bsf	3,5	;RP0=1, select bank1
  4362     0D4C  1303               	bcf	3,6	;RP1=0, select bank1
  4363     0D4D  00D3               	movwf	_errno^(0+128)
  4364     0D4E  3000               	movlw	0
  4365     0D4F  00D4               	movwf	(_errno^(0+128)+1)
  4366     0D50  3000               	movlw	0
  4367     0D51  00B3               	movwf	(?_log+3)^(0+128)
  4368     0D52  3000               	movlw	0
  4369     0D53  00B2               	movwf	(?_log+2)^(0+128)
  4370     0D54  3000               	movlw	0
  4371     0D55  00B1               	movwf	(?_log+1)^(0+128)
  4372     0D56  3000               	movlw	0
  4373     0D57  00B0               	movwf	?_log^(0+128)
  4374     0D58  2E74               	goto	l873
  4375     0D59                     l3972:
  4376     0D59  1683               	bsf	3,5	;RP0=1, select bank1
  4377     0D5A  1303               	bcf	3,6	;RP1=0, select bank1
  4378     0D5B  0833               	movf	(log@x+3)^(0+128),w
  4379     0D5C  00F3               	movwf	___fleq@ff1+3
  4380     0D5D  0832               	movf	(log@x+2)^(0+128),w
  4381     0D5E  00F2               	movwf	___fleq@ff1+2
  4382     0D5F  0831               	movf	(log@x+1)^(0+128),w
  4383     0D60  00F1               	movwf	___fleq@ff1+1
  4384     0D61  0830               	movf	log@x^(0+128),w
  4385     0D62  00F0               	movwf	___fleq@ff1
  4386     0D63  3000               	movlw	0
  4387     0D64  00F7               	movwf	___fleq@ff2+3
  4388     0D65  3000               	movlw	0
  4389     0D66  00F6               	movwf	___fleq@ff2+2
  4390     0D67  3000               	movlw	0
  4391     0D68  00F5               	movwf	___fleq@ff2+1
  4392     0D69  3000               	movlw	0
  4393     0D6A  00F4               	movwf	___fleq@ff2
  4394     0D6B  120A  158A  20CD  120A  158A  	fcall	___fleq
  4395     0D70  1C03               	btfss	3,0
  4396     0D71  2D73               	goto	u5581
  4397     0D72  2D74               	goto	u5580
  4398     0D73                     u5581:
  4399     0D73  2D83               	goto	l3978
  4400     0D74                     u5580:
  4401     0D74                     l3974:
  4402     0D74  3022               	movlw	34
  4403     0D75  1683               	bsf	3,5	;RP0=1, select bank1
  4404     0D76  1303               	bcf	3,6	;RP1=0, select bank1
  4405     0D77  00D3               	movwf	_errno^(0+128)
  4406     0D78  3000               	movlw	0
  4407     0D79  00D4               	movwf	(_errno^(0+128)+1)
  4408     0D7A  3000               	movlw	0
  4409     0D7B  00B3               	movwf	(?_log+3)^(0+128)
  4410     0D7C  3000               	movlw	0
  4411     0D7D  00B2               	movwf	(?_log+2)^(0+128)
  4412     0D7E  3000               	movlw	0
  4413     0D7F  00B1               	movwf	(?_log+1)^(0+128)
  4414     0D80  3000               	movlw	0
  4415     0D81  00B0               	movwf	?_log^(0+128)
  4416     0D82  2E74               	goto	l873
  4417     0D83                     l3978:
  4418     0D83  30BF               	movlw	191
  4419     0D84  1283               	bcf	3,5	;RP0=0, select bank0
  4420     0D85  1303               	bcf	3,6	;RP1=0, select bank0
  4421     0D86  00DC               	movwf	___fladd@b+3
  4422     0D87  3080               	movlw	128
  4423     0D88  00DB               	movwf	___fladd@b+2
  4424     0D89  3000               	movlw	0
  4425     0D8A  00DA               	movwf	___fladd@b+1
  4426     0D8B  3000               	movlw	0
  4427     0D8C  00D9               	movwf	___fladd@b
  4428     0D8D  3040               	movlw	64
  4429     0D8E  00A8               	movwf	___flmul@b+3
  4430     0D8F  3000               	movlw	0
  4431     0D90  00A7               	movwf	___flmul@b+2
  4432     0D91  3000               	movlw	0
  4433     0D92  00A6               	movwf	___flmul@b+1
  4434     0D93  3000               	movlw	0
  4435     0D94  00A5               	movwf	___flmul@b
  4436     0D95  306D               	movlw	(low (log@exponent| 0))& (0+255)
  4437     0D96  00A4               	movwf	frexp@eptr
  4438     0D97  1683               	bsf	3,5	;RP0=1, select bank1
  4439     0D98  1303               	bcf	3,6	;RP1=0, select bank1
  4440     0D99  0833               	movf	(log@x+3)^(0+128),w
  4441     0D9A  1283               	bcf	3,5	;RP0=0, select bank0
  4442     0D9B  1303               	bcf	3,6	;RP1=0, select bank0
  4443     0D9C  00A3               	movwf	frexp@value+3
  4444     0D9D  1683               	bsf	3,5	;RP0=1, select bank1
  4445     0D9E  1303               	bcf	3,6	;RP1=0, select bank1
  4446     0D9F  0832               	movf	(log@x+2)^(0+128),w
  4447     0DA0  1283               	bcf	3,5	;RP0=0, select bank0
  4448     0DA1  1303               	bcf	3,6	;RP1=0, select bank0
  4449     0DA2  00A2               	movwf	frexp@value+2
  4450     0DA3  1683               	bsf	3,5	;RP0=1, select bank1
  4451     0DA4  1303               	bcf	3,6	;RP1=0, select bank1
  4452     0DA5  0831               	movf	(log@x+1)^(0+128),w
  4453     0DA6  1283               	bcf	3,5	;RP0=0, select bank0
  4454     0DA7  1303               	bcf	3,6	;RP1=0, select bank0
  4455     0DA8  00A1               	movwf	frexp@value+1
  4456     0DA9  1683               	bsf	3,5	;RP0=1, select bank1
  4457     0DAA  1303               	bcf	3,6	;RP1=0, select bank1
  4458     0DAB  0830               	movf	log@x^(0+128),w
  4459     0DAC  1283               	bcf	3,5	;RP0=0, select bank0
  4460     0DAD  1303               	bcf	3,6	;RP1=0, select bank0
  4461     0DAE  00A0               	movwf	frexp@value
  4462     0DAF  160A  118A  2563  120A  158A  	fcall	_frexp
  4463     0DB4  1283               	bcf	3,5	;RP0=0, select bank0
  4464     0DB5  1303               	bcf	3,6	;RP1=0, select bank0
  4465     0DB6  0823               	movf	?_frexp+3,w
  4466     0DB7  00AC               	movwf	___flmul@a+3
  4467     0DB8  0822               	movf	?_frexp+2,w
  4468     0DB9  00AB               	movwf	___flmul@a+2
  4469     0DBA  0821               	movf	?_frexp+1,w
  4470     0DBB  00AA               	movwf	___flmul@a+1
  4471     0DBC  0820               	movf	?_frexp,w
  4472     0DBD  00A9               	movwf	___flmul@a
  4473     0DBE  120A  118A  2497  120A  158A  	fcall	___flmul
  4474     0DC3  1283               	bcf	3,5	;RP0=0, select bank0
  4475     0DC4  1303               	bcf	3,6	;RP1=0, select bank0
  4476     0DC5  0828               	movf	?___flmul+3,w
  4477     0DC6  00E0               	movwf	___fladd@a+3
  4478     0DC7  0827               	movf	?___flmul+2,w
  4479     0DC8  00DF               	movwf	___fladd@a+2
  4480     0DC9  0826               	movf	?___flmul+1,w
  4481     0DCA  00DE               	movwf	___fladd@a+1
  4482     0DCB  0825               	movf	?___flmul,w
  4483     0DCC  00DD               	movwf	___fladd@a
  4484     0DCD  120A  118A  223F  120A  158A  	fcall	___fladd
  4485     0DD2  1283               	bcf	3,5	;RP0=0, select bank0
  4486     0DD3  1303               	bcf	3,6	;RP1=0, select bank0
  4487     0DD4  085C               	movf	?___fladd+3,w
  4488     0DD5  1683               	bsf	3,5	;RP0=1, select bank1
  4489     0DD6  1303               	bcf	3,6	;RP1=0, select bank1
  4490     0DD7  00B3               	movwf	(log@x+3)^(0+128)
  4491     0DD8  1283               	bcf	3,5	;RP0=0, select bank0
  4492     0DD9  1303               	bcf	3,6	;RP1=0, select bank0
  4493     0DDA  085B               	movf	?___fladd+2,w
  4494     0DDB  1683               	bsf	3,5	;RP0=1, select bank1
  4495     0DDC  1303               	bcf	3,6	;RP1=0, select bank1
  4496     0DDD  00B2               	movwf	(log@x+2)^(0+128)
  4497     0DDE  1283               	bcf	3,5	;RP0=0, select bank0
  4498     0DDF  1303               	bcf	3,6	;RP1=0, select bank0
  4499     0DE0  085A               	movf	?___fladd+1,w
  4500     0DE1  1683               	bsf	3,5	;RP0=1, select bank1
  4501     0DE2  1303               	bcf	3,6	;RP1=0, select bank1
  4502     0DE3  00B1               	movwf	(log@x+1)^(0+128)
  4503     0DE4  1283               	bcf	3,5	;RP0=0, select bank0
  4504     0DE5  1303               	bcf	3,6	;RP1=0, select bank0
  4505     0DE6  0859               	movf	?___fladd,w
  4506     0DE7  1683               	bsf	3,5	;RP0=1, select bank1
  4507     0DE8  1303               	bcf	3,6	;RP1=0, select bank1
  4508     0DE9  00B0               	movwf	log@x^(0+128)
  4509     0DEA                     l3980:
  4510     0DEA  30FF               	movlw	255
  4511     0DEB  1283               	bcf	3,5	;RP0=0, select bank0
  4512     0DEC  1303               	bcf	3,6	;RP1=0, select bank0
  4513     0DED  07ED               	addwf	log@exponent,f
  4514     0DEE  1803               	skipnc
  4515     0DEF  0AEE               	incf	log@exponent+1,f
  4516     0DF0  30FF               	movlw	255
  4517     0DF1  07EE               	addwf	log@exponent+1,f
  4518     0DF2                     l3982:
  4519     0DF2  1683               	bsf	3,5	;RP0=1, select bank1
  4520     0DF3  1303               	bcf	3,6	;RP1=0, select bank1
  4521     0DF4  0833               	movf	(log@x+3)^(0+128),w
  4522     0DF5  00A3               	movwf	(eval_poly@x+3)^(0+128)
  4523     0DF6  0832               	movf	(log@x+2)^(0+128),w
  4524     0DF7  00A2               	movwf	(eval_poly@x+2)^(0+128)
  4525     0DF8  0831               	movf	(log@x+1)^(0+128),w
  4526     0DF9  00A1               	movwf	(eval_poly@x+1)^(0+128)
  4527     0DFA  0830               	movf	log@x^(0+128),w
  4528     0DFB  00A0               	movwf	eval_poly@x^(0+128)
  4529     0DFC  300B               	movlw	(low ((log@coeff-__stringbase)| (0+32768)))& (0+255)
  4530     0DFD  00A4               	movwf	eval_poly@d^(0+128)
  4531     0DFE  3008               	movlw	8
  4532     0DFF  00A5               	movwf	eval_poly@n^(0+128)
  4533     0E00  3000               	movlw	0
  4534     0E01  00A6               	movwf	(eval_poly@n^(0+128)+1)
  4535     0E02  120A  158A  2281  120A  158A  	fcall	_eval_poly
  4536     0E07  1683               	bsf	3,5	;RP0=1, select bank1
  4537     0E08  1303               	bcf	3,6	;RP1=0, select bank1
  4538     0E09  0823               	movf	(?_eval_poly+3)^(0+128),w
  4539     0E0A  00B3               	movwf	(log@x+3)^(0+128)
  4540     0E0B  0822               	movf	(?_eval_poly+2)^(0+128),w
  4541     0E0C  00B2               	movwf	(log@x+2)^(0+128)
  4542     0E0D  0821               	movf	(?_eval_poly+1)^(0+128),w
  4543     0E0E  00B1               	movwf	(log@x+1)^(0+128)
  4544     0E0F  0820               	movf	?_eval_poly^(0+128),w
  4545     0E10  00B0               	movwf	log@x^(0+128)
  4546     0E11                     l3984:
  4547     0E11  0833               	movf	(log@x+3)^(0+128),w
  4548     0E12  1283               	bcf	3,5	;RP0=0, select bank0
  4549     0E13  1303               	bcf	3,6	;RP1=0, select bank0
  4550     0E14  00DC               	movwf	___fladd@b+3
  4551     0E15  1683               	bsf	3,5	;RP0=1, select bank1
  4552     0E16  1303               	bcf	3,6	;RP1=0, select bank1
  4553     0E17  0832               	movf	(log@x+2)^(0+128),w
  4554     0E18  1283               	bcf	3,5	;RP0=0, select bank0
  4555     0E19  1303               	bcf	3,6	;RP1=0, select bank0
  4556     0E1A  00DB               	movwf	___fladd@b+2
  4557     0E1B  1683               	bsf	3,5	;RP0=1, select bank1
  4558     0E1C  1303               	bcf	3,6	;RP1=0, select bank1
  4559     0E1D  0831               	movf	(log@x+1)^(0+128),w
  4560     0E1E  1283               	bcf	3,5	;RP0=0, select bank0
  4561     0E1F  1303               	bcf	3,6	;RP1=0, select bank0
  4562     0E20  00DA               	movwf	___fladd@b+1
  4563     0E21  1683               	bsf	3,5	;RP0=1, select bank1
  4564     0E22  1303               	bcf	3,6	;RP1=0, select bank1
  4565     0E23  0830               	movf	log@x^(0+128),w
  4566     0E24  1283               	bcf	3,5	;RP0=0, select bank0
  4567     0E25  1303               	bcf	3,6	;RP1=0, select bank0
  4568     0E26  00D9               	movwf	___fladd@b
  4569     0E27  303F               	movlw	63
  4570     0E28  00A8               	movwf	___flmul@b+3
  4571     0E29  3031               	movlw	49
  4572     0E2A  00A7               	movwf	___flmul@b+2
  4573     0E2B  3072               	movlw	114
  4574     0E2C  00A6               	movwf	___flmul@b+1
  4575     0E2D  3018               	movlw	24
  4576     0E2E  00A5               	movwf	___flmul@b
  4577     0E2F  086D               	movf	log@exponent,w
  4578     0E30  00F0               	movwf	___xxtofl@val
  4579     0E31  086E               	movf	log@exponent+1,w
  4580     0E32  00F1               	movwf	___xxtofl@val+1
  4581     0E33  3000               	movlw	0
  4582     0E34  1BF1               	btfsc	___xxtofl@val+1,7
  4583     0E35  30FF               	movlw	255
  4584     0E36  00F2               	movwf	___xxtofl@val+2
  4585     0E37  00F3               	movwf	___xxtofl@val+3
  4586     0E38  3001               	movlw	1
  4587     0E39  120A  158A  21C9  120A  158A  	fcall	___xxtofl
  4588     0E3E  0873               	movf	?___xxtofl+3,w
  4589     0E3F  1283               	bcf	3,5	;RP0=0, select bank0
  4590     0E40  1303               	bcf	3,6	;RP1=0, select bank0
  4591     0E41  00AC               	movwf	___flmul@a+3
  4592     0E42  0872               	movf	?___xxtofl+2,w
  4593     0E43  00AB               	movwf	___flmul@a+2
  4594     0E44  0871               	movf	?___xxtofl+1,w
  4595     0E45  00AA               	movwf	___flmul@a+1
  4596     0E46  0870               	movf	?___xxtofl,w
  4597     0E47  00A9               	movwf	___flmul@a
  4598     0E48  120A  118A  2497  120A  158A  	fcall	___flmul
  4599     0E4D  1283               	bcf	3,5	;RP0=0, select bank0
  4600     0E4E  1303               	bcf	3,6	;RP1=0, select bank0
  4601     0E4F  0828               	movf	?___flmul+3,w
  4602     0E50  00E0               	movwf	___fladd@a+3
  4603     0E51  0827               	movf	?___flmul+2,w
  4604     0E52  00DF               	movwf	___fladd@a+2
  4605     0E53  0826               	movf	?___flmul+1,w
  4606     0E54  00DE               	movwf	___fladd@a+1
  4607     0E55  0825               	movf	?___flmul,w
  4608     0E56  00DD               	movwf	___fladd@a
  4609     0E57  120A  118A  223F  120A  158A  	fcall	___fladd
  4610     0E5C  1283               	bcf	3,5	;RP0=0, select bank0
  4611     0E5D  1303               	bcf	3,6	;RP1=0, select bank0
  4612     0E5E  085C               	movf	?___fladd+3,w
  4613     0E5F  1683               	bsf	3,5	;RP0=1, select bank1
  4614     0E60  1303               	bcf	3,6	;RP1=0, select bank1
  4615     0E61  00B3               	movwf	(?_log+3)^(0+128)
  4616     0E62  1283               	bcf	3,5	;RP0=0, select bank0
  4617     0E63  1303               	bcf	3,6	;RP1=0, select bank0
  4618     0E64  085B               	movf	?___fladd+2,w
  4619     0E65  1683               	bsf	3,5	;RP0=1, select bank1
  4620     0E66  1303               	bcf	3,6	;RP1=0, select bank1
  4621     0E67  00B2               	movwf	(?_log+2)^(0+128)
  4622     0E68  1283               	bcf	3,5	;RP0=0, select bank0
  4623     0E69  1303               	bcf	3,6	;RP1=0, select bank0
  4624     0E6A  085A               	movf	?___fladd+1,w
  4625     0E6B  1683               	bsf	3,5	;RP0=1, select bank1
  4626     0E6C  1303               	bcf	3,6	;RP1=0, select bank1
  4627     0E6D  00B1               	movwf	(?_log+1)^(0+128)
  4628     0E6E  1283               	bcf	3,5	;RP0=0, select bank0
  4629     0E6F  1303               	bcf	3,6	;RP1=0, select bank0
  4630     0E70  0859               	movf	?___fladd,w
  4631     0E71  1683               	bsf	3,5	;RP0=1, select bank1
  4632     0E72  1303               	bcf	3,6	;RP1=0, select bank1
  4633     0E73  00B0               	movwf	?_log^(0+128)
  4634     0E74                     l873:
  4635     0E74  0008               	return
  4636     0E75                     __end_of_log:
  4637                           
  4638                           	psect	text15
  4639     1563                     __ptext15:	
  4640 ;; *************** function _frexp *****************
  4641 ;; Defined at:
  4642 ;;		line 254 in file "C:\Program Files\Microchip\xc8\v2.41\pic\sources\c90\common\frexp.c"
  4643 ;; Parameters:    Size  Location     Type
  4644 ;;  value           4    0[BANK0 ] int 
  4645 ;;  eptr            1    4[BANK0 ] PTR int 
  4646 ;;		 -> log@exponent(2), 
  4647 ;; Auto vars:     Size  Location     Type
  4648 ;;		None
  4649 ;; Return value:  Size  Location     Type
  4650 ;;                  4    0[BANK0 ] PTR int 
  4651 ;; Registers used:
  4652 ;;		wreg, fsr0l, fsr0h, status,2, status,0, btemp+1, pclath, cstack
  4653 ;; Tracked objects:
  4654 ;;		On entry : 0/0
  4655 ;;		On exit  : 0/0
  4656 ;;		Unchanged: 0/0
  4657 ;; Data sizes:     COMMON   BANK0   BANK1   BANK3   BANK2
  4658 ;;      Params:         0       5       0       0       0
  4659 ;;      Locals:         0       0       0       0       0
  4660 ;;      Temps:          2       0       0       0       0
  4661 ;;      Totals:         2       5       0       0       0
  4662 ;;Total ram usage:        7 bytes
  4663 ;; Hardware stack levels used: 1
  4664 ;; Hardware stack levels required when called: 1
  4665 ;; This function calls:
  4666 ;;		___fleq
  4667 ;; This function is called by:
  4668 ;;		_log
  4669 ;; This function uses a non-reentrant model
  4670 ;;
  4671                           
  4672     1563                     _frexp:	
  4673                           ;psect for function _frexp
  4674                           
  4675     1563                     l3936:	
  4676                           ;incstack = 0
  4677                           ; Regs used in _frexp: [wreg-fsr0h+status,2+status,0+btemp+1+pclath+cstack]
  4678                           
  4679     1563  1283               	bcf	3,5	;RP0=0, select bank0
  4680     1564  1303               	bcf	3,6	;RP1=0, select bank0
  4681     1565  0823               	movf	frexp@value+3,w
  4682     1566  00F3               	movwf	___fleq@ff1+3
  4683     1567  0822               	movf	frexp@value+2,w
  4684     1568  00F2               	movwf	___fleq@ff1+2
  4685     1569  0821               	movf	frexp@value+1,w
  4686     156A  00F1               	movwf	___fleq@ff1+1
  4687     156B  0820               	movf	frexp@value,w
  4688     156C  00F0               	movwf	___fleq@ff1
  4689     156D  3000               	movlw	0
  4690     156E  00F7               	movwf	___fleq@ff2+3
  4691     156F  3000               	movlw	0
  4692     1570  00F6               	movwf	___fleq@ff2+2
  4693     1571  3000               	movlw	0
  4694     1572  00F5               	movwf	___fleq@ff2+1
  4695     1573  3000               	movlw	0
  4696     1574  00F4               	movwf	___fleq@ff2
  4697     1575  120A  158A  20CD  160A  118A  	fcall	___fleq
  4698     157A  1C03               	btfss	3,0
  4699     157B  2D7D               	goto	u5531
  4700     157C  2D7E               	goto	u5530
  4701     157D                     u5531:
  4702     157D  2D8F               	goto	l3944
  4703     157E                     u5530:
  4704     157E                     l3938:
  4705     157E  1283               	bcf	3,5	;RP0=0, select bank0
  4706     157F  1303               	bcf	3,6	;RP1=0, select bank0
  4707     1580  0824               	movf	frexp@eptr,w
  4708     1581  0084               	movwf	4
  4709     1582  1383               	bcf	3,7	;select IRP bank0
  4710     1583  0180               	clrf	0
  4711     1584  0A84               	incf	4,f
  4712     1585  0180               	clrf	0
  4713     1586                     l3940:
  4714     1586  3000               	movlw	0
  4715     1587  00A3               	movwf	?_frexp+3
  4716     1588  3000               	movlw	0
  4717     1589  00A2               	movwf	?_frexp+2
  4718     158A  3000               	movlw	0
  4719     158B  00A1               	movwf	?_frexp+1
  4720     158C  3000               	movlw	0
  4721     158D  00A0               	movwf	?_frexp
  4722     158E  2DBE               	goto	l891
  4723     158F                     l3944:
  4724     158F  1283               	bcf	3,5	;RP0=0, select bank0
  4725     1590  1303               	bcf	3,6	;RP1=0, select bank0
  4726     1591  0823               	movf	frexp@value+3,w
  4727     1592  397F               	andlw	127
  4728     1593  00FC               	movwf	??_frexp
  4729     1594  01FD               	clrf	??_frexp+1
  4730     1595  1003               	clrc
  4731     1596  0DFC               	rlf	??_frexp,f
  4732     1597  0DFD               	rlf	??_frexp+1,f
  4733     1598  0824               	movf	frexp@eptr,w
  4734     1599  0084               	movwf	4
  4735     159A  087C               	movf	??_frexp,w
  4736     159B  1383               	bcf	3,7	;select IRP bank0
  4737     159C  0080               	movwf	0
  4738     159D  0A84               	incf	4,f
  4739     159E  087D               	movf	??_frexp+1,w
  4740     159F  0080               	movwf	0
  4741     15A0  0D22               	rlf	frexp@value+2,w
  4742     15A1  0D22               	rlf	frexp@value+2,w
  4743     15A2  3901               	andlw	1
  4744     15A3  00FC               	movwf	??_frexp
  4745     15A4  01FD               	clrf	??_frexp+1
  4746     15A5  0824               	movf	frexp@eptr,w
  4747     15A6  0084               	movwf	4
  4748     15A7  087C               	movf	??_frexp,w
  4749     15A8  0480               	iorwf	0,f
  4750     15A9  0A84               	incf	4,f
  4751     15AA  087D               	movf	??_frexp+1,w
  4752     15AB  0480               	iorwf	0,f
  4753     15AC                     l3946:
  4754     15AC  0824               	movf	frexp@eptr,w
  4755     15AD  0084               	movwf	4
  4756     15AE  3082               	movlw	130
  4757     15AF  0780               	addwf	0,f
  4758     15B0  0F84               	incfsz	4,f
  4759     15B1  0800               	movf	0,w
  4760     15B2  1803               	skipnc
  4761     15B3  0A00               	incf	0,w
  4762     15B4  00FF               	movwf	btemp+1
  4763     15B5  30FF               	movlw	255
  4764     15B6  077F               	addwf	btemp+1,w
  4765     15B7  0080               	movwf	0
  4766     15B8  0384               	decf	4,f
  4767     15B9                     l3948:
  4768     15B9  0823               	movf	frexp@value+3,w
  4769     15BA  3980               	andlw	-128
  4770     15BB  383F               	iorlw	63
  4771     15BC  00A3               	movwf	frexp@value+3
  4772     15BD                     l3950:
  4773     15BD  13A2               	bcf	frexp@value+2,7
  4774     15BE                     l3952:
  4775     15BE                     l891:
  4776     15BE  0008               	return
  4777     15BF                     __end_of_frexp:
  4778                           
  4779                           	psect	text16
  4780     08CD                     __ptext16:	
  4781 ;; *************** function ___fleq *****************
  4782 ;; Defined at:
  4783 ;;		line 4 in file "C:\Program Files\Microchip\xc8\v2.41\pic\sources\c90\common\fleq.c"
  4784 ;; Parameters:    Size  Location     Type
  4785 ;;  ff1             4    0[COMMON] PTR int 
  4786 ;;  ff2             4    4[COMMON] PTR int 
  4787 ;; Auto vars:     Size  Location     Type
  4788 ;;		None
  4789 ;; Return value:  Size  Location     Type
  4790 ;;		None               void
  4791 ;; Registers used:
  4792 ;;		wreg, status,2, status,0
  4793 ;; Tracked objects:
  4794 ;;		On entry : 0/0
  4795 ;;		On exit  : 0/0
  4796 ;;		Unchanged: 0/0
  4797 ;; Data sizes:     COMMON   BANK0   BANK1   BANK3   BANK2
  4798 ;;      Params:         8       0       0       0       0
  4799 ;;      Locals:         0       0       0       0       0
  4800 ;;      Temps:          4       0       0       0       0
  4801 ;;      Totals:        12       0       0       0       0
  4802 ;;Total ram usage:       12 bytes
  4803 ;; Hardware stack levels used: 1
  4804 ;; This function calls:
  4805 ;;		Nothing
  4806 ;; This function is called by:
  4807 ;;		_log
  4808 ;;		_frexp
  4809 ;; This function uses a non-reentrant model
  4810 ;;
  4811                           
  4812     08CD                     ___fleq:	
  4813                           ;psect for function ___fleq
  4814                           
  4815     08CD                     l3514:	
  4816                           ;incstack = 0
  4817                           ; Regs used in ___fleq: [wreg+status,2+status,0]
  4818                           
  4819     08CD  3000               	movlw	0
  4820     08CE  0570               	andwf	___fleq@ff1,w
  4821     08CF  00F8               	movwf	??___fleq
  4822     08D0  3000               	movlw	0
  4823     08D1  0571               	andwf	___fleq@ff1+1,w
  4824     08D2  00F9               	movwf	??___fleq+1
  4825     08D3  3080               	movlw	128
  4826     08D4  0572               	andwf	___fleq@ff1+2,w
  4827     08D5  00FA               	movwf	??___fleq+2
  4828     08D6  307F               	movlw	127
  4829     08D7  0573               	andwf	___fleq@ff1+3,w
  4830     08D8  00FB               	movwf	??___fleq+3
  4831     08D9  087B               	movf	??___fleq+3,w
  4832     08DA  047A               	iorwf	??___fleq+2,w
  4833     08DB  0479               	iorwf	??___fleq+1,w
  4834     08DC  0478               	iorwf	??___fleq,w
  4835     08DD  1D03               	skipz
  4836     08DE  28E0               	goto	u4461
  4837     08DF  28E1               	goto	u4460
  4838     08E0                     u4461:
  4839     08E0  28E9               	goto	l582
  4840     08E1                     u4460:
  4841     08E1                     l3516:
  4842     08E1  3000               	movlw	0
  4843     08E2  00F3               	movwf	___fleq@ff1+3
  4844     08E3  3000               	movlw	0
  4845     08E4  00F2               	movwf	___fleq@ff1+2
  4846     08E5  3000               	movlw	0
  4847     08E6  00F1               	movwf	___fleq@ff1+1
  4848     08E7  3000               	movlw	0
  4849     08E8  00F0               	movwf	___fleq@ff1
  4850     08E9                     l582:
  4851     08E9  3000               	movlw	0
  4852     08EA  0574               	andwf	___fleq@ff2,w
  4853     08EB  00F8               	movwf	??___fleq
  4854     08EC  3000               	movlw	0
  4855     08ED  0575               	andwf	___fleq@ff2+1,w
  4856     08EE  00F9               	movwf	??___fleq+1
  4857     08EF  3080               	movlw	128
  4858     08F0  0576               	andwf	___fleq@ff2+2,w
  4859     08F1  00FA               	movwf	??___fleq+2
  4860     08F2  307F               	movlw	127
  4861     08F3  0577               	andwf	___fleq@ff2+3,w
  4862     08F4  00FB               	movwf	??___fleq+3
  4863     08F5  087B               	movf	??___fleq+3,w
  4864     08F6  047A               	iorwf	??___fleq+2,w
  4865     08F7  0479               	iorwf	??___fleq+1,w
  4866     08F8  0478               	iorwf	??___fleq,w
  4867     08F9  1D03               	skipz
  4868     08FA  28FC               	goto	u4471
  4869     08FB  28FD               	goto	u4470
  4870     08FC                     u4471:
  4871     08FC  2905               	goto	l583
  4872     08FD                     u4470:
  4873     08FD                     l3518:
  4874     08FD  3000               	movlw	0
  4875     08FE  00F7               	movwf	___fleq@ff2+3
  4876     08FF  3000               	movlw	0
  4877     0900  00F6               	movwf	___fleq@ff2+2
  4878     0901  3000               	movlw	0
  4879     0902  00F5               	movwf	___fleq@ff2+1
  4880     0903  3000               	movlw	0
  4881     0904  00F4               	movwf	___fleq@ff2
  4882     0905                     l583:
  4883     0905  0877               	movf	___fleq@ff2+3,w
  4884     0906  0673               	xorwf	___fleq@ff1+3,w
  4885     0907  1D03               	skipz
  4886     0908  2913               	goto	u4485
  4887     0909  0876               	movf	___fleq@ff2+2,w
  4888     090A  0672               	xorwf	___fleq@ff1+2,w
  4889     090B  1D03               	skipz
  4890     090C  2913               	goto	u4485
  4891     090D  0875               	movf	___fleq@ff2+1,w
  4892     090E  0671               	xorwf	___fleq@ff1+1,w
  4893     090F  1D03               	skipz
  4894     0910  2913               	goto	u4485
  4895     0911  0874               	movf	___fleq@ff2,w
  4896     0912  0670               	xorwf	___fleq@ff1,w
  4897     0913                     u4485:
  4898     0913  1903               	skipnz
  4899     0914  2916               	goto	u4481
  4900     0915  2917               	goto	u4480
  4901     0916                     u4481:
  4902     0916  2919               	goto	l3522
  4903     0917                     u4480:
  4904     0917                     l3520:
  4905     0917  1003               	clrc
  4906     0918  291A               	goto	l584
  4907     0919                     l3522:
  4908     0919  1403               	setc
  4909     091A                     l584:
  4910     091A  0008               	return
  4911     091B                     __end_of___fleq:
  4912                           
  4913                           	psect	text17
  4914     0A81                     __ptext17:	
  4915 ;; *************** function _eval_poly *****************
  4916 ;; Defined at:
  4917 ;;		line 4 in file "C:\Program Files\Microchip\xc8\v2.41\pic\sources\c90\common\evalpoly.c"
  4918 ;; Parameters:    Size  Location     Type
  4919 ;;  x               4    0[BANK1 ] PTR int 
  4920 ;;  d               1    4[BANK1 ] PTR const 
  4921 ;;		 -> log@coeff(36), 
  4922 ;;  n               2    5[BANK1 ] int 
  4923 ;; Auto vars:     Size  Location     Type
  4924 ;;  res             4   12[BANK1 ] int 
  4925 ;; Return value:  Size  Location     Type
  4926 ;;                  4    0[BANK1 ] int 
  4927 ;; Registers used:
  4928 ;;		wreg, fsr0l, fsr0h, status,2, status,0, btemp+1, pclath, cstack
  4929 ;; Tracked objects:
  4930 ;;		On entry : 0/0
  4931 ;;		On exit  : 0/0
  4932 ;;		Unchanged: 0/0
  4933 ;; Data sizes:     COMMON   BANK0   BANK1   BANK3   BANK2
  4934 ;;      Params:         0       0       7       0       0
  4935 ;;      Locals:         0       0       4       0       0
  4936 ;;      Temps:          0       0       5       0       0
  4937 ;;      Totals:         0       0      16       0       0
  4938 ;;Total ram usage:       16 bytes
  4939 ;; Hardware stack levels used: 1
  4940 ;; Hardware stack levels required when called: 2
  4941 ;; This function calls:
  4942 ;;		___fladd
  4943 ;;		___flmul
  4944 ;; This function is called by:
  4945 ;;		_log
  4946 ;; This function uses a non-reentrant model
  4947 ;;
  4948                           
  4949     0A81                     _eval_poly:	
  4950                           ;psect for function _eval_poly
  4951                           
  4952     0A81                     l3956:	
  4953                           ;incstack = 0
  4954                           ; Regs used in _eval_poly: [wreg-fsr0h+status,2+status,0+btemp+1+pclath+cstack]
  4955                           
  4956     0A81  1683               	bsf	3,5	;RP0=1, select bank1
  4957     0A82  1303               	bcf	3,6	;RP1=0, select bank1
  4958     0A83  0825               	movf	eval_poly@n^(0+128),w
  4959     0A84  00A7               	movwf	??_eval_poly^(0+128)
  4960     0A85  3001               	movlw	1
  4961     0A86                     u5545:
  4962     0A86  1003               	clrc
  4963     0A87  0DA7               	rlf	??_eval_poly^(0+128),f
  4964     0A88  3EFF               	addlw	-1
  4965     0A89  1D03               	skipz
  4966     0A8A  2A86               	goto	u5545
  4967     0A8B  1003               	clrc
  4968     0A8C  0D27               	rlf	??_eval_poly^(0+128),w
  4969     0A8D  0724               	addwf	eval_poly@d^(0+128),w
  4970     0A8E  0084               	movwf	4
  4971     0A8F  120A  158A  200A  120A  158A  	fcall	stringdir
  4972     0A94  00A8               	movwf	(??_eval_poly+1)^(0+128)
  4973     0A95  120A  158A  200A  120A  158A  	fcall	stringdir
  4974     0A9A  00A9               	movwf	((??_eval_poly+1)^(0+128)+1)
  4975     0A9B  120A  158A  200A  120A  158A  	fcall	stringdir
  4976     0AA0  00AA               	movwf	((??_eval_poly+1)^(0+128)+2)
  4977     0AA1  120A  158A  200A  120A  158A  	fcall	stringdir
  4978     0AA6  00AB               	movwf	((??_eval_poly+1)^(0+128)+3)
  4979     0AA7  082B               	movf	(??_eval_poly+4)^(0+128),w
  4980     0AA8  00AF               	movwf	(eval_poly@res+3)^(0+128)
  4981     0AA9  082A               	movf	(??_eval_poly+3)^(0+128),w
  4982     0AAA  00AE               	movwf	(eval_poly@res+2)^(0+128)
  4983     0AAB  0829               	movf	(??_eval_poly+2)^(0+128),w
  4984     0AAC  00AD               	movwf	(eval_poly@res+1)^(0+128)
  4985     0AAD  0828               	movf	(??_eval_poly+1)^(0+128),w
  4986     0AAE  00AC               	movwf	eval_poly@res^(0+128)
  4987     0AAF  2B4C               	goto	l3960
  4988     0AB0                     l3958:
  4989     0AB0  30FF               	movlw	255
  4990     0AB1  07A5               	addwf	eval_poly@n^(0+128),f
  4991     0AB2  1803               	skipnc
  4992     0AB3  0AA6               	incf	(eval_poly@n+1)^(0+128),f
  4993     0AB4  30FF               	movlw	255
  4994     0AB5  07A6               	addwf	(eval_poly@n+1)^(0+128),f
  4995     0AB6  0825               	movf	eval_poly@n^(0+128),w
  4996     0AB7  00A7               	movwf	??_eval_poly^(0+128)
  4997     0AB8  3001               	movlw	1
  4998     0AB9                     u5555:
  4999     0AB9  1003               	clrc
  5000     0ABA  0DA7               	rlf	??_eval_poly^(0+128),f
  5001     0ABB  3EFF               	addlw	-1
  5002     0ABC  1D03               	skipz
  5003     0ABD  2AB9               	goto	u5555
  5004     0ABE  1003               	clrc
  5005     0ABF  0D27               	rlf	??_eval_poly^(0+128),w
  5006     0AC0  0724               	addwf	eval_poly@d^(0+128),w
  5007     0AC1  0084               	movwf	4
  5008     0AC2  120A  158A  200A  120A  158A  	fcall	stringdir
  5009     0AC7  00A8               	movwf	(??_eval_poly+1)^(0+128)
  5010     0AC8  120A  158A  200A  120A  158A  	fcall	stringdir
  5011     0ACD  00A9               	movwf	((??_eval_poly+1)^(0+128)+1)
  5012     0ACE  120A  158A  200A  120A  158A  	fcall	stringdir
  5013     0AD3  00AA               	movwf	((??_eval_poly+1)^(0+128)+2)
  5014     0AD4  120A  158A  200A  120A  158A  	fcall	stringdir
  5015     0AD9  00AB               	movwf	((??_eval_poly+1)^(0+128)+3)
  5016     0ADA  082B               	movf	(??_eval_poly+4)^(0+128),w
  5017     0ADB  1283               	bcf	3,5	;RP0=0, select bank0
  5018     0ADC  1303               	bcf	3,6	;RP1=0, select bank0
  5019     0ADD  00DC               	movwf	___fladd@b+3
  5020     0ADE  1683               	bsf	3,5	;RP0=1, select bank1
  5021     0ADF  1303               	bcf	3,6	;RP1=0, select bank1
  5022     0AE0  082A               	movf	(??_eval_poly+3)^(0+128),w
  5023     0AE1  1283               	bcf	3,5	;RP0=0, select bank0
  5024     0AE2  1303               	bcf	3,6	;RP1=0, select bank0
  5025     0AE3  00DB               	movwf	___fladd@b+2
  5026     0AE4  1683               	bsf	3,5	;RP0=1, select bank1
  5027     0AE5  1303               	bcf	3,6	;RP1=0, select bank1
  5028     0AE6  0829               	movf	(??_eval_poly+2)^(0+128),w
  5029     0AE7  1283               	bcf	3,5	;RP0=0, select bank0
  5030     0AE8  1303               	bcf	3,6	;RP1=0, select bank0
  5031     0AE9  00DA               	movwf	___fladd@b+1
  5032     0AEA  1683               	bsf	3,5	;RP0=1, select bank1
  5033     0AEB  1303               	bcf	3,6	;RP1=0, select bank1
  5034     0AEC  0828               	movf	(??_eval_poly+1)^(0+128),w
  5035     0AED  1283               	bcf	3,5	;RP0=0, select bank0
  5036     0AEE  1303               	bcf	3,6	;RP1=0, select bank0
  5037     0AEF  00D9               	movwf	___fladd@b
  5038     0AF0  1683               	bsf	3,5	;RP0=1, select bank1
  5039     0AF1  1303               	bcf	3,6	;RP1=0, select bank1
  5040     0AF2  082F               	movf	(eval_poly@res+3)^(0+128),w
  5041     0AF3  1283               	bcf	3,5	;RP0=0, select bank0
  5042     0AF4  1303               	bcf	3,6	;RP1=0, select bank0
  5043     0AF5  00A8               	movwf	___flmul@b+3
  5044     0AF6  1683               	bsf	3,5	;RP0=1, select bank1
  5045     0AF7  1303               	bcf	3,6	;RP1=0, select bank1
  5046     0AF8  082E               	movf	(eval_poly@res+2)^(0+128),w
  5047     0AF9  1283               	bcf	3,5	;RP0=0, select bank0
  5048     0AFA  1303               	bcf	3,6	;RP1=0, select bank0
  5049     0AFB  00A7               	movwf	___flmul@b+2
  5050     0AFC  1683               	bsf	3,5	;RP0=1, select bank1
  5051     0AFD  1303               	bcf	3,6	;RP1=0, select bank1
  5052     0AFE  082D               	movf	(eval_poly@res+1)^(0+128),w
  5053     0AFF  1283               	bcf	3,5	;RP0=0, select bank0
  5054     0B00  1303               	bcf	3,6	;RP1=0, select bank0
  5055     0B01  00A6               	movwf	___flmul@b+1
  5056     0B02  1683               	bsf	3,5	;RP0=1, select bank1
  5057     0B03  1303               	bcf	3,6	;RP1=0, select bank1
  5058     0B04  082C               	movf	eval_poly@res^(0+128),w
  5059     0B05  1283               	bcf	3,5	;RP0=0, select bank0
  5060     0B06  1303               	bcf	3,6	;RP1=0, select bank0
  5061     0B07  00A5               	movwf	___flmul@b
  5062     0B08  1683               	bsf	3,5	;RP0=1, select bank1
  5063     0B09  1303               	bcf	3,6	;RP1=0, select bank1
  5064     0B0A  0823               	movf	(eval_poly@x+3)^(0+128),w
  5065     0B0B  1283               	bcf	3,5	;RP0=0, select bank0
  5066     0B0C  1303               	bcf	3,6	;RP1=0, select bank0
  5067     0B0D  00AC               	movwf	___flmul@a+3
  5068     0B0E  1683               	bsf	3,5	;RP0=1, select bank1
  5069     0B0F  1303               	bcf	3,6	;RP1=0, select bank1
  5070     0B10  0822               	movf	(eval_poly@x+2)^(0+128),w
  5071     0B11  1283               	bcf	3,5	;RP0=0, select bank0
  5072     0B12  1303               	bcf	3,6	;RP1=0, select bank0
  5073     0B13  00AB               	movwf	___flmul@a+2
  5074     0B14  1683               	bsf	3,5	;RP0=1, select bank1
  5075     0B15  1303               	bcf	3,6	;RP1=0, select bank1
  5076     0B16  0821               	movf	(eval_poly@x+1)^(0+128),w
  5077     0B17  1283               	bcf	3,5	;RP0=0, select bank0
  5078     0B18  1303               	bcf	3,6	;RP1=0, select bank0
  5079     0B19  00AA               	movwf	___flmul@a+1
  5080     0B1A  1683               	bsf	3,5	;RP0=1, select bank1
  5081     0B1B  1303               	bcf	3,6	;RP1=0, select bank1
  5082     0B1C  0820               	movf	eval_poly@x^(0+128),w
  5083     0B1D  1283               	bcf	3,5	;RP0=0, select bank0
  5084     0B1E  1303               	bcf	3,6	;RP1=0, select bank0
  5085     0B1F  00A9               	movwf	___flmul@a
  5086     0B20  120A  118A  2497  120A  158A  	fcall	___flmul
  5087     0B25  1283               	bcf	3,5	;RP0=0, select bank0
  5088     0B26  1303               	bcf	3,6	;RP1=0, select bank0
  5089     0B27  0828               	movf	?___flmul+3,w
  5090     0B28  00E0               	movwf	___fladd@a+3
  5091     0B29  0827               	movf	?___flmul+2,w
  5092     0B2A  00DF               	movwf	___fladd@a+2
  5093     0B2B  0826               	movf	?___flmul+1,w
  5094     0B2C  00DE               	movwf	___fladd@a+1
  5095     0B2D  0825               	movf	?___flmul,w
  5096     0B2E  00DD               	movwf	___fladd@a
  5097     0B2F  120A  118A  223F  120A  158A  	fcall	___fladd
  5098     0B34  1283               	bcf	3,5	;RP0=0, select bank0
  5099     0B35  1303               	bcf	3,6	;RP1=0, select bank0
  5100     0B36  085C               	movf	?___fladd+3,w
  5101     0B37  1683               	bsf	3,5	;RP0=1, select bank1
  5102     0B38  1303               	bcf	3,6	;RP1=0, select bank1
  5103     0B39  00AF               	movwf	(eval_poly@res+3)^(0+128)
  5104     0B3A  1283               	bcf	3,5	;RP0=0, select bank0
  5105     0B3B  1303               	bcf	3,6	;RP1=0, select bank0
  5106     0B3C  085B               	movf	?___fladd+2,w
  5107     0B3D  1683               	bsf	3,5	;RP0=1, select bank1
  5108     0B3E  1303               	bcf	3,6	;RP1=0, select bank1
  5109     0B3F  00AE               	movwf	(eval_poly@res+2)^(0+128)
  5110     0B40  1283               	bcf	3,5	;RP0=0, select bank0
  5111     0B41  1303               	bcf	3,6	;RP1=0, select bank0
  5112     0B42  085A               	movf	?___fladd+1,w
  5113     0B43  1683               	bsf	3,5	;RP0=1, select bank1
  5114     0B44  1303               	bcf	3,6	;RP1=0, select bank1
  5115     0B45  00AD               	movwf	(eval_poly@res+1)^(0+128)
  5116     0B46  1283               	bcf	3,5	;RP0=0, select bank0
  5117     0B47  1303               	bcf	3,6	;RP1=0, select bank0
  5118     0B48  0859               	movf	?___fladd,w
  5119     0B49  1683               	bsf	3,5	;RP0=1, select bank1
  5120     0B4A  1303               	bcf	3,6	;RP1=0, select bank1
  5121     0B4B  00AC               	movwf	eval_poly@res^(0+128)
  5122     0B4C                     l3960:
  5123     0B4C  0825               	movf	eval_poly@n^(0+128),w
  5124     0B4D  0426               	iorwf	(eval_poly@n+1)^(0+128),w
  5125     0B4E  1D03               	btfss	3,2
  5126     0B4F  2B51               	goto	u5561
  5127     0B50  2B52               	goto	u5560
  5128     0B51                     u5561:
  5129     0B51  2AB0               	goto	l3958
  5130     0B52                     u5560:
  5131     0B52                     l3962:
  5132     0B52  082F               	movf	(eval_poly@res+3)^(0+128),w
  5133     0B53  00A3               	movwf	(?_eval_poly+3)^(0+128)
  5134     0B54  082E               	movf	(eval_poly@res+2)^(0+128),w
  5135     0B55  00A2               	movwf	(?_eval_poly+2)^(0+128)
  5136     0B56  082D               	movf	(eval_poly@res+1)^(0+128),w
  5137     0B57  00A1               	movwf	(?_eval_poly+1)^(0+128)
  5138     0B58  082C               	movf	eval_poly@res^(0+128),w
  5139     0B59  00A0               	movwf	?_eval_poly^(0+128)
  5140     0B5A                     l885:
  5141     0B5A  0008               	return
  5142     0B5B                     __end_of_eval_poly:
  5143                           
  5144                           	psect	text18
  5145     0497                     __ptext18:	
  5146 ;; *************** function ___flmul *****************
  5147 ;; Defined at:
  5148 ;;		line 8 in file "C:\Program Files\Microchip\xc8\v2.41\pic\sources\c90\common\sprcmul.c"
  5149 ;; Parameters:    Size  Location     Type
  5150 ;;  b               4    5[BANK0 ] int 
  5151 ;;  a               4    9[BANK0 ] int 
  5152 ;; Auto vars:     Size  Location     Type
  5153 ;;  prod            4   25[BANK0 ] struct .
  5154 ;;  grs             4   20[BANK0 ] unsigned long 
  5155 ;;  temp            2   29[BANK0 ] struct .
  5156 ;;  bexp            1   24[BANK0 ] unsigned char 
  5157 ;;  aexp            1   19[BANK0 ] unsigned char 
  5158 ;;  sign            1   18[BANK0 ] unsigned char 
  5159 ;; Return value:  Size  Location     Type
  5160 ;;                  4    5[BANK0 ] unsigned char 
  5161 ;; Registers used:
  5162 ;;		wreg, status,2, status,0, btemp+1, pclath, cstack
  5163 ;; Tracked objects:
  5164 ;;		On entry : 0/0
  5165 ;;		On exit  : 0/0
  5166 ;;		Unchanged: 0/0
  5167 ;; Data sizes:     COMMON   BANK0   BANK1   BANK3   BANK2
  5168 ;;      Params:         0       8       0       0       0
  5169 ;;      Locals:         0      13       0       0       0
  5170 ;;      Temps:          0       5       0       0       0
  5171 ;;      Totals:         0      26       0       0       0
  5172 ;;Total ram usage:       26 bytes
  5173 ;; Hardware stack levels used: 1
  5174 ;; Hardware stack levels required when called: 1
  5175 ;; This function calls:
  5176 ;;		__Umul8_16
  5177 ;; This function is called by:
  5178 ;;		_log
  5179 ;;		_eval_poly
  5180 ;; This function uses a non-reentrant model
  5181 ;;
  5182                           
  5183     0497                     ___flmul:	
  5184                           ;psect for function ___flmul
  5185                           
  5186     0497                     l3726:	
  5187                           ;incstack = 0
  5188                           ; Regs used in ___flmul: [wreg+status,2+status,0+btemp+1+pclath+cstack]
  5189                           
  5190     0497  1283               	bcf	3,5	;RP0=0, select bank0
  5191     0498  1303               	bcf	3,6	;RP1=0, select bank0
  5192     0499  0828               	movf	___flmul@b+3,w
  5193     049A  3980               	andlw	128
  5194     049B  00B2               	movwf	___flmul@sign
  5195     049C                     l3728:
  5196     049C  0828               	movf	___flmul@b+3,w
  5197     049D  00AD               	movwf	??___flmul
  5198     049E  072D               	addwf	??___flmul,w
  5199     049F  00B8               	movwf	___flmul@bexp
  5200     04A0                     l3730:
  5201     04A0  1FA7               	btfss	___flmul@b+2,7
  5202     04A1  2CA3               	goto	u4951
  5203     04A2  2CA4               	goto	u4950
  5204     04A3                     u4951:
  5205     04A3  2CA5               	goto	l3734
  5206     04A4                     u4950:
  5207     04A4                     l3732:
  5208     04A4  1438               	bsf	___flmul@bexp,0
  5209     04A5                     l3734:
  5210     04A5  0838               	movf	___flmul@bexp,w
  5211     04A6  1903               	btfsc	3,2
  5212     04A7  2CA9               	goto	u4961
  5213     04A8  2CAA               	goto	u4960
  5214     04A9                     u4961:
  5215     04A9  2CB9               	goto	l3742
  5216     04AA                     u4960:
  5217     04AA                     l3736:
  5218     04AA  0A38               	incf	___flmul@bexp,w
  5219     04AB  1D03               	btfss	3,2
  5220     04AC  2CAE               	goto	u4971
  5221     04AD  2CAF               	goto	u4970
  5222     04AE                     u4971:
  5223     04AE  2CB7               	goto	l3740
  5224     04AF                     u4970:
  5225     04AF                     l3738:
  5226     04AF  3000               	movlw	0
  5227     04B0  00A8               	movwf	___flmul@b+3
  5228     04B1  3000               	movlw	0
  5229     04B2  00A7               	movwf	___flmul@b+2
  5230     04B3  3000               	movlw	0
  5231     04B4  00A6               	movwf	___flmul@b+1
  5232     04B5  3000               	movlw	0
  5233     04B6  00A5               	movwf	___flmul@b
  5234     04B7                     l3740:
  5235     04B7  17A7               	bsf	___flmul@b+2,7
  5236     04B8  2CC1               	goto	l3744
  5237     04B9                     l3742:
  5238     04B9  3000               	movlw	0
  5239     04BA  00A8               	movwf	___flmul@b+3
  5240     04BB  3000               	movlw	0
  5241     04BC  00A7               	movwf	___flmul@b+2
  5242     04BD  3000               	movlw	0
  5243     04BE  00A6               	movwf	___flmul@b+1
  5244     04BF  3000               	movlw	0
  5245     04C0  00A5               	movwf	___flmul@b
  5246     04C1                     l3744:
  5247     04C1  082C               	movf	___flmul@a+3,w
  5248     04C2  3980               	andlw	128
  5249     04C3  00FF               	movwf	btemp+1
  5250     04C4  087F               	movf	btemp+1,w
  5251     04C5  06B2               	xorwf	___flmul@sign,f
  5252     04C6                     l3746:
  5253     04C6  082C               	movf	___flmul@a+3,w
  5254     04C7  00AD               	movwf	??___flmul
  5255     04C8  072D               	addwf	??___flmul,w
  5256     04C9  00B3               	movwf	___flmul@aexp
  5257     04CA                     l3748:
  5258     04CA  1FAB               	btfss	___flmul@a+2,7
  5259     04CB  2CCD               	goto	u4981
  5260     04CC  2CCE               	goto	u4980
  5261     04CD                     u4981:
  5262     04CD  2CCF               	goto	l3752
  5263     04CE                     u4980:
  5264     04CE                     l3750:
  5265     04CE  1433               	bsf	___flmul@aexp,0
  5266     04CF                     l3752:
  5267     04CF  0833               	movf	___flmul@aexp,w
  5268     04D0  1903               	btfsc	3,2
  5269     04D1  2CD3               	goto	u4991
  5270     04D2  2CD4               	goto	u4990
  5271     04D3                     u4991:
  5272     04D3  2CE3               	goto	l3760
  5273     04D4                     u4990:
  5274     04D4                     l3754:
  5275     04D4  0A33               	incf	___flmul@aexp,w
  5276     04D5  1D03               	btfss	3,2
  5277     04D6  2CD8               	goto	u5001
  5278     04D7  2CD9               	goto	u5000
  5279     04D8                     u5001:
  5280     04D8  2CE1               	goto	l3758
  5281     04D9                     u5000:
  5282     04D9                     l3756:
  5283     04D9  3000               	movlw	0
  5284     04DA  00AC               	movwf	___flmul@a+3
  5285     04DB  3000               	movlw	0
  5286     04DC  00AB               	movwf	___flmul@a+2
  5287     04DD  3000               	movlw	0
  5288     04DE  00AA               	movwf	___flmul@a+1
  5289     04DF  3000               	movlw	0
  5290     04E0  00A9               	movwf	___flmul@a
  5291     04E1                     l3758:
  5292     04E1  17AB               	bsf	___flmul@a+2,7
  5293     04E2  2CEB               	goto	l3762
  5294     04E3                     l3760:
  5295     04E3  3000               	movlw	0
  5296     04E4  00AC               	movwf	___flmul@a+3
  5297     04E5  3000               	movlw	0
  5298     04E6  00AB               	movwf	___flmul@a+2
  5299     04E7  3000               	movlw	0
  5300     04E8  00AA               	movwf	___flmul@a+1
  5301     04E9  3000               	movlw	0
  5302     04EA  00A9               	movwf	___flmul@a
  5303     04EB                     l3762:
  5304     04EB  0833               	movf	___flmul@aexp,w
  5305     04EC  1903               	btfsc	3,2
  5306     04ED  2CEF               	goto	u5011
  5307     04EE  2CF0               	goto	u5010
  5308     04EF                     u5011:
  5309     04EF  2CF5               	goto	l3766
  5310     04F0                     u5010:
  5311     04F0                     l3764:
  5312     04F0  0838               	movf	___flmul@bexp,w
  5313     04F1  1D03               	btfss	3,2
  5314     04F2  2CF4               	goto	u5021
  5315     04F3  2CF5               	goto	u5020
  5316     04F4                     u5021:
  5317     04F4  2CFE               	goto	l3770
  5318     04F5                     u5020:
  5319     04F5                     l3766:
  5320     04F5  3000               	movlw	0
  5321     04F6  00A8               	movwf	?___flmul+3
  5322     04F7  3000               	movlw	0
  5323     04F8  00A7               	movwf	?___flmul+2
  5324     04F9  3000               	movlw	0
  5325     04FA  00A6               	movwf	?___flmul+1
  5326     04FB  3000               	movlw	0
  5327     04FC  00A5               	movwf	?___flmul
  5328     04FD  2FDB               	goto	l802
  5329     04FE                     l3770:
  5330     04FE  0825               	movf	___flmul@b,w
  5331     04FF  00F0               	movwf	__Umul8_16@multiplicand
  5332     0500  082B               	movf	___flmul@a+2,w
  5333     0501  160A  118A  2335  120A  118A  	fcall	__Umul8_16
  5334     0506  0871               	movf	?__Umul8_16+1,w
  5335     0507  1283               	bcf	3,5	;RP0=0, select bank0
  5336     0508  1303               	bcf	3,6	;RP1=0, select bank0
  5337     0509  00BE               	movwf	___flmul@temp+1
  5338     050A  0870               	movf	?__Umul8_16,w
  5339     050B  00BD               	movwf	___flmul@temp
  5340     050C                     l3772:
  5341     050C  083D               	movf	___flmul@temp,w
  5342     050D  00AD               	movwf	??___flmul
  5343     050E  01AE               	clrf	??___flmul+1
  5344     050F  01AF               	clrf	??___flmul+2
  5345     0510  01B0               	clrf	??___flmul+3
  5346     0511  0830               	movf	??___flmul+3,w
  5347     0512  00B7               	movwf	___flmul@grs+3
  5348     0513  082F               	movf	??___flmul+2,w
  5349     0514  00B6               	movwf	___flmul@grs+2
  5350     0515  082E               	movf	??___flmul+1,w
  5351     0516  00B5               	movwf	___flmul@grs+1
  5352     0517  082D               	movf	??___flmul,w
  5353     0518  00B4               	movwf	___flmul@grs
  5354     0519                     l3774:
  5355     0519  083E               	movf	___flmul@temp+1,w
  5356     051A  00AD               	movwf	??___flmul
  5357     051B  01AE               	clrf	??___flmul+1
  5358     051C  01AF               	clrf	??___flmul+2
  5359     051D  01B0               	clrf	??___flmul+3
  5360     051E  0830               	movf	??___flmul+3,w
  5361     051F  00BC               	movwf	___flmul@prod+3
  5362     0520  082F               	movf	??___flmul+2,w
  5363     0521  00BB               	movwf	___flmul@prod+2
  5364     0522  082E               	movf	??___flmul+1,w
  5365     0523  00BA               	movwf	___flmul@prod+1
  5366     0524  082D               	movf	??___flmul,w
  5367     0525  00B9               	movwf	___flmul@prod
  5368     0526  0826               	movf	___flmul@b+1,w
  5369     0527  00F0               	movwf	__Umul8_16@multiplicand
  5370     0528  082A               	movf	___flmul@a+1,w
  5371     0529  160A  118A  2335  120A  118A  	fcall	__Umul8_16
  5372     052E  0871               	movf	?__Umul8_16+1,w
  5373     052F  1283               	bcf	3,5	;RP0=0, select bank0
  5374     0530  1303               	bcf	3,6	;RP1=0, select bank0
  5375     0531  00BE               	movwf	___flmul@temp+1
  5376     0532  0870               	movf	?__Umul8_16,w
  5377     0533  00BD               	movwf	___flmul@temp
  5378     0534                     l3776:
  5379     0534  083D               	movf	___flmul@temp,w
  5380     0535  00AD               	movwf	??___flmul
  5381     0536  01AE               	clrf	??___flmul+1
  5382     0537  01AF               	clrf	??___flmul+2
  5383     0538  01B0               	clrf	??___flmul+3
  5384     0539  082D               	movf	??___flmul,w
  5385     053A  07B4               	addwf	___flmul@grs,f
  5386     053B  082E               	movf	??___flmul+1,w
  5387     053C  1103               	clrz
  5388     053D  1803               	skipnc
  5389     053E  3E01               	addlw	1
  5390     053F  1903               	skipnz
  5391     0540  2D42               	goto	u5031
  5392     0541  07B5               	addwf	___flmul@grs+1,f
  5393     0542                     u5031:
  5394     0542  082F               	movf	??___flmul+2,w
  5395     0543  1103               	clrz
  5396     0544  1803               	skipnc
  5397     0545  3E01               	addlw	1
  5398     0546  1903               	skipnz
  5399     0547  2D49               	goto	u5032
  5400     0548  07B6               	addwf	___flmul@grs+2,f
  5401     0549                     u5032:
  5402     0549  0830               	movf	??___flmul+3,w
  5403     054A  1103               	clrz
  5404     054B  1803               	skipnc
  5405     054C  3E01               	addlw	1
  5406     054D  1903               	skipnz
  5407     054E  2D50               	goto	u5033
  5408     054F  07B7               	addwf	___flmul@grs+3,f
  5409     0550                     u5033:
  5410     0550                     l3778:
  5411     0550  083E               	movf	___flmul@temp+1,w
  5412     0551  00AD               	movwf	??___flmul
  5413     0552  01AE               	clrf	??___flmul+1
  5414     0553  01AF               	clrf	??___flmul+2
  5415     0554  01B0               	clrf	??___flmul+3
  5416     0555  082D               	movf	??___flmul,w
  5417     0556  07B9               	addwf	___flmul@prod,f
  5418     0557  082E               	movf	??___flmul+1,w
  5419     0558  1103               	clrz
  5420     0559  1803               	skipnc
  5421     055A  3E01               	addlw	1
  5422     055B  1903               	skipnz
  5423     055C  2D5E               	goto	u5041
  5424     055D  07BA               	addwf	___flmul@prod+1,f
  5425     055E                     u5041:
  5426     055E  082F               	movf	??___flmul+2,w
  5427     055F  1103               	clrz
  5428     0560  1803               	skipnc
  5429     0561  3E01               	addlw	1
  5430     0562  1903               	skipnz
  5431     0563  2D65               	goto	u5042
  5432     0564  07BB               	addwf	___flmul@prod+2,f
  5433     0565                     u5042:
  5434     0565  0830               	movf	??___flmul+3,w
  5435     0566  1103               	clrz
  5436     0567  1803               	skipnc
  5437     0568  3E01               	addlw	1
  5438     0569  1903               	skipnz
  5439     056A  2D6C               	goto	u5043
  5440     056B  07BC               	addwf	___flmul@prod+3,f
  5441     056C                     u5043:
  5442     056C  0827               	movf	___flmul@b+2,w
  5443     056D  00F0               	movwf	__Umul8_16@multiplicand
  5444     056E  0829               	movf	___flmul@a,w
  5445     056F  160A  118A  2335  120A  118A  	fcall	__Umul8_16
  5446     0574  0871               	movf	?__Umul8_16+1,w
  5447     0575  1283               	bcf	3,5	;RP0=0, select bank0
  5448     0576  1303               	bcf	3,6	;RP1=0, select bank0
  5449     0577  00BE               	movwf	___flmul@temp+1
  5450     0578  0870               	movf	?__Umul8_16,w
  5451     0579  00BD               	movwf	___flmul@temp
  5452     057A                     l3780:
  5453     057A  083D               	movf	___flmul@temp,w
  5454     057B  00AD               	movwf	??___flmul
  5455     057C  01AE               	clrf	??___flmul+1
  5456     057D  01AF               	clrf	??___flmul+2
  5457     057E  01B0               	clrf	??___flmul+3
  5458     057F  082D               	movf	??___flmul,w
  5459     0580  07B4               	addwf	___flmul@grs,f
  5460     0581  082E               	movf	??___flmul+1,w
  5461     0582  1103               	clrz
  5462     0583  1803               	skipnc
  5463     0584  3E01               	addlw	1
  5464     0585  1903               	skipnz
  5465     0586  2D88               	goto	u5051
  5466     0587  07B5               	addwf	___flmul@grs+1,f
  5467     0588                     u5051:
  5468     0588  082F               	movf	??___flmul+2,w
  5469     0589  1103               	clrz
  5470     058A  1803               	skipnc
  5471     058B  3E01               	addlw	1
  5472     058C  1903               	skipnz
  5473     058D  2D8F               	goto	u5052
  5474     058E  07B6               	addwf	___flmul@grs+2,f
  5475     058F                     u5052:
  5476     058F  0830               	movf	??___flmul+3,w
  5477     0590  1103               	clrz
  5478     0591  1803               	skipnc
  5479     0592  3E01               	addlw	1
  5480     0593  1903               	skipnz
  5481     0594  2D96               	goto	u5053
  5482     0595  07B7               	addwf	___flmul@grs+3,f
  5483     0596                     u5053:
  5484     0596                     l3782:
  5485     0596  083E               	movf	___flmul@temp+1,w
  5486     0597  00AD               	movwf	??___flmul
  5487     0598  01AE               	clrf	??___flmul+1
  5488     0599  01AF               	clrf	??___flmul+2
  5489     059A  01B0               	clrf	??___flmul+3
  5490     059B  082D               	movf	??___flmul,w
  5491     059C  07B9               	addwf	___flmul@prod,f
  5492     059D  082E               	movf	??___flmul+1,w
  5493     059E  1103               	clrz
  5494     059F  1803               	skipnc
  5495     05A0  3E01               	addlw	1
  5496     05A1  1903               	skipnz
  5497     05A2  2DA4               	goto	u5061
  5498     05A3  07BA               	addwf	___flmul@prod+1,f
  5499     05A4                     u5061:
  5500     05A4  082F               	movf	??___flmul+2,w
  5501     05A5  1103               	clrz
  5502     05A6  1803               	skipnc
  5503     05A7  3E01               	addlw	1
  5504     05A8  1903               	skipnz
  5505     05A9  2DAB               	goto	u5062
  5506     05AA  07BB               	addwf	___flmul@prod+2,f
  5507     05AB                     u5062:
  5508     05AB  0830               	movf	??___flmul+3,w
  5509     05AC  1103               	clrz
  5510     05AD  1803               	skipnc
  5511     05AE  3E01               	addlw	1
  5512     05AF  1903               	skipnz
  5513     05B0  2DB2               	goto	u5063
  5514     05B1  07BC               	addwf	___flmul@prod+3,f
  5515     05B2                     u5063:
  5516     05B2                     l3784:
  5517     05B2  3008               	movlw	8
  5518     05B3  00AD               	movwf	??___flmul
  5519     05B4                     u5075:
  5520     05B4  1003               	clrc
  5521     05B5  0DB4               	rlf	___flmul@grs,f
  5522     05B6  0DB5               	rlf	___flmul@grs+1,f
  5523     05B7  0DB6               	rlf	___flmul@grs+2,f
  5524     05B8  0DB7               	rlf	___flmul@grs+3,f
  5525     05B9  0BAD               	decfsz	??___flmul,f
  5526     05BA  2DB4               	goto	u5075
  5527     05BB                     l3786:
  5528     05BB  0826               	movf	___flmul@b+1,w
  5529     05BC  00F0               	movwf	__Umul8_16@multiplicand
  5530     05BD  0829               	movf	___flmul@a,w
  5531     05BE  160A  118A  2335  120A  118A  	fcall	__Umul8_16
  5532     05C3  0871               	movf	?__Umul8_16+1,w
  5533     05C4  1283               	bcf	3,5	;RP0=0, select bank0
  5534     05C5  1303               	bcf	3,6	;RP1=0, select bank0
  5535     05C6  00BE               	movwf	___flmul@temp+1
  5536     05C7  0870               	movf	?__Umul8_16,w
  5537     05C8  00BD               	movwf	___flmul@temp
  5538     05C9                     l3788:
  5539     05C9  083D               	movf	___flmul@temp,w
  5540     05CA  00AD               	movwf	??___flmul
  5541     05CB  083E               	movf	___flmul@temp+1,w
  5542     05CC  00AE               	movwf	??___flmul+1
  5543     05CD  01AF               	clrf	??___flmul+2
  5544     05CE  01B0               	clrf	??___flmul+3
  5545     05CF  082D               	movf	??___flmul,w
  5546     05D0  07B4               	addwf	___flmul@grs,f
  5547     05D1  082E               	movf	??___flmul+1,w
  5548     05D2  1103               	clrz
  5549     05D3  1803               	skipnc
  5550     05D4  3E01               	addlw	1
  5551     05D5  1903               	skipnz
  5552     05D6  2DD8               	goto	u5081
  5553     05D7  07B5               	addwf	___flmul@grs+1,f
  5554     05D8                     u5081:
  5555     05D8  082F               	movf	??___flmul+2,w
  5556     05D9  1103               	clrz
  5557     05DA  1803               	skipnc
  5558     05DB  3E01               	addlw	1
  5559     05DC  1903               	skipnz
  5560     05DD  2DDF               	goto	u5082
  5561     05DE  07B6               	addwf	___flmul@grs+2,f
  5562     05DF                     u5082:
  5563     05DF  0830               	movf	??___flmul+3,w
  5564     05E0  1103               	clrz
  5565     05E1  1803               	skipnc
  5566     05E2  3E01               	addlw	1
  5567     05E3  1903               	skipnz
  5568     05E4  2DE6               	goto	u5083
  5569     05E5  07B7               	addwf	___flmul@grs+3,f
  5570     05E6                     u5083:
  5571     05E6                     l3790:
  5572     05E6  0825               	movf	___flmul@b,w
  5573     05E7  00F0               	movwf	__Umul8_16@multiplicand
  5574     05E8  082A               	movf	___flmul@a+1,w
  5575     05E9  160A  118A  2335  120A  118A  	fcall	__Umul8_16
  5576     05EE  0871               	movf	?__Umul8_16+1,w
  5577     05EF  1283               	bcf	3,5	;RP0=0, select bank0
  5578     05F0  1303               	bcf	3,6	;RP1=0, select bank0
  5579     05F1  00BE               	movwf	___flmul@temp+1
  5580     05F2  0870               	movf	?__Umul8_16,w
  5581     05F3  00BD               	movwf	___flmul@temp
  5582     05F4                     l3792:
  5583     05F4  083D               	movf	___flmul@temp,w
  5584     05F5  00AD               	movwf	??___flmul
  5585     05F6  083E               	movf	___flmul@temp+1,w
  5586     05F7  00AE               	movwf	??___flmul+1
  5587     05F8  01AF               	clrf	??___flmul+2
  5588     05F9  01B0               	clrf	??___flmul+3
  5589     05FA  082D               	movf	??___flmul,w
  5590     05FB  07B4               	addwf	___flmul@grs,f
  5591     05FC  082E               	movf	??___flmul+1,w
  5592     05FD  1103               	clrz
  5593     05FE  1803               	skipnc
  5594     05FF  3E01               	addlw	1
  5595     0600  1903               	skipnz
  5596     0601  2E03               	goto	u5091
  5597     0602  07B5               	addwf	___flmul@grs+1,f
  5598     0603                     u5091:
  5599     0603  082F               	movf	??___flmul+2,w
  5600     0604  1103               	clrz
  5601     0605  1803               	skipnc
  5602     0606  3E01               	addlw	1
  5603     0607  1903               	skipnz
  5604     0608  2E0A               	goto	u5092
  5605     0609  07B6               	addwf	___flmul@grs+2,f
  5606     060A                     u5092:
  5607     060A  0830               	movf	??___flmul+3,w
  5608     060B  1103               	clrz
  5609     060C  1803               	skipnc
  5610     060D  3E01               	addlw	1
  5611     060E  1903               	skipnz
  5612     060F  2E11               	goto	u5093
  5613     0610  07B7               	addwf	___flmul@grs+3,f
  5614     0611                     u5093:
  5615     0611                     l3794:
  5616     0611  3008               	movlw	8
  5617     0612  00AD               	movwf	??___flmul
  5618     0613                     u5105:
  5619     0613  1003               	clrc
  5620     0614  0DB4               	rlf	___flmul@grs,f
  5621     0615  0DB5               	rlf	___flmul@grs+1,f
  5622     0616  0DB6               	rlf	___flmul@grs+2,f
  5623     0617  0DB7               	rlf	___flmul@grs+3,f
  5624     0618  0BAD               	decfsz	??___flmul,f
  5625     0619  2E13               	goto	u5105
  5626     061A  0825               	movf	___flmul@b,w
  5627     061B  00F0               	movwf	__Umul8_16@multiplicand
  5628     061C  0829               	movf	___flmul@a,w
  5629     061D  160A  118A  2335  120A  118A  	fcall	__Umul8_16
  5630     0622  0871               	movf	?__Umul8_16+1,w
  5631     0623  1283               	bcf	3,5	;RP0=0, select bank0
  5632     0624  1303               	bcf	3,6	;RP1=0, select bank0
  5633     0625  00BE               	movwf	___flmul@temp+1
  5634     0626  0870               	movf	?__Umul8_16,w
  5635     0627  00BD               	movwf	___flmul@temp
  5636     0628                     l3796:
  5637     0628  083D               	movf	___flmul@temp,w
  5638     0629  00AD               	movwf	??___flmul
  5639     062A  083E               	movf	___flmul@temp+1,w
  5640     062B  00AE               	movwf	??___flmul+1
  5641     062C  01AF               	clrf	??___flmul+2
  5642     062D  01B0               	clrf	??___flmul+3
  5643     062E  082D               	movf	??___flmul,w
  5644     062F  07B4               	addwf	___flmul@grs,f
  5645     0630  082E               	movf	??___flmul+1,w
  5646     0631  1103               	clrz
  5647     0632  1803               	skipnc
  5648     0633  3E01               	addlw	1
  5649     0634  1903               	skipnz
  5650     0635  2E37               	goto	u5111
  5651     0636  07B5               	addwf	___flmul@grs+1,f
  5652     0637                     u5111:
  5653     0637  082F               	movf	??___flmul+2,w
  5654     0638  1103               	clrz
  5655     0639  1803               	skipnc
  5656     063A  3E01               	addlw	1
  5657     063B  1903               	skipnz
  5658     063C  2E3E               	goto	u5112
  5659     063D  07B6               	addwf	___flmul@grs+2,f
  5660     063E                     u5112:
  5661     063E  0830               	movf	??___flmul+3,w
  5662     063F  1103               	clrz
  5663     0640  1803               	skipnc
  5664     0641  3E01               	addlw	1
  5665     0642  1903               	skipnz
  5666     0643  2E45               	goto	u5113
  5667     0644  07B7               	addwf	___flmul@grs+3,f
  5668     0645                     u5113:
  5669     0645                     l3798:
  5670     0645  0826               	movf	___flmul@b+1,w
  5671     0646  00F0               	movwf	__Umul8_16@multiplicand
  5672     0647  082B               	movf	___flmul@a+2,w
  5673     0648  160A  118A  2335  120A  118A  	fcall	__Umul8_16
  5674     064D  0871               	movf	?__Umul8_16+1,w
  5675     064E  1283               	bcf	3,5	;RP0=0, select bank0
  5676     064F  1303               	bcf	3,6	;RP1=0, select bank0
  5677     0650  00BE               	movwf	___flmul@temp+1
  5678     0651  0870               	movf	?__Umul8_16,w
  5679     0652  00BD               	movwf	___flmul@temp
  5680     0653  083D               	movf	___flmul@temp,w
  5681     0654  00AD               	movwf	??___flmul
  5682     0655  083E               	movf	___flmul@temp+1,w
  5683     0656  00AE               	movwf	??___flmul+1
  5684     0657  01AF               	clrf	??___flmul+2
  5685     0658  01B0               	clrf	??___flmul+3
  5686     0659  082D               	movf	??___flmul,w
  5687     065A  07B9               	addwf	___flmul@prod,f
  5688     065B  082E               	movf	??___flmul+1,w
  5689     065C  1103               	clrz
  5690     065D  1803               	skipnc
  5691     065E  3E01               	addlw	1
  5692     065F  1903               	skipnz
  5693     0660  2E62               	goto	u5121
  5694     0661  07BA               	addwf	___flmul@prod+1,f
  5695     0662                     u5121:
  5696     0662  082F               	movf	??___flmul+2,w
  5697     0663  1103               	clrz
  5698     0664  1803               	skipnc
  5699     0665  3E01               	addlw	1
  5700     0666  1903               	skipnz
  5701     0667  2E69               	goto	u5122
  5702     0668  07BB               	addwf	___flmul@prod+2,f
  5703     0669                     u5122:
  5704     0669  0830               	movf	??___flmul+3,w
  5705     066A  1103               	clrz
  5706     066B  1803               	skipnc
  5707     066C  3E01               	addlw	1
  5708     066D  1903               	skipnz
  5709     066E  2E70               	goto	u5123
  5710     066F  07BC               	addwf	___flmul@prod+3,f
  5711     0670                     u5123:
  5712     0670                     l3800:
  5713     0670  0827               	movf	___flmul@b+2,w
  5714     0671  00F0               	movwf	__Umul8_16@multiplicand
  5715     0672  082A               	movf	___flmul@a+1,w
  5716     0673  160A  118A  2335  120A  118A  	fcall	__Umul8_16
  5717     0678  0871               	movf	?__Umul8_16+1,w
  5718     0679  1283               	bcf	3,5	;RP0=0, select bank0
  5719     067A  1303               	bcf	3,6	;RP1=0, select bank0
  5720     067B  00BE               	movwf	___flmul@temp+1
  5721     067C  0870               	movf	?__Umul8_16,w
  5722     067D  00BD               	movwf	___flmul@temp
  5723     067E                     l3802:
  5724     067E  083D               	movf	___flmul@temp,w
  5725     067F  00AD               	movwf	??___flmul
  5726     0680  083E               	movf	___flmul@temp+1,w
  5727     0681  00AE               	movwf	??___flmul+1
  5728     0682  01AF               	clrf	??___flmul+2
  5729     0683  01B0               	clrf	??___flmul+3
  5730     0684  082D               	movf	??___flmul,w
  5731     0685  07B9               	addwf	___flmul@prod,f
  5732     0686  082E               	movf	??___flmul+1,w
  5733     0687  1103               	clrz
  5734     0688  1803               	skipnc
  5735     0689  3E01               	addlw	1
  5736     068A  1903               	skipnz
  5737     068B  2E8D               	goto	u5131
  5738     068C  07BA               	addwf	___flmul@prod+1,f
  5739     068D                     u5131:
  5740     068D  082F               	movf	??___flmul+2,w
  5741     068E  1103               	clrz
  5742     068F  1803               	skipnc
  5743     0690  3E01               	addlw	1
  5744     0691  1903               	skipnz
  5745     0692  2E94               	goto	u5132
  5746     0693  07BB               	addwf	___flmul@prod+2,f
  5747     0694                     u5132:
  5748     0694  0830               	movf	??___flmul+3,w
  5749     0695  1103               	clrz
  5750     0696  1803               	skipnc
  5751     0697  3E01               	addlw	1
  5752     0698  1903               	skipnz
  5753     0699  2E9B               	goto	u5133
  5754     069A  07BC               	addwf	___flmul@prod+3,f
  5755     069B                     u5133:
  5756     069B  0827               	movf	___flmul@b+2,w
  5757     069C  00F0               	movwf	__Umul8_16@multiplicand
  5758     069D  082B               	movf	___flmul@a+2,w
  5759     069E  160A  118A  2335  120A  118A  	fcall	__Umul8_16
  5760     06A3  0871               	movf	?__Umul8_16+1,w
  5761     06A4  1283               	bcf	3,5	;RP0=0, select bank0
  5762     06A5  1303               	bcf	3,6	;RP1=0, select bank0
  5763     06A6  00BE               	movwf	___flmul@temp+1
  5764     06A7  0870               	movf	?__Umul8_16,w
  5765     06A8  00BD               	movwf	___flmul@temp
  5766     06A9                     l3804:
  5767     06A9  083D               	movf	___flmul@temp,w
  5768     06AA  00AD               	movwf	??___flmul
  5769     06AB  083E               	movf	___flmul@temp+1,w
  5770     06AC  00AE               	movwf	??___flmul+1
  5771     06AD  01AF               	clrf	??___flmul+2
  5772     06AE  01B0               	clrf	??___flmul+3
  5773     06AF  3008               	movlw	8
  5774     06B0                     u5145:
  5775     06B0  1003               	clrc
  5776     06B1  0DAD               	rlf	??___flmul,f
  5777     06B2  0DAE               	rlf	??___flmul+1,f
  5778     06B3  0DAF               	rlf	??___flmul+2,f
  5779     06B4  0DB0               	rlf	??___flmul+3,f
  5780     06B5                     u5140:
  5781     06B5  3EFF               	addlw	-1
  5782     06B6  1D03               	skipz
  5783     06B7  2EB0               	goto	u5145
  5784     06B8  082D               	movf	??___flmul,w
  5785     06B9  07B9               	addwf	___flmul@prod,f
  5786     06BA  082E               	movf	??___flmul+1,w
  5787     06BB  1103               	clrz
  5788     06BC  1803               	skipnc
  5789     06BD  3E01               	addlw	1
  5790     06BE  1903               	skipnz
  5791     06BF  2EC1               	goto	u5151
  5792     06C0  07BA               	addwf	___flmul@prod+1,f
  5793     06C1                     u5151:
  5794     06C1  082F               	movf	??___flmul+2,w
  5795     06C2  1103               	clrz
  5796     06C3  1803               	skipnc
  5797     06C4  3E01               	addlw	1
  5798     06C5  1903               	skipnz
  5799     06C6  2EC8               	goto	u5152
  5800     06C7  07BB               	addwf	___flmul@prod+2,f
  5801     06C8                     u5152:
  5802     06C8  0830               	movf	??___flmul+3,w
  5803     06C9  1103               	clrz
  5804     06CA  1803               	skipnc
  5805     06CB  3E01               	addlw	1
  5806     06CC  1903               	skipnz
  5807     06CD  2ECF               	goto	u5153
  5808     06CE  07BC               	addwf	___flmul@prod+3,f
  5809     06CF                     u5153:
  5810     06CF                     l3806:
  5811     06CF  0834               	movf	___flmul@grs,w
  5812     06D0  00AD               	movwf	??___flmul
  5813     06D1  0835               	movf	___flmul@grs+1,w
  5814     06D2  00AE               	movwf	??___flmul+1
  5815     06D3  0836               	movf	___flmul@grs+2,w
  5816     06D4  00AF               	movwf	??___flmul+2
  5817     06D5  0837               	movf	___flmul@grs+3,w
  5818     06D6  00B0               	movwf	??___flmul+3
  5819     06D7  3018               	movlw	24
  5820     06D8                     u5165:
  5821     06D8  1003               	clrc
  5822     06D9  0CB0               	rrf	??___flmul+3,f
  5823     06DA  0CAF               	rrf	??___flmul+2,f
  5824     06DB  0CAE               	rrf	??___flmul+1,f
  5825     06DC  0CAD               	rrf	??___flmul,f
  5826     06DD                     u5160:
  5827     06DD  3EFF               	addlw	-1
  5828     06DE  1D03               	skipz
  5829     06DF  2ED8               	goto	u5165
  5830     06E0  082D               	movf	??___flmul,w
  5831     06E1  07B9               	addwf	___flmul@prod,f
  5832     06E2  082E               	movf	??___flmul+1,w
  5833     06E3  1103               	clrz
  5834     06E4  1803               	skipnc
  5835     06E5  3E01               	addlw	1
  5836     06E6  1903               	skipnz
  5837     06E7  2EE9               	goto	u5171
  5838     06E8  07BA               	addwf	___flmul@prod+1,f
  5839     06E9                     u5171:
  5840     06E9  082F               	movf	??___flmul+2,w
  5841     06EA  1103               	clrz
  5842     06EB  1803               	skipnc
  5843     06EC  3E01               	addlw	1
  5844     06ED  1903               	skipnz
  5845     06EE  2EF0               	goto	u5172
  5846     06EF  07BB               	addwf	___flmul@prod+2,f
  5847     06F0                     u5172:
  5848     06F0  0830               	movf	??___flmul+3,w
  5849     06F1  1103               	clrz
  5850     06F2  1803               	skipnc
  5851     06F3  3E01               	addlw	1
  5852     06F4  1903               	skipnz
  5853     06F5  2EF7               	goto	u5173
  5854     06F6  07BC               	addwf	___flmul@prod+3,f
  5855     06F7                     u5173:
  5856     06F7                     l3808:
  5857     06F7  3008               	movlw	8
  5858     06F8  00AD               	movwf	??___flmul
  5859     06F9                     u5185:
  5860     06F9  1003               	clrc
  5861     06FA  0DB4               	rlf	___flmul@grs,f
  5862     06FB  0DB5               	rlf	___flmul@grs+1,f
  5863     06FC  0DB6               	rlf	___flmul@grs+2,f
  5864     06FD  0DB7               	rlf	___flmul@grs+3,f
  5865     06FE  0BAD               	decfsz	??___flmul,f
  5866     06FF  2EF9               	goto	u5185
  5867     0700                     l3810:
  5868     0700  0838               	movf	___flmul@bexp,w
  5869     0701  0733               	addwf	___flmul@aexp,w
  5870     0702  00AD               	movwf	??___flmul
  5871     0703  01AE               	clrf	??___flmul+1
  5872     0704  0DAE               	rlf	??___flmul+1,f
  5873     0705  082D               	movf	??___flmul,w
  5874     0706  3E82               	addlw	130
  5875     0707  00BD               	movwf	___flmul@temp
  5876     0708  082E               	movf	??___flmul+1,w
  5877     0709  1803               	skipnc
  5878     070A  3E01               	addlw	1
  5879     070B  3EFF               	addlw	255
  5880     070C  00BE               	movwf	___flmul@temp+1
  5881     070D  2F2B               	goto	l3822
  5882     070E                     l3812:
  5883     070E  3001               	movlw	1
  5884     070F  00AD               	movwf	??___flmul
  5885     0710                     u5195:
  5886     0710  1003               	clrc
  5887     0711  0DB9               	rlf	___flmul@prod,f
  5888     0712  0DBA               	rlf	___flmul@prod+1,f
  5889     0713  0DBB               	rlf	___flmul@prod+2,f
  5890     0714  0DBC               	rlf	___flmul@prod+3,f
  5891     0715  0BAD               	decfsz	??___flmul,f
  5892     0716  2F10               	goto	u5195
  5893     0717                     l3814:
  5894     0717  1FB7               	btfss	___flmul@grs+3,7
  5895     0718  2F1A               	goto	u5201
  5896     0719  2F1B               	goto	u5200
  5897     071A                     u5201:
  5898     071A  2F1C               	goto	l3818
  5899     071B                     u5200:
  5900     071B                     l3816:
  5901     071B  1439               	bsf	___flmul@prod,0
  5902     071C                     l3818:
  5903     071C  3001               	movlw	1
  5904     071D  00AD               	movwf	??___flmul
  5905     071E                     u5215:
  5906     071E  1003               	clrc
  5907     071F  0DB4               	rlf	___flmul@grs,f
  5908     0720  0DB5               	rlf	___flmul@grs+1,f
  5909     0721  0DB6               	rlf	___flmul@grs+2,f
  5910     0722  0DB7               	rlf	___flmul@grs+3,f
  5911     0723  0BAD               	decfsz	??___flmul,f
  5912     0724  2F1E               	goto	u5215
  5913     0725                     l3820:
  5914     0725  30FF               	movlw	255
  5915     0726  07BD               	addwf	___flmul@temp,f
  5916     0727  1803               	skipnc
  5917     0728  0ABE               	incf	___flmul@temp+1,f
  5918     0729  30FF               	movlw	255
  5919     072A  07BE               	addwf	___flmul@temp+1,f
  5920     072B                     l3822:
  5921     072B  1FBB               	btfss	___flmul@prod+2,7
  5922     072C  2F2E               	goto	u5221
  5923     072D  2F2F               	goto	u5220
  5924     072E                     u5221:
  5925     072E  2F0E               	goto	l3812
  5926     072F                     u5220:
  5927     072F                     l3824:
  5928     072F  01B3               	clrf	___flmul@aexp
  5929     0730                     l3826:
  5930     0730  1FB7               	btfss	___flmul@grs+3,7
  5931     0731  2F33               	goto	u5231
  5932     0732  2F34               	goto	u5230
  5933     0733                     u5231:
  5934     0733  2F50               	goto	l3834
  5935     0734                     u5230:
  5936     0734                     l3828:
  5937     0734  30FF               	movlw	255
  5938     0735  0534               	andwf	___flmul@grs,w
  5939     0736  00AD               	movwf	??___flmul
  5940     0737  30FF               	movlw	255
  5941     0738  0535               	andwf	___flmul@grs+1,w
  5942     0739  00AE               	movwf	??___flmul+1
  5943     073A  30FF               	movlw	255
  5944     073B  0536               	andwf	___flmul@grs+2,w
  5945     073C  00AF               	movwf	??___flmul+2
  5946     073D  307F               	movlw	127
  5947     073E  0537               	andwf	___flmul@grs+3,w
  5948     073F  00B0               	movwf	??___flmul+3
  5949     0740  0830               	movf	??___flmul+3,w
  5950     0741  042F               	iorwf	??___flmul+2,w
  5951     0742  042E               	iorwf	??___flmul+1,w
  5952     0743  042D               	iorwf	??___flmul,w
  5953     0744  1903               	skipnz
  5954     0745  2F47               	goto	u5241
  5955     0746  2F48               	goto	u5240
  5956     0747                     u5241:
  5957     0747  2F4B               	goto	l808
  5958     0748                     u5240:
  5959     0748                     l3830:
  5960     0748  01B3               	clrf	___flmul@aexp
  5961     0749  0AB3               	incf	___flmul@aexp,f
  5962     074A  2F50               	goto	l3834
  5963     074B                     l808:
  5964     074B  1C39               	btfss	___flmul@prod,0
  5965     074C  2F4E               	goto	u5251
  5966     074D  2F4F               	goto	u5250
  5967     074E                     u5251:
  5968     074E  2F50               	goto	l3834
  5969     074F                     u5250:
  5970     074F  2F48               	goto	l3830
  5971     0750                     l3834:
  5972     0750  0833               	movf	___flmul@aexp,w
  5973     0751  1903               	btfsc	3,2
  5974     0752  2F54               	goto	u5261
  5975     0753  2F55               	goto	u5260
  5976     0754                     u5261:
  5977     0754  2F86               	goto	l3844
  5978     0755                     u5260:
  5979     0755                     l3836:
  5980     0755  3001               	movlw	1
  5981     0756  07B9               	addwf	___flmul@prod,f
  5982     0757  3000               	movlw	0
  5983     0758  1803               	skipnc
  5984     0759  3001               	movlw	1
  5985     075A  07BA               	addwf	___flmul@prod+1,f
  5986     075B  3000               	movlw	0
  5987     075C  1803               	skipnc
  5988     075D  3001               	movlw	1
  5989     075E  07BB               	addwf	___flmul@prod+2,f
  5990     075F  3000               	movlw	0
  5991     0760  1803               	skipnc
  5992     0761  3001               	movlw	1
  5993     0762  07BC               	addwf	___flmul@prod+3,f
  5994     0763                     l3838:
  5995     0763  1C3C               	btfss	___flmul@prod+3,0
  5996     0764  2F66               	goto	u5271
  5997     0765  2F67               	goto	u5270
  5998     0766                     u5271:
  5999     0766  2F86               	goto	l3844
  6000     0767                     u5270:
  6001     0767                     l3840:
  6002     0767  0839               	movf	___flmul@prod,w
  6003     0768  00AD               	movwf	??___flmul
  6004     0769  083A               	movf	___flmul@prod+1,w
  6005     076A  00AE               	movwf	??___flmul+1
  6006     076B  083B               	movf	___flmul@prod+2,w
  6007     076C  00AF               	movwf	??___flmul+2
  6008     076D  083C               	movf	___flmul@prod+3,w
  6009     076E  00B0               	movwf	??___flmul+3
  6010     076F  3001               	movlw	1
  6011     0770  00B1               	movwf	??___flmul+4
  6012     0771                     u5285:
  6013     0771  0D30               	rlf	??___flmul+3,w
  6014     0772  0CB0               	rrf	??___flmul+3,f
  6015     0773  0CAF               	rrf	??___flmul+2,f
  6016     0774  0CAE               	rrf	??___flmul+1,f
  6017     0775  0CAD               	rrf	??___flmul,f
  6018     0776                     u5280:
  6019     0776  0BB1               	decfsz	??___flmul+4,f
  6020     0777  2F71               	goto	u5285
  6021     0778  0830               	movf	??___flmul+3,w
  6022     0779  00BC               	movwf	___flmul@prod+3
  6023     077A  082F               	movf	??___flmul+2,w
  6024     077B  00BB               	movwf	___flmul@prod+2
  6025     077C  082E               	movf	??___flmul+1,w
  6026     077D  00BA               	movwf	___flmul@prod+1
  6027     077E  082D               	movf	??___flmul,w
  6028     077F  00B9               	movwf	___flmul@prod
  6029     0780                     l3842:
  6030     0780  3001               	movlw	1
  6031     0781  07BD               	addwf	___flmul@temp,f
  6032     0782  1803               	skipnc
  6033     0783  0ABE               	incf	___flmul@temp+1,f
  6034     0784  3000               	movlw	0
  6035     0785  07BE               	addwf	___flmul@temp+1,f
  6036     0786                     l3844:
  6037     0786  083E               	movf	___flmul@temp+1,w
  6038     0787  3A80               	xorlw	128
  6039     0788  00FF               	movwf	btemp+1
  6040     0789  3080               	movlw	128
  6041     078A  027F               	subwf	btemp+1,w
  6042     078B  1D03               	skipz
  6043     078C  2F8F               	goto	u5295
  6044     078D  30FF               	movlw	255
  6045     078E  023D               	subwf	___flmul@temp,w
  6046     078F                     u5295:
  6047     078F  1C03               	skipc
  6048     0790  2F92               	goto	u5291
  6049     0791  2F93               	goto	u5290
  6050     0792                     u5291:
  6051     0792  2F9E               	goto	l3848
  6052     0793                     u5290:
  6053     0793                     l3846:
  6054     0793  307F               	movlw	127
  6055     0794  1283               	bcf	3,5	;RP0=0, select bank0
  6056     0795  1303               	bcf	3,6	;RP1=0, select bank0
  6057     0796  00BC               	movwf	___flmul@prod+3
  6058     0797  3080               	movlw	128
  6059     0798  00BB               	movwf	___flmul@prod+2
  6060     0799  3000               	movlw	0
  6061     079A  00BA               	movwf	___flmul@prod+1
  6062     079B  3000               	movlw	0
  6063     079C  00B9               	movwf	___flmul@prod
  6064     079D  2FCF               	goto	l3862
  6065     079E                     l3848:
  6066     079E  1283               	bcf	3,5	;RP0=0, select bank0
  6067     079F  1303               	bcf	3,6	;RP1=0, select bank0
  6068     07A0  083E               	movf	___flmul@temp+1,w
  6069     07A1  3A80               	xorlw	128
  6070     07A2  00FF               	movwf	btemp+1
  6071     07A3  3080               	movlw	128
  6072     07A4  027F               	subwf	btemp+1,w
  6073     07A5  1D03               	skipz
  6074     07A6  2FA9               	goto	u5305
  6075     07A7  3001               	movlw	1
  6076     07A8  023D               	subwf	___flmul@temp,w
  6077     07A9                     u5305:
  6078     07A9  1803               	skipnc
  6079     07AA  2FAC               	goto	u5301
  6080     07AB  2FAD               	goto	u5300
  6081     07AC                     u5301:
  6082     07AC  2FB9               	goto	l3854
  6083     07AD                     u5300:
  6084     07AD                     l3850:
  6085     07AD  3000               	movlw	0
  6086     07AE  1283               	bcf	3,5	;RP0=0, select bank0
  6087     07AF  1303               	bcf	3,6	;RP1=0, select bank0
  6088     07B0  00BC               	movwf	___flmul@prod+3
  6089     07B1  3000               	movlw	0
  6090     07B2  00BB               	movwf	___flmul@prod+2
  6091     07B3  3000               	movlw	0
  6092     07B4  00BA               	movwf	___flmul@prod+1
  6093     07B5  3000               	movlw	0
  6094     07B6  00B9               	movwf	___flmul@prod
  6095     07B7                     l3852:
  6096     07B7  01B2               	clrf	___flmul@sign
  6097     07B8  2FCF               	goto	l3862
  6098     07B9                     l3854:
  6099     07B9  1283               	bcf	3,5	;RP0=0, select bank0
  6100     07BA  1303               	bcf	3,6	;RP1=0, select bank0
  6101     07BB  083D               	movf	___flmul@temp,w
  6102     07BC  00B8               	movwf	___flmul@bexp
  6103     07BD  30FF               	movlw	255
  6104     07BE  05B9               	andwf	___flmul@prod,f
  6105     07BF  30FF               	movlw	255
  6106     07C0  05BA               	andwf	___flmul@prod+1,f
  6107     07C1  307F               	movlw	127
  6108     07C2  05BB               	andwf	___flmul@prod+2,f
  6109     07C3  3000               	movlw	0
  6110     07C4  05BC               	andwf	___flmul@prod+3,f
  6111     07C5                     l3856:
  6112     07C5  1C38               	btfss	___flmul@bexp,0
  6113     07C6  2FC8               	goto	u5311
  6114     07C7  2FC9               	goto	u5310
  6115     07C8                     u5311:
  6116     07C8  2FCA               	goto	l3860
  6117     07C9                     u5310:
  6118     07C9                     l3858:
  6119     07C9  17BB               	bsf	___flmul@prod+2,7
  6120     07CA                     l3860:
  6121     07CA  0838               	movf	___flmul@bexp,w
  6122     07CB  00AD               	movwf	??___flmul
  6123     07CC  1003               	clrc
  6124     07CD  0C2D               	rrf	??___flmul,w
  6125     07CE  00BC               	movwf	___flmul@prod+3
  6126     07CF                     l3862:
  6127     07CF  0832               	movf	___flmul@sign,w
  6128     07D0  00FF               	movwf	btemp+1
  6129     07D1  087F               	movf	btemp+1,w
  6130     07D2  04BC               	iorwf	___flmul@prod+3,f
  6131     07D3                     l3864:
  6132     07D3  083C               	movf	___flmul@prod+3,w
  6133     07D4  00A8               	movwf	?___flmul+3
  6134     07D5  083B               	movf	___flmul@prod+2,w
  6135     07D6  00A7               	movwf	?___flmul+2
  6136     07D7  083A               	movf	___flmul@prod+1,w
  6137     07D8  00A6               	movwf	?___flmul+1
  6138     07D9  0839               	movf	___flmul@prod,w
  6139     07DA  00A5               	movwf	?___flmul
  6140     07DB                     l802:
  6141     07DB  0008               	return
  6142     07DC                     __end_of___flmul:
  6143                           
  6144                           	psect	text19
  6145     1335                     __ptext19:	
  6146 ;; *************** function __Umul8_16 *****************
  6147 ;; Defined at:
  6148 ;;		line 4 in file "C:\Program Files\Microchip\xc8\v2.41\pic\sources\c90\common\Umul8_16.c"
  6149 ;; Parameters:    Size  Location     Type
  6150 ;;  multiplier      1    wreg     unsigned char 
  6151 ;;  multiplicand    1    0[COMMON] unsigned char 
  6152 ;; Auto vars:     Size  Location     Type
  6153 ;;  multiplier      1    8[COMMON] unsigned char 
  6154 ;;  word_mpld       2    6[COMMON] unsigned int 
  6155 ;;  product         2    4[COMMON] unsigned int 
  6156 ;; Return value:  Size  Location     Type
  6157 ;;                  2    0[COMMON] unsigned int 
  6158 ;; Registers used:
  6159 ;;		wreg, status,2, status,0
  6160 ;; Tracked objects:
  6161 ;;		On entry : 0/0
  6162 ;;		On exit  : 0/0
  6163 ;;		Unchanged: 0/0
  6164 ;; Data sizes:     COMMON   BANK0   BANK1   BANK3   BANK2
  6165 ;;      Params:         2       0       0       0       0
  6166 ;;      Locals:         5       0       0       0       0
  6167 ;;      Temps:          2       0       0       0       0
  6168 ;;      Totals:         9       0       0       0       0
  6169 ;;Total ram usage:        9 bytes
  6170 ;; Hardware stack levels used: 1
  6171 ;; This function calls:
  6172 ;;		Nothing
  6173 ;; This function is called by:
  6174 ;;		___flmul
  6175 ;; This function uses a non-reentrant model
  6176 ;;
  6177                           
  6178     1335                     __Umul8_16:	
  6179                           ;psect for function __Umul8_16
  6180                           
  6181                           
  6182                           ;incstack = 0
  6183                           ; Regs used in __Umul8_16: [wreg+status,2+status,0]
  6184                           ;__Umul8_16@multiplier stored from wreg
  6185     1335  00F8               	movwf	__Umul8_16@multiplier
  6186     1336                     l3500:
  6187     1336  01F4               	clrf	__Umul8_16@product
  6188     1337  01F5               	clrf	__Umul8_16@product+1
  6189     1338                     l3502:
  6190     1338  0870               	movf	__Umul8_16@multiplicand,w
  6191     1339  00F2               	movwf	??__Umul8_16
  6192     133A  01F3               	clrf	??__Umul8_16+1
  6193     133B  0872               	movf	??__Umul8_16,w
  6194     133C  00F6               	movwf	__Umul8_16@word_mpld
  6195     133D  0873               	movf	??__Umul8_16+1,w
  6196     133E  00F7               	movwf	__Umul8_16@word_mpld+1
  6197     133F                     l3504:
  6198     133F  1C78               	btfss	__Umul8_16@multiplier,0
  6199     1340  2B42               	goto	u4431
  6200     1341  2B43               	goto	u4430
  6201     1342                     u4431:
  6202     1342  2B49               	goto	l821
  6203     1343                     u4430:
  6204     1343                     l3506:
  6205     1343  0876               	movf	__Umul8_16@word_mpld,w
  6206     1344  07F4               	addwf	__Umul8_16@product,f
  6207     1345  1803               	skipnc
  6208     1346  0AF5               	incf	__Umul8_16@product+1,f
  6209     1347  0877               	movf	__Umul8_16@word_mpld+1,w
  6210     1348  07F5               	addwf	__Umul8_16@product+1,f
  6211     1349                     l821:
  6212     1349  3001               	movlw	1
  6213     134A                     u4445:
  6214     134A  1003               	clrc
  6215     134B  0DF6               	rlf	__Umul8_16@word_mpld,f
  6216     134C  0DF7               	rlf	__Umul8_16@word_mpld+1,f
  6217     134D  3EFF               	addlw	-1
  6218     134E  1D03               	skipz
  6219     134F  2B4A               	goto	u4445
  6220     1350  1003               	clrc
  6221     1351  0CF8               	rrf	__Umul8_16@multiplier,f
  6222     1352                     l3508:
  6223     1352  0878               	movf	__Umul8_16@multiplier,w
  6224     1353  1D03               	btfss	3,2
  6225     1354  2B56               	goto	u4451
  6226     1355  2B57               	goto	u4450
  6227     1356                     u4451:
  6228     1356  2B3F               	goto	l3504
  6229     1357                     u4450:
  6230     1357                     l3510:
  6231     1357  0875               	movf	__Umul8_16@product+1,w
  6232     1358  00F1               	movwf	?__Umul8_16+1
  6233     1359  0874               	movf	__Umul8_16@product,w
  6234     135A  00F0               	movwf	?__Umul8_16
  6235     135B                     l823:
  6236     135B  0008               	return
  6237     135C                     __end_of__Umul8_16:
  6238                           
  6239                           	psect	text20
  6240     023F                     __ptext20:	
  6241 ;; *************** function ___fladd *****************
  6242 ;; Defined at:
  6243 ;;		line 10 in file "C:\Program Files\Microchip\xc8\v2.41\pic\sources\c90\common\sprcadd.c"
  6244 ;; Parameters:    Size  Location     Type
  6245 ;;  b               4   57[BANK0 ] unsigned int 
  6246 ;;  a               4   61[BANK0 ] unsigned int 
  6247 ;; Auto vars:     Size  Location     Type
  6248 ;;  grs             1   76[BANK0 ] unsigned char 
  6249 ;;  bexp            1   75[BANK0 ] unsigned char 
  6250 ;;  aexp            1   74[BANK0 ] unsigned char 
  6251 ;;  signs           1   73[BANK0 ] unsigned char 
  6252 ;; Return value:  Size  Location     Type
  6253 ;;                  4   57[BANK0 ] unsigned char 
  6254 ;; Registers used:
  6255 ;;		wreg, status,2, status,0, btemp+1
  6256 ;; Tracked objects:
  6257 ;;		On entry : 0/0
  6258 ;;		On exit  : 0/0
  6259 ;;		Unchanged: 0/0
  6260 ;; Data sizes:     COMMON   BANK0   BANK1   BANK3   BANK2
  6261 ;;      Params:         0       8       0       0       0
  6262 ;;      Locals:         0       4       0       0       0
  6263 ;;      Temps:          0       8       0       0       0
  6264 ;;      Totals:         0      20       0       0       0
  6265 ;;Total ram usage:       20 bytes
  6266 ;; Hardware stack levels used: 1
  6267 ;; This function calls:
  6268 ;;		Nothing
  6269 ;; This function is called by:
  6270 ;;		_Calculus_Temperature
  6271 ;;		_log
  6272 ;;		_eval_poly
  6273 ;; This function uses a non-reentrant model
  6274 ;;
  6275                           
  6276     023F                     ___fladd:	
  6277                           ;psect for function ___fladd
  6278                           
  6279     023F                     l3526:	
  6280                           ;incstack = 0
  6281                           ; Regs used in ___fladd: [wreg+status,2+status,0+btemp+1]
  6282                           
  6283     023F  1283               	bcf	3,5	;RP0=0, select bank0
  6284     0240  1303               	bcf	3,6	;RP1=0, select bank0
  6285     0241  085C               	movf	___fladd@b+3,w
  6286     0242  3980               	andlw	128
  6287     0243  00E9               	movwf	___fladd@signs
  6288     0244                     l3528:
  6289     0244  085C               	movf	___fladd@b+3,w
  6290     0245  00E1               	movwf	??___fladd
  6291     0246  0761               	addwf	??___fladd,w
  6292     0247  00EB               	movwf	___fladd@bexp
  6293     0248                     l3530:
  6294     0248  1FDB               	btfss	___fladd@b+2,7
  6295     0249  2A4B               	goto	u4491
  6296     024A  2A4C               	goto	u4490
  6297     024B                     u4491:
  6298     024B  2A4D               	goto	l3534
  6299     024C                     u4490:
  6300     024C                     l3532:
  6301     024C  146B               	bsf	___fladd@bexp,0
  6302     024D                     l3534:
  6303     024D  086B               	movf	___fladd@bexp,w
  6304     024E  1903               	btfsc	3,2
  6305     024F  2A51               	goto	u4501
  6306     0250  2A52               	goto	u4500
  6307     0251                     u4501:
  6308     0251  2A62               	goto	l3544
  6309     0252                     u4500:
  6310     0252                     l3536:
  6311     0252  0A6B               	incf	___fladd@bexp,w
  6312     0253  1D03               	btfss	3,2
  6313     0254  2A56               	goto	u4511
  6314     0255  2A57               	goto	u4510
  6315     0256                     u4511:
  6316     0256  2A5F               	goto	l3540
  6317     0257                     u4510:
  6318     0257                     l3538:
  6319     0257  3000               	movlw	0
  6320     0258  00DC               	movwf	___fladd@b+3
  6321     0259  3000               	movlw	0
  6322     025A  00DB               	movwf	___fladd@b+2
  6323     025B  3000               	movlw	0
  6324     025C  00DA               	movwf	___fladd@b+1
  6325     025D  3000               	movlw	0
  6326     025E  00D9               	movwf	___fladd@b
  6327     025F                     l3540:
  6328     025F  17DB               	bsf	___fladd@b+2,7
  6329     0260                     l3542:
  6330     0260  01DC               	clrf	___fladd@b+3
  6331     0261  2A6A               	goto	l3546
  6332     0262                     l3544:
  6333     0262  3000               	movlw	0
  6334     0263  00DC               	movwf	___fladd@b+3
  6335     0264  3000               	movlw	0
  6336     0265  00DB               	movwf	___fladd@b+2
  6337     0266  3000               	movlw	0
  6338     0267  00DA               	movwf	___fladd@b+1
  6339     0268  3000               	movlw	0
  6340     0269  00D9               	movwf	___fladd@b
  6341     026A                     l3546:
  6342     026A  0860               	movf	___fladd@a+3,w
  6343     026B  3980               	andlw	128
  6344     026C  00EA               	movwf	___fladd@aexp
  6345     026D                     l3548:
  6346     026D  086A               	movf	___fladd@aexp,w
  6347     026E  0669               	xorwf	___fladd@signs,w
  6348     026F  1903               	skipnz
  6349     0270  2A72               	goto	u4521
  6350     0271  2A73               	goto	u4520
  6351     0272                     u4521:
  6352     0272  2A74               	goto	l3552
  6353     0273                     u4520:
  6354     0273                     l3550:
  6355     0273  1769               	bsf	___fladd@signs,6
  6356     0274                     l3552:
  6357     0274  0860               	movf	___fladd@a+3,w
  6358     0275  00E1               	movwf	??___fladd
  6359     0276  0761               	addwf	??___fladd,w
  6360     0277  00EA               	movwf	___fladd@aexp
  6361     0278                     l3554:
  6362     0278  1FDF               	btfss	___fladd@a+2,7
  6363     0279  2A7B               	goto	u4531
  6364     027A  2A7C               	goto	u4530
  6365     027B                     u4531:
  6366     027B  2A7D               	goto	l3558
  6367     027C                     u4530:
  6368     027C                     l3556:
  6369     027C  146A               	bsf	___fladd@aexp,0
  6370     027D                     l3558:
  6371     027D  086A               	movf	___fladd@aexp,w
  6372     027E  1903               	btfsc	3,2
  6373     027F  2A81               	goto	u4541
  6374     0280  2A82               	goto	u4540
  6375     0281                     u4541:
  6376     0281  2A92               	goto	l3568
  6377     0282                     u4540:
  6378     0282                     l3560:
  6379     0282  0A6A               	incf	___fladd@aexp,w
  6380     0283  1D03               	btfss	3,2
  6381     0284  2A86               	goto	u4551
  6382     0285  2A87               	goto	u4550
  6383     0286                     u4551:
  6384     0286  2A8F               	goto	l3564
  6385     0287                     u4550:
  6386     0287                     l3562:
  6387     0287  3000               	movlw	0
  6388     0288  00E0               	movwf	___fladd@a+3
  6389     0289  3000               	movlw	0
  6390     028A  00DF               	movwf	___fladd@a+2
  6391     028B  3000               	movlw	0
  6392     028C  00DE               	movwf	___fladd@a+1
  6393     028D  3000               	movlw	0
  6394     028E  00DD               	movwf	___fladd@a
  6395     028F                     l3564:
  6396     028F  17DF               	bsf	___fladd@a+2,7
  6397     0290                     l3566:
  6398     0290  01E0               	clrf	___fladd@a+3
  6399     0291  2A9A               	goto	l706
  6400     0292                     l3568:
  6401     0292  3000               	movlw	0
  6402     0293  00E0               	movwf	___fladd@a+3
  6403     0294  3000               	movlw	0
  6404     0295  00DF               	movwf	___fladd@a+2
  6405     0296  3000               	movlw	0
  6406     0297  00DE               	movwf	___fladd@a+1
  6407     0298  3000               	movlw	0
  6408     0299  00DD               	movwf	___fladd@a
  6409     029A                     l706:
  6410     029A  086B               	movf	___fladd@bexp,w
  6411     029B  026A               	subwf	___fladd@aexp,w
  6412     029C  1803               	skipnc
  6413     029D  2A9F               	goto	u4561
  6414     029E  2AA0               	goto	u4560
  6415     029F                     u4561:
  6416     029F  2AC6               	goto	l3604
  6417     02A0                     u4560:
  6418     02A0                     l3570:
  6419     02A0  1F69               	btfss	___fladd@signs,6
  6420     02A1  2AA3               	goto	u4571
  6421     02A2  2AA4               	goto	u4570
  6422     02A3                     u4571:
  6423     02A3  2AA8               	goto	l3574
  6424     02A4                     u4570:
  6425     02A4                     l3572:
  6426     02A4  3080               	movlw	128
  6427     02A5  00FF               	movwf	btemp+1
  6428     02A6  087F               	movf	btemp+1,w
  6429     02A7  06E9               	xorwf	___fladd@signs,f
  6430     02A8                     l3574:
  6431     02A8  086B               	movf	___fladd@bexp,w
  6432     02A9  00EC               	movwf	___fladd@grs
  6433     02AA                     l3576:
  6434     02AA  086A               	movf	___fladd@aexp,w
  6435     02AB  00EB               	movwf	___fladd@bexp
  6436     02AC                     l3578:
  6437     02AC  086C               	movf	___fladd@grs,w
  6438     02AD  00EA               	movwf	___fladd@aexp
  6439     02AE                     l3580:
  6440     02AE  0859               	movf	___fladd@b,w
  6441     02AF  00EC               	movwf	___fladd@grs
  6442     02B0                     l3582:
  6443     02B0  085D               	movf	___fladd@a,w
  6444     02B1  00D9               	movwf	___fladd@b
  6445     02B2                     l3584:
  6446     02B2  086C               	movf	___fladd@grs,w
  6447     02B3  00DD               	movwf	___fladd@a
  6448     02B4                     l3586:
  6449     02B4  085A               	movf	___fladd@b+1,w
  6450     02B5  00EC               	movwf	___fladd@grs
  6451     02B6                     l3588:
  6452     02B6  085E               	movf	___fladd@a+1,w
  6453     02B7  00DA               	movwf	___fladd@b+1
  6454     02B8                     l3590:
  6455     02B8  086C               	movf	___fladd@grs,w
  6456     02B9  00DE               	movwf	___fladd@a+1
  6457     02BA                     l3592:
  6458     02BA  085B               	movf	___fladd@b+2,w
  6459     02BB  00EC               	movwf	___fladd@grs
  6460     02BC                     l3594:
  6461     02BC  085F               	movf	___fladd@a+2,w
  6462     02BD  00DB               	movwf	___fladd@b+2
  6463     02BE                     l3596:
  6464     02BE  086C               	movf	___fladd@grs,w
  6465     02BF  00DF               	movwf	___fladd@a+2
  6466     02C0                     l3598:
  6467     02C0  085C               	movf	___fladd@b+3,w
  6468     02C1  00EC               	movwf	___fladd@grs
  6469     02C2                     l3600:
  6470     02C2  0860               	movf	___fladd@a+3,w
  6471     02C3  00DC               	movwf	___fladd@b+3
  6472     02C4                     l3602:
  6473     02C4  086C               	movf	___fladd@grs,w
  6474     02C5  00E0               	movwf	___fladd@a+3
  6475     02C6                     l3604:
  6476     02C6  01EC               	clrf	___fladd@grs
  6477     02C7                     l3606:
  6478     02C7  086A               	movf	___fladd@aexp,w
  6479     02C8  00E1               	movwf	??___fladd
  6480     02C9  01E2               	clrf	??___fladd+1
  6481     02CA  0862               	movf	??___fladd+1,w
  6482     02CB  00E4               	movwf	??___fladd+3
  6483     02CC  086B               	movf	___fladd@bexp,w
  6484     02CD  0261               	subwf	??___fladd,w
  6485     02CE  00E3               	movwf	??___fladd+2
  6486     02CF  1C03               	skipc
  6487     02D0  03E4               	decf	??___fladd+3,f
  6488     02D1  0864               	movf	??___fladd+3,w
  6489     02D2  3A80               	xorlw	128
  6490     02D3  00FF               	movwf	btemp+1
  6491     02D4  3080               	movlw	128
  6492     02D5  027F               	subwf	btemp+1,w
  6493     02D6  1D03               	skipz
  6494     02D7  2ADA               	goto	u4585
  6495     02D8  301A               	movlw	26
  6496     02D9  0263               	subwf	??___fladd+2,w
  6497     02DA                     u4585:
  6498     02DA  1C03               	skipc
  6499     02DB  2ADD               	goto	u4581
  6500     02DC  2ADE               	goto	u4580
  6501     02DD                     u4581:
  6502     02DD  2B15               	goto	l3622
  6503     02DE                     u4580:
  6504     02DE                     l3608:
  6505     02DE  1283               	bcf	3,5	;RP0=0, select bank0
  6506     02DF  1303               	bcf	3,6	;RP1=0, select bank0
  6507     02E0  085C               	movf	___fladd@b+3,w
  6508     02E1  045B               	iorwf	___fladd@b+2,w
  6509     02E2  045A               	iorwf	___fladd@b+1,w
  6510     02E3  0459               	iorwf	___fladd@b,w
  6511     02E4  1D03               	skipz
  6512     02E5  2AE7               	goto	u4591
  6513     02E6  2AE9               	goto	u4590
  6514     02E7                     u4591:
  6515     02E7  3001               	movlw	1
  6516     02E8  2AEA               	goto	u4600
  6517     02E9                     u4590:
  6518     02E9  3000               	movlw	0
  6519     02EA                     u4600:
  6520     02EA  00EC               	movwf	___fladd@grs
  6521     02EB  3000               	movlw	0
  6522     02EC  00DC               	movwf	___fladd@b+3
  6523     02ED  3000               	movlw	0
  6524     02EE  00DB               	movwf	___fladd@b+2
  6525     02EF  3000               	movlw	0
  6526     02F0  00DA               	movwf	___fladd@b+1
  6527     02F1  3000               	movlw	0
  6528     02F2  00D9               	movwf	___fladd@b
  6529     02F3  086A               	movf	___fladd@aexp,w
  6530     02F4  00EB               	movwf	___fladd@bexp
  6531     02F5  2B1D               	goto	l710
  6532     02F6                     l712:
  6533     02F6  1C6C               	btfss	___fladd@grs,0
  6534     02F7  2AF9               	goto	u4611
  6535     02F8  2AFA               	goto	u4610
  6536     02F9                     u4611:
  6537     02F9  2B01               	goto	l3612
  6538     02FA                     u4610:
  6539     02FA                     l3610:
  6540     02FA  086C               	movf	___fladd@grs,w
  6541     02FB  00E1               	movwf	??___fladd
  6542     02FC  1003               	clrc
  6543     02FD  0C61               	rrf	??___fladd,w
  6544     02FE  3801               	iorlw	1
  6545     02FF  00EC               	movwf	___fladd@grs
  6546     0300  2B03               	goto	l3614
  6547     0301                     l3612:
  6548     0301  1003               	clrc
  6549     0302  0CEC               	rrf	___fladd@grs,f
  6550     0303                     l3614:
  6551     0303  1C59               	btfss	___fladd@b,0
  6552     0304  2B06               	goto	u4621
  6553     0305  2B07               	goto	u4620
  6554     0306                     u4621:
  6555     0306  2B08               	goto	l3618
  6556     0307                     u4620:
  6557     0307                     l3616:
  6558     0307  17EC               	bsf	___fladd@grs,7
  6559     0308                     l3618:
  6560     0308  3001               	movlw	1
  6561     0309  00E1               	movwf	??___fladd
  6562     030A                     u4635:
  6563     030A  0D5C               	rlf	___fladd@b+3,w
  6564     030B  0CDC               	rrf	___fladd@b+3,f
  6565     030C  0CDB               	rrf	___fladd@b+2,f
  6566     030D  0CDA               	rrf	___fladd@b+1,f
  6567     030E  0CD9               	rrf	___fladd@b,f
  6568     030F  0BE1               	decfsz	??___fladd& (0+127),f
  6569     0310  2B0A               	goto	u4635
  6570     0311                     l3620:
  6571     0311  3001               	movlw	1
  6572     0312  00FF               	movwf	btemp+1
  6573     0313  087F               	movf	btemp+1,w
  6574     0314  07EB               	addwf	___fladd@bexp,f
  6575     0315                     l3622:
  6576     0315  1283               	bcf	3,5	;RP0=0, select bank0
  6577     0316  1303               	bcf	3,6	;RP1=0, select bank0
  6578     0317  086A               	movf	___fladd@aexp,w
  6579     0318  026B               	subwf	___fladd@bexp,w
  6580     0319  1C03               	skipc
  6581     031A  2B1C               	goto	u4641
  6582     031B  2B1D               	goto	u4640
  6583     031C                     u4641:
  6584     031C  2AF6               	goto	l712
  6585     031D                     u4640:
  6586     031D                     l710:
  6587     031D  1B69               	btfsc	___fladd@signs,6
  6588     031E  2B20               	goto	u4651
  6589     031F  2B21               	goto	u4650
  6590     0320                     u4651:
  6591     0320  2B6A               	goto	l3648
  6592     0321                     u4650:
  6593     0321                     l3624:
  6594     0321  086B               	movf	___fladd@bexp,w
  6595     0322  1D03               	btfss	3,2
  6596     0323  2B25               	goto	u4661
  6597     0324  2B26               	goto	u4660
  6598     0325                     u4661:
  6599     0325  2B2F               	goto	l3630
  6600     0326                     u4660:
  6601     0326                     l3626:
  6602     0326  3000               	movlw	0
  6603     0327  00DC               	movwf	?___fladd+3
  6604     0328  3000               	movlw	0
  6605     0329  00DB               	movwf	?___fladd+2
  6606     032A  3000               	movlw	0
  6607     032B  00DA               	movwf	?___fladd+1
  6608     032C  3000               	movlw	0
  6609     032D  00D9               	movwf	?___fladd
  6610     032E  2C96               	goto	l719
  6611     032F                     l3630:
  6612     032F  085D               	movf	___fladd@a,w
  6613     0330  07D9               	addwf	___fladd@b,f
  6614     0331  085E               	movf	___fladd@a+1,w
  6615     0332  1103               	clrz
  6616     0333  1803               	skipnc
  6617     0334  3E01               	addlw	1
  6618     0335  1903               	skipnz
  6619     0336  2B38               	goto	u4671
  6620     0337  07DA               	addwf	___fladd@b+1,f
  6621     0338                     u4671:
  6622     0338  085F               	movf	___fladd@a+2,w
  6623     0339  1103               	clrz
  6624     033A  1803               	skipnc
  6625     033B  3E01               	addlw	1
  6626     033C  1903               	skipnz
  6627     033D  2B3F               	goto	u4672
  6628     033E  07DB               	addwf	___fladd@b+2,f
  6629     033F                     u4672:
  6630     033F  0860               	movf	___fladd@a+3,w
  6631     0340  1103               	clrz
  6632     0341  1803               	skipnc
  6633     0342  3E01               	addlw	1
  6634     0343  1903               	skipnz
  6635     0344  2B46               	goto	u4673
  6636     0345  07DC               	addwf	___fladd@b+3,f
  6637     0346                     u4673:
  6638     0346                     l3632:
  6639     0346  1C5C               	btfss	___fladd@b+3,0
  6640     0347  2B49               	goto	u4681
  6641     0348  2B4A               	goto	u4680
  6642     0349                     u4681:
  6643     0349  2C1E               	goto	l3684
  6644     034A                     u4680:
  6645     034A                     l3634:
  6646     034A  1C6C               	btfss	___fladd@grs,0
  6647     034B  2B4D               	goto	u4691
  6648     034C  2B4E               	goto	u4690
  6649     034D                     u4691:
  6650     034D  2B55               	goto	l3638
  6651     034E                     u4690:
  6652     034E                     l3636:
  6653     034E  086C               	movf	___fladd@grs,w
  6654     034F  00E1               	movwf	??___fladd
  6655     0350  1003               	clrc
  6656     0351  0C61               	rrf	??___fladd,w
  6657     0352  3801               	iorlw	1
  6658     0353  00EC               	movwf	___fladd@grs
  6659     0354  2B57               	goto	l3640
  6660     0355                     l3638:
  6661     0355  1003               	clrc
  6662     0356  0CEC               	rrf	___fladd@grs,f
  6663     0357                     l3640:
  6664     0357  1C59               	btfss	___fladd@b,0
  6665     0358  2B5A               	goto	u4701
  6666     0359  2B5B               	goto	u4700
  6667     035A                     u4701:
  6668     035A  2B5C               	goto	l3644
  6669     035B                     u4700:
  6670     035B                     l3642:
  6671     035B  17EC               	bsf	___fladd@grs,7
  6672     035C                     l3644:
  6673     035C  3001               	movlw	1
  6674     035D  00E1               	movwf	??___fladd
  6675     035E                     u4715:
  6676     035E  0D5C               	rlf	___fladd@b+3,w
  6677     035F  0CDC               	rrf	___fladd@b+3,f
  6678     0360  0CDB               	rrf	___fladd@b+2,f
  6679     0361  0CDA               	rrf	___fladd@b+1,f
  6680     0362  0CD9               	rrf	___fladd@b,f
  6681     0363  0BE1               	decfsz	??___fladd& (0+127),f
  6682     0364  2B5E               	goto	u4715
  6683     0365                     l3646:
  6684     0365  3001               	movlw	1
  6685     0366  00FF               	movwf	btemp+1
  6686     0367  087F               	movf	btemp+1,w
  6687     0368  07EB               	addwf	___fladd@bexp,f
  6688     0369  2C1E               	goto	l3684
  6689     036A                     l3648:
  6690     036A  085C               	movf	___fladd@b+3,w
  6691     036B  3A80               	xorlw	128
  6692     036C  00FF               	movwf	btemp+1
  6693     036D  0860               	movf	___fladd@a+3,w
  6694     036E  3A80               	xorlw	128
  6695     036F  027F               	subwf	btemp+1,w
  6696     0370  1D03               	skipz
  6697     0371  2B7C               	goto	u4723
  6698     0372  085F               	movf	___fladd@a+2,w
  6699     0373  025B               	subwf	___fladd@b+2,w
  6700     0374  1D03               	skipz
  6701     0375  2B7C               	goto	u4723
  6702     0376  085E               	movf	___fladd@a+1,w
  6703     0377  025A               	subwf	___fladd@b+1,w
  6704     0378  1D03               	skipz
  6705     0379  2B7C               	goto	u4723
  6706     037A  085D               	movf	___fladd@a,w
  6707     037B  0259               	subwf	___fladd@b,w
  6708     037C                     u4723:
  6709     037C  1803               	skipnc
  6710     037D  2B7F               	goto	u4721
  6711     037E  2B80               	goto	u4720
  6712     037F                     u4721:
  6713     037F  2BD8               	goto	l3660
  6714     0380                     u4720:
  6715     0380                     l3650:
  6716     0380  30FF               	movlw	255
  6717     0381  00E1               	movwf	??___fladd
  6718     0382  30FF               	movlw	255
  6719     0383  00E2               	movwf	??___fladd+1
  6720     0384  30FF               	movlw	255
  6721     0385  00E3               	movwf	??___fladd+2
  6722     0386  30FF               	movlw	255
  6723     0387  00E4               	movwf	??___fladd+3
  6724     0388  085D               	movf	___fladd@a,w
  6725     0389  00E5               	movwf	??___fladd+4
  6726     038A  085E               	movf	___fladd@a+1,w
  6727     038B  00E6               	movwf	??___fladd+5
  6728     038C  085F               	movf	___fladd@a+2,w
  6729     038D  00E7               	movwf	??___fladd+6
  6730     038E  0860               	movf	___fladd@a+3,w
  6731     038F  00E8               	movwf	??___fladd+7
  6732     0390  0859               	movf	___fladd@b,w
  6733     0391  02E5               	subwf	??___fladd+4,f
  6734     0392  085A               	movf	___fladd@b+1,w
  6735     0393  1C03               	skipc
  6736     0394  0F5A               	incfsz	___fladd@b+1,w
  6737     0395  2B97               	goto	u4731
  6738     0396  2B98               	goto	u4732
  6739     0397                     u4731:
  6740     0397  02E6               	subwf	??___fladd+5,f
  6741     0398                     u4732:
  6742     0398  085B               	movf	___fladd@b+2,w
  6743     0399  1C03               	skipc
  6744     039A  0F5B               	incfsz	___fladd@b+2,w
  6745     039B  2B9D               	goto	u4733
  6746     039C  2B9E               	goto	u4734
  6747     039D                     u4733:
  6748     039D  02E7               	subwf	??___fladd+6,f
  6749     039E                     u4734:
  6750     039E  085C               	movf	___fladd@b+3,w
  6751     039F  1C03               	skipc
  6752     03A0  0F5C               	incfsz	___fladd@b+3,w
  6753     03A1  2BA3               	goto	u4735
  6754     03A2  2BA4               	goto	u4736
  6755     03A3                     u4735:
  6756     03A3  02E8               	subwf	??___fladd+7,f
  6757     03A4                     u4736:
  6758     03A4  0865               	movf	??___fladd+4,w
  6759     03A5  07E1               	addwf	??___fladd,f
  6760     03A6  0866               	movf	??___fladd+5,w
  6761     03A7  1803               	skipnc
  6762     03A8  0F66               	incfsz	??___fladd+5,w
  6763     03A9  2BAB               	goto	u4740
  6764     03AA  2BAC               	goto	u4741
  6765     03AB                     u4740:
  6766     03AB  07E2               	addwf	??___fladd+1,f
  6767     03AC                     u4741:
  6768     03AC  0867               	movf	??___fladd+6,w
  6769     03AD  1803               	skipnc
  6770     03AE  0F67               	incfsz	??___fladd+6,w
  6771     03AF  2BB1               	goto	u4742
  6772     03B0  2BB2               	goto	u4743
  6773     03B1                     u4742:
  6774     03B1  07E3               	addwf	??___fladd+2,f
  6775     03B2                     u4743:
  6776     03B2  0868               	movf	??___fladd+7,w
  6777     03B3  1803               	skipnc
  6778     03B4  0A68               	incf	??___fladd+7,w
  6779     03B5  07E4               	addwf	??___fladd+3,f
  6780     03B6  0864               	movf	??___fladd+3,w
  6781     03B7  00DC               	movwf	___fladd@b+3
  6782     03B8  0863               	movf	??___fladd+2,w
  6783     03B9  00DB               	movwf	___fladd@b+2
  6784     03BA  0862               	movf	??___fladd+1,w
  6785     03BB  00DA               	movwf	___fladd@b+1
  6786     03BC  0861               	movf	??___fladd,w
  6787     03BD  00D9               	movwf	___fladd@b
  6788     03BE                     l3652:
  6789     03BE  3080               	movlw	128
  6790     03BF  00FF               	movwf	btemp+1
  6791     03C0  087F               	movf	btemp+1,w
  6792     03C1  06E9               	xorwf	___fladd@signs,f
  6793     03C2                     l3654:
  6794     03C2  09EC               	comf	___fladd@grs,f
  6795     03C3  0AEC               	incf	___fladd@grs,f
  6796     03C4                     l3656:
  6797     03C4  086C               	movf	___fladd@grs,w
  6798     03C5  1D03               	btfss	3,2
  6799     03C6  2BC8               	goto	u4751
  6800     03C7  2BC9               	goto	u4750
  6801     03C8                     u4751:
  6802     03C8  2BE6               	goto	l727
  6803     03C9                     u4750:
  6804     03C9                     l3658:
  6805     03C9  3001               	movlw	1
  6806     03CA  07D9               	addwf	___fladd@b,f
  6807     03CB  3000               	movlw	0
  6808     03CC  1803               	skipnc
  6809     03CD  3001               	movlw	1
  6810     03CE  07DA               	addwf	___fladd@b+1,f
  6811     03CF  3000               	movlw	0
  6812     03D0  1803               	skipnc
  6813     03D1  3001               	movlw	1
  6814     03D2  07DB               	addwf	___fladd@b+2,f
  6815     03D3  3000               	movlw	0
  6816     03D4  1803               	skipnc
  6817     03D5  3001               	movlw	1
  6818     03D6  07DC               	addwf	___fladd@b+3,f
  6819     03D7  2BE6               	goto	l727
  6820     03D8                     l3660:
  6821     03D8  085D               	movf	___fladd@a,w
  6822     03D9  02D9               	subwf	___fladd@b,f
  6823     03DA  085E               	movf	___fladd@a+1,w
  6824     03DB  1C03               	skipc
  6825     03DC  0F5E               	incfsz	___fladd@a+1,w
  6826     03DD  02DA               	subwf	___fladd@b+1,f
  6827     03DE  085F               	movf	___fladd@a+2,w
  6828     03DF  1C03               	skipc
  6829     03E0  0F5F               	incfsz	___fladd@a+2,w
  6830     03E1  02DB               	subwf	___fladd@b+2,f
  6831     03E2  0860               	movf	___fladd@a+3,w
  6832     03E3  1C03               	skipc
  6833     03E4  0F60               	incfsz	___fladd@a+3,w
  6834     03E5  02DC               	subwf	___fladd@b+3,f
  6835     03E6                     l727:
  6836     03E6  085C               	movf	___fladd@b+3,w
  6837     03E7  045B               	iorwf	___fladd@b+2,w
  6838     03E8  045A               	iorwf	___fladd@b+1,w
  6839     03E9  0459               	iorwf	___fladd@b,w
  6840     03EA  1D03               	skipz
  6841     03EB  2BED               	goto	u4761
  6842     03EC  2BEE               	goto	u4760
  6843     03ED                     u4761:
  6844     03ED  2C1A               	goto	l3682
  6845     03EE                     u4760:
  6846     03EE                     l3662:
  6847     03EE  086C               	movf	___fladd@grs,w
  6848     03EF  1D03               	btfss	3,2
  6849     03F0  2BF2               	goto	u4771
  6850     03F1  2BF3               	goto	u4770
  6851     03F2                     u4771:
  6852     03F2  2C1A               	goto	l3682
  6853     03F3                     u4770:
  6854     03F3                     l3664:
  6855     03F3  3000               	movlw	0
  6856     03F4  00DC               	movwf	?___fladd+3
  6857     03F5  3000               	movlw	0
  6858     03F6  00DB               	movwf	?___fladd+2
  6859     03F7  3000               	movlw	0
  6860     03F8  00DA               	movwf	?___fladd+1
  6861     03F9  3000               	movlw	0
  6862     03FA  00D9               	movwf	?___fladd
  6863     03FB  2C96               	goto	l719
  6864     03FC                     l3668:
  6865     03FC  3001               	movlw	1
  6866     03FD  00E1               	movwf	??___fladd
  6867     03FE                     u4785:
  6868     03FE  1003               	clrc
  6869     03FF  0DD9               	rlf	___fladd@b,f
  6870     0400  0DDA               	rlf	___fladd@b+1,f
  6871     0401  0DDB               	rlf	___fladd@b+2,f
  6872     0402  0DDC               	rlf	___fladd@b+3,f
  6873     0403  0BE1               	decfsz	??___fladd,f
  6874     0404  2BFE               	goto	u4785
  6875     0405                     l3670:
  6876     0405  1FEC               	btfss	___fladd@grs,7
  6877     0406  2C08               	goto	u4791
  6878     0407  2C09               	goto	u4790
  6879     0408                     u4791:
  6880     0408  2C0A               	goto	l731
  6881     0409                     u4790:
  6882     0409                     l3672:
  6883     0409  1459               	bsf	___fladd@b,0
  6884     040A                     l731:
  6885     040A  1C6C               	btfss	___fladd@grs,0
  6886     040B  2C0D               	goto	u4801
  6887     040C  2C0E               	goto	u4800
  6888     040D                     u4801:
  6889     040D  2C11               	goto	l3676
  6890     040E                     u4800:
  6891     040E                     l3674:
  6892     040E  1403               	setc
  6893     040F  0DEC               	rlf	___fladd@grs,f
  6894     0410  2C13               	goto	l3678
  6895     0411                     l3676:
  6896     0411  1003               	clrc
  6897     0412  0DEC               	rlf	___fladd@grs,f
  6898     0413                     l3678:
  6899     0413  086B               	movf	___fladd@bexp,w
  6900     0414  1903               	btfsc	3,2
  6901     0415  2C17               	goto	u4811
  6902     0416  2C18               	goto	u4810
  6903     0417                     u4811:
  6904     0417  2C1A               	goto	l3682
  6905     0418                     u4810:
  6906     0418                     l3680:
  6907     0418  3001               	movlw	1
  6908     0419  02EB               	subwf	___fladd@bexp,f
  6909     041A                     l3682:
  6910     041A  1FDB               	btfss	___fladd@b+2,7
  6911     041B  2C1D               	goto	u4821
  6912     041C  2C1E               	goto	u4820
  6913     041D                     u4821:
  6914     041D  2BFC               	goto	l3668
  6915     041E                     u4820:
  6916     041E                     l3684:
  6917     041E  01EA               	clrf	___fladd@aexp
  6918     041F                     l3686:
  6919     041F  1FEC               	btfss	___fladd@grs,7
  6920     0420  2C22               	goto	u4831
  6921     0421  2C23               	goto	u4830
  6922     0422                     u4831:
  6923     0422  2C31               	goto	l3694
  6924     0423                     u4830:
  6925     0423                     l3688:
  6926     0423  086C               	movf	___fladd@grs,w
  6927     0424  397F               	andlw	127
  6928     0425  1903               	btfsc	3,2
  6929     0426  2C28               	goto	u4841
  6930     0427  2C29               	goto	u4840
  6931     0428                     u4841:
  6932     0428  2C2C               	goto	l737
  6933     0429                     u4840:
  6934     0429                     l3690:
  6935     0429  01EA               	clrf	___fladd@aexp
  6936     042A  0AEA               	incf	___fladd@aexp,f
  6937     042B  2C31               	goto	l3694
  6938     042C                     l737:
  6939     042C  1C59               	btfss	___fladd@b,0
  6940     042D  2C2F               	goto	u4851
  6941     042E  2C30               	goto	u4850
  6942     042F                     u4851:
  6943     042F  2C31               	goto	l3694
  6944     0430                     u4850:
  6945     0430  2C29               	goto	l3690
  6946     0431                     l3694:
  6947     0431  086A               	movf	___fladd@aexp,w
  6948     0432  1903               	btfsc	3,2
  6949     0433  2C35               	goto	u4861
  6950     0434  2C36               	goto	u4860
  6951     0435                     u4861:
  6952     0435  2C6A               	goto	l3704
  6953     0436                     u4860:
  6954     0436                     l3696:
  6955     0436  3001               	movlw	1
  6956     0437  07D9               	addwf	___fladd@b,f
  6957     0438  3000               	movlw	0
  6958     0439  1803               	skipnc
  6959     043A  3001               	movlw	1
  6960     043B  07DA               	addwf	___fladd@b+1,f
  6961     043C  3000               	movlw	0
  6962     043D  1803               	skipnc
  6963     043E  3001               	movlw	1
  6964     043F  07DB               	addwf	___fladd@b+2,f
  6965     0440  3000               	movlw	0
  6966     0441  1803               	skipnc
  6967     0442  3001               	movlw	1
  6968     0443  07DC               	addwf	___fladd@b+3,f
  6969     0444                     l3698:
  6970     0444  1C5C               	btfss	___fladd@b+3,0
  6971     0445  2C47               	goto	u4871
  6972     0446  2C48               	goto	u4870
  6973     0447                     u4871:
  6974     0447  2C6A               	goto	l3704
  6975     0448                     u4870:
  6976     0448                     l3700:
  6977     0448  0859               	movf	___fladd@b,w
  6978     0449  00E1               	movwf	??___fladd
  6979     044A  085A               	movf	___fladd@b+1,w
  6980     044B  00E2               	movwf	??___fladd+1
  6981     044C  085B               	movf	___fladd@b+2,w
  6982     044D  00E3               	movwf	??___fladd+2
  6983     044E  085C               	movf	___fladd@b+3,w
  6984     044F  00E4               	movwf	??___fladd+3
  6985     0450  3001               	movlw	1
  6986     0451  00E5               	movwf	??___fladd+4
  6987     0452                     u4885:
  6988     0452  0D64               	rlf	??___fladd+3,w
  6989     0453  0CE4               	rrf	??___fladd+3,f
  6990     0454  0CE3               	rrf	??___fladd+2,f
  6991     0455  0CE2               	rrf	??___fladd+1,f
  6992     0456  0CE1               	rrf	??___fladd,f
  6993     0457                     u4880:
  6994     0457  0BE5               	decfsz	??___fladd+4,f
  6995     0458  2C52               	goto	u4885
  6996     0459  0864               	movf	??___fladd+3,w
  6997     045A  00DC               	movwf	___fladd@b+3
  6998     045B  0863               	movf	??___fladd+2,w
  6999     045C  00DB               	movwf	___fladd@b+2
  7000     045D  0862               	movf	??___fladd+1,w
  7001     045E  00DA               	movwf	___fladd@b+1
  7002     045F  0861               	movf	??___fladd,w
  7003     0460  00D9               	movwf	___fladd@b
  7004     0461  0A6B               	incf	___fladd@bexp,w
  7005     0462  1903               	btfsc	3,2
  7006     0463  2C65               	goto	u4891
  7007     0464  2C66               	goto	u4890
  7008     0465                     u4891:
  7009     0465  2C6A               	goto	l3704
  7010     0466                     u4890:
  7011     0466                     l3702:
  7012     0466  3001               	movlw	1
  7013     0467  00FF               	movwf	btemp+1
  7014     0468  087F               	movf	btemp+1,w
  7015     0469  07EB               	addwf	___fladd@bexp,f
  7016     046A                     l3704:
  7017     046A  0A6B               	incf	___fladd@bexp,w
  7018     046B  1903               	btfsc	3,2
  7019     046C  2C6E               	goto	u4901
  7020     046D  2C6F               	goto	u4900
  7021     046E                     u4901:
  7022     046E  2C74               	goto	l3708
  7023     046F                     u4900:
  7024     046F                     l3706:
  7025     046F  086B               	movf	___fladd@bexp,w
  7026     0470  1D03               	btfss	3,2
  7027     0471  2C73               	goto	u4911
  7028     0472  2C74               	goto	u4910
  7029     0473                     u4911:
  7030     0473  2C82               	goto	l3714
  7031     0474                     u4910:
  7032     0474                     l3708:
  7033     0474  3000               	movlw	0
  7034     0475  00DC               	movwf	___fladd@b+3
  7035     0476  3000               	movlw	0
  7036     0477  00DB               	movwf	___fladd@b+2
  7037     0478  3000               	movlw	0
  7038     0479  00DA               	movwf	___fladd@b+1
  7039     047A  3000               	movlw	0
  7040     047B  00D9               	movwf	___fladd@b
  7041     047C                     l3710:
  7042     047C  086B               	movf	___fladd@bexp,w
  7043     047D  1D03               	btfss	3,2
  7044     047E  2C80               	goto	u4921
  7045     047F  2C81               	goto	u4920
  7046     0480                     u4921:
  7047     0480  2C82               	goto	l3714
  7048     0481                     u4920:
  7049     0481                     l3712:
  7050     0481  01E9               	clrf	___fladd@signs
  7051     0482                     l3714:
  7052     0482  1C6B               	btfss	___fladd@bexp,0
  7053     0483  2C85               	goto	u4931
  7054     0484  2C86               	goto	u4930
  7055     0485                     u4931:
  7056     0485  2C88               	goto	l3718
  7057     0486                     u4930:
  7058     0486                     l3716:
  7059     0486  17DB               	bsf	___fladd@b+2,7
  7060     0487  2C8C               	goto	l3720
  7061     0488                     l3718:
  7062     0488  307F               	movlw	127
  7063     0489  00FF               	movwf	btemp+1
  7064     048A  087F               	movf	btemp+1,w
  7065     048B  05DB               	andwf	___fladd@b+2,f
  7066     048C                     l3720:
  7067     048C  086B               	movf	___fladd@bexp,w
  7068     048D  00E1               	movwf	??___fladd
  7069     048E  1003               	clrc
  7070     048F  0C61               	rrf	??___fladd,w
  7071     0490  00DC               	movwf	___fladd@b+3
  7072     0491                     l3722:
  7073     0491  1FE9               	btfss	___fladd@signs,7
  7074     0492  2C94               	goto	u4941
  7075     0493  2C95               	goto	u4940
  7076     0494                     u4941:
  7077     0494  2C96               	goto	l749
  7078     0495                     u4940:
  7079     0495                     l3724:
  7080     0495  17DC               	bsf	___fladd@b+3,7
  7081     0496                     l749:
  7082     0496                     l719:
  7083     0496  0008               	return
  7084     0497                     __end_of___fladd:
  7085                           
  7086                           	psect	text21
  7087     09C9                     __ptext21:	
  7088 ;; *************** function ___xxtofl *****************
  7089 ;; Defined at:
  7090 ;;		line 10 in file "C:\Program Files\Microchip\xc8\v2.41\pic\sources\c90\common\xxtofl.c"
  7091 ;; Parameters:    Size  Location     Type
  7092 ;;  sign            1    wreg     unsigned char 
  7093 ;;  val             4    0[COMMON] long 
  7094 ;; Auto vars:     Size  Location     Type
  7095 ;;  sign            1    8[COMMON] unsigned char 
  7096 ;;  arg             4   10[COMMON] unsigned long 
  7097 ;;  exp             1    9[COMMON] unsigned char 
  7098 ;; Return value:  Size  Location     Type
  7099 ;;                  4    0[COMMON] unsigned char 
  7100 ;; Registers used:
  7101 ;;		wreg, status,2, status,0, btemp+1
  7102 ;; Tracked objects:
  7103 ;;		On entry : 0/0
  7104 ;;		On exit  : 0/0
  7105 ;;		Unchanged: 0/0
  7106 ;; Data sizes:     COMMON   BANK0   BANK1   BANK3   BANK2
  7107 ;;      Params:         4       0       0       0       0
  7108 ;;      Locals:         6       0       0       0       0
  7109 ;;      Temps:          4       0       0       0       0
  7110 ;;      Totals:        14       0       0       0       0
  7111 ;;Total ram usage:       14 bytes
  7112 ;; Hardware stack levels used: 1
  7113 ;; This function calls:
  7114 ;;		Nothing
  7115 ;; This function is called by:
  7116 ;;		_Calculus_Temperature
  7117 ;;		_log
  7118 ;; This function uses a non-reentrant model
  7119 ;;
  7120                           
  7121     09C9                     ___xxtofl:	
  7122                           ;psect for function ___xxtofl
  7123                           
  7124                           
  7125                           ;incstack = 0
  7126                           ; Regs used in ___xxtofl: [wreg+status,2+status,0+btemp+1]
  7127                           ;___xxtofl@sign stored from wreg
  7128     09C9  00F8               	movwf	___xxtofl@sign
  7129     09CA                     l3888:
  7130     09CA  0878               	movf	___xxtofl@sign,w
  7131     09CB  1903               	btfsc	3,2
  7132     09CC  29CE               	goto	u5391
  7133     09CD  29CF               	goto	u5390
  7134     09CE                     u5391:
  7135     09CE  29E3               	goto	l3894
  7136     09CF                     u5390:
  7137     09CF                     l3890:
  7138     09CF  1FF3               	btfss	___xxtofl@val+3,7
  7139     09D0  29D2               	goto	u5401
  7140     09D1  29D3               	goto	u5400
  7141     09D2                     u5401:
  7142     09D2  29E3               	goto	l3894
  7143     09D3                     u5400:
  7144     09D3                     l3892:
  7145     09D3  0970               	comf	___xxtofl@val,w
  7146     09D4  00FA               	movwf	___xxtofl@arg
  7147     09D5  0971               	comf	___xxtofl@val+1,w
  7148     09D6  00FB               	movwf	___xxtofl@arg+1
  7149     09D7  0972               	comf	___xxtofl@val+2,w
  7150     09D8  00FC               	movwf	___xxtofl@arg+2
  7151     09D9  0973               	comf	___xxtofl@val+3,w
  7152     09DA  00FD               	movwf	___xxtofl@arg+3
  7153     09DB  0AFA               	incf	___xxtofl@arg,f
  7154     09DC  1903               	skipnz
  7155     09DD  0AFB               	incf	___xxtofl@arg+1,f
  7156     09DE  1903               	skipnz
  7157     09DF  0AFC               	incf	___xxtofl@arg+2,f
  7158     09E0  1903               	skipnz
  7159     09E1  0AFD               	incf	___xxtofl@arg+3,f
  7160     09E2  29EB               	goto	l846
  7161     09E3                     l3894:
  7162     09E3  0873               	movf	___xxtofl@val+3,w
  7163     09E4  00FD               	movwf	___xxtofl@arg+3
  7164     09E5  0872               	movf	___xxtofl@val+2,w
  7165     09E6  00FC               	movwf	___xxtofl@arg+2
  7166     09E7  0871               	movf	___xxtofl@val+1,w
  7167     09E8  00FB               	movwf	___xxtofl@arg+1
  7168     09E9  0870               	movf	___xxtofl@val,w
  7169     09EA  00FA               	movwf	___xxtofl@arg
  7170     09EB                     l846:
  7171     09EB  0873               	movf	___xxtofl@val+3,w
  7172     09EC  0472               	iorwf	___xxtofl@val+2,w
  7173     09ED  0471               	iorwf	___xxtofl@val+1,w
  7174     09EE  0470               	iorwf	___xxtofl@val,w
  7175     09EF  1D03               	skipz
  7176     09F0  29F2               	goto	u5411
  7177     09F1  29F3               	goto	u5410
  7178     09F2                     u5411:
  7179     09F2  29FC               	goto	l3900
  7180     09F3                     u5410:
  7181     09F3                     l3896:
  7182     09F3  3000               	movlw	0
  7183     09F4  00F3               	movwf	?___xxtofl+3
  7184     09F5  3000               	movlw	0
  7185     09F6  00F2               	movwf	?___xxtofl+2
  7186     09F7  3000               	movlw	0
  7187     09F8  00F1               	movwf	?___xxtofl+1
  7188     09F9  3000               	movlw	0
  7189     09FA  00F0               	movwf	?___xxtofl
  7190     09FB  2A80               	goto	l848
  7191     09FC                     l3900:
  7192     09FC  3096               	movlw	150
  7193     09FD  00F9               	movwf	___xxtofl@exp
  7194     09FE  2A0C               	goto	l3906
  7195     09FF                     l3902:
  7196     09FF  3001               	movlw	1
  7197     0A00  00FF               	movwf	btemp+1
  7198     0A01  087F               	movf	btemp+1,w
  7199     0A02  07F9               	addwf	___xxtofl@exp,f
  7200     0A03                     l3904:
  7201     0A03  3001               	movlw	1
  7202     0A04                     u5425:
  7203     0A04  1003               	clrc
  7204     0A05  0CFD               	rrf	___xxtofl@arg+3,f
  7205     0A06  0CFC               	rrf	___xxtofl@arg+2,f
  7206     0A07  0CFB               	rrf	___xxtofl@arg+1,f
  7207     0A08  0CFA               	rrf	___xxtofl@arg,f
  7208     0A09  3EFF               	addlw	-1
  7209     0A0A  1D03               	skipz
  7210     0A0B  2A04               	goto	u5425
  7211     0A0C                     l3906:
  7212     0A0C  30FE               	movlw	254
  7213     0A0D  057D               	andwf	___xxtofl@arg+3,w
  7214     0A0E  1D03               	btfss	3,2
  7215     0A0F  2A11               	goto	u5431
  7216     0A10  2A12               	goto	u5430
  7217     0A11                     u5431:
  7218     0A11  29FF               	goto	l3902
  7219     0A12                     u5430:
  7220     0A12  2A2E               	goto	l3914
  7221     0A13                     l3908:
  7222     0A13  3001               	movlw	1
  7223     0A14  00FF               	movwf	btemp+1
  7224     0A15  087F               	movf	btemp+1,w
  7225     0A16  07F9               	addwf	___xxtofl@exp,f
  7226     0A17                     l3910:
  7227     0A17  3001               	movlw	1
  7228     0A18  07FA               	addwf	___xxtofl@arg,f
  7229     0A19  3000               	movlw	0
  7230     0A1A  1803               	skipnc
  7231     0A1B  3001               	movlw	1
  7232     0A1C  07FB               	addwf	___xxtofl@arg+1,f
  7233     0A1D  3000               	movlw	0
  7234     0A1E  1803               	skipnc
  7235     0A1F  3001               	movlw	1
  7236     0A20  07FC               	addwf	___xxtofl@arg+2,f
  7237     0A21  3000               	movlw	0
  7238     0A22  1803               	skipnc
  7239     0A23  3001               	movlw	1
  7240     0A24  07FD               	addwf	___xxtofl@arg+3,f
  7241     0A25                     l3912:
  7242     0A25  3001               	movlw	1
  7243     0A26                     u5445:
  7244     0A26  1003               	clrc
  7245     0A27  0CFD               	rrf	___xxtofl@arg+3,f
  7246     0A28  0CFC               	rrf	___xxtofl@arg+2,f
  7247     0A29  0CFB               	rrf	___xxtofl@arg+1,f
  7248     0A2A  0CFA               	rrf	___xxtofl@arg,f
  7249     0A2B  3EFF               	addlw	-1
  7250     0A2C  1D03               	skipz
  7251     0A2D  2A26               	goto	u5445
  7252     0A2E                     l3914:
  7253     0A2E  30FF               	movlw	255
  7254     0A2F  057D               	andwf	___xxtofl@arg+3,w
  7255     0A30  1D03               	btfss	3,2
  7256     0A31  2A33               	goto	u5451
  7257     0A32  2A34               	goto	u5450
  7258     0A33                     u5451:
  7259     0A33  2A13               	goto	l3908
  7260     0A34                     u5450:
  7261     0A34  2A40               	goto	l3918
  7262     0A35                     l3916:
  7263     0A35  3001               	movlw	1
  7264     0A36  02F9               	subwf	___xxtofl@exp,f
  7265     0A37  3001               	movlw	1
  7266     0A38  00F4               	movwf	??___xxtofl
  7267     0A39                     u5465:
  7268     0A39  1003               	clrc
  7269     0A3A  0DFA               	rlf	___xxtofl@arg,f
  7270     0A3B  0DFB               	rlf	___xxtofl@arg+1,f
  7271     0A3C  0DFC               	rlf	___xxtofl@arg+2,f
  7272     0A3D  0DFD               	rlf	___xxtofl@arg+3,f
  7273     0A3E  0BF4               	decfsz	??___xxtofl,f
  7274     0A3F  2A39               	goto	u5465
  7275     0A40                     l3918:
  7276     0A40  1BFC               	btfsc	___xxtofl@arg+2,7
  7277     0A41  2A43               	goto	u5471
  7278     0A42  2A44               	goto	u5470
  7279     0A43                     u5471:
  7280     0A43  2A4A               	goto	l859
  7281     0A44                     u5470:
  7282     0A44                     l3920:
  7283     0A44  3002               	movlw	2
  7284     0A45  0279               	subwf	___xxtofl@exp,w
  7285     0A46  1803               	skipnc
  7286     0A47  2A49               	goto	u5481
  7287     0A48  2A4A               	goto	u5480
  7288     0A49                     u5481:
  7289     0A49  2A35               	goto	l3916
  7290     0A4A                     u5480:
  7291     0A4A                     l859:
  7292     0A4A  1879               	btfsc	___xxtofl@exp,0
  7293     0A4B  2A4D               	goto	u5491
  7294     0A4C  2A4E               	goto	u5490
  7295     0A4D                     u5491:
  7296     0A4D  2A56               	goto	l860
  7297     0A4E                     u5490:
  7298     0A4E                     l3922:
  7299     0A4E  30FF               	movlw	255
  7300     0A4F  05FA               	andwf	___xxtofl@arg,f
  7301     0A50  30FF               	movlw	255
  7302     0A51  05FB               	andwf	___xxtofl@arg+1,f
  7303     0A52  307F               	movlw	127
  7304     0A53  05FC               	andwf	___xxtofl@arg+2,f
  7305     0A54  30FF               	movlw	255
  7306     0A55  05FD               	andwf	___xxtofl@arg+3,f
  7307     0A56                     l860:
  7308     0A56  1003               	clrc
  7309     0A57  0CF9               	rrf	___xxtofl@exp,f
  7310     0A58                     l3924:
  7311     0A58  0879               	movf	___xxtofl@exp,w
  7312     0A59  00F4               	movwf	??___xxtofl
  7313     0A5A  01F5               	clrf	??___xxtofl+1
  7314     0A5B  01F6               	clrf	??___xxtofl+2
  7315     0A5C  01F7               	clrf	??___xxtofl+3
  7316     0A5D  3018               	movlw	24
  7317     0A5E                     u5505:
  7318     0A5E  1003               	clrc
  7319     0A5F  0DF4               	rlf	??___xxtofl,f
  7320     0A60  0DF5               	rlf	??___xxtofl+1,f
  7321     0A61  0DF6               	rlf	??___xxtofl+2,f
  7322     0A62  0DF7               	rlf	??___xxtofl+3,f
  7323     0A63                     u5500:
  7324     0A63  3EFF               	addlw	-1
  7325     0A64  1D03               	skipz
  7326     0A65  2A5E               	goto	u5505
  7327     0A66  0874               	movf	??___xxtofl,w
  7328     0A67  04FA               	iorwf	___xxtofl@arg,f
  7329     0A68  0875               	movf	??___xxtofl+1,w
  7330     0A69  04FB               	iorwf	___xxtofl@arg+1,f
  7331     0A6A  0876               	movf	??___xxtofl+2,w
  7332     0A6B  04FC               	iorwf	___xxtofl@arg+2,f
  7333     0A6C  0877               	movf	??___xxtofl+3,w
  7334     0A6D  04FD               	iorwf	___xxtofl@arg+3,f
  7335     0A6E                     l3926:
  7336     0A6E  0878               	movf	___xxtofl@sign,w
  7337     0A6F  1903               	btfsc	3,2
  7338     0A70  2A72               	goto	u5511
  7339     0A71  2A73               	goto	u5510
  7340     0A72                     u5511:
  7341     0A72  2A78               	goto	l3932
  7342     0A73                     u5510:
  7343     0A73                     l3928:
  7344     0A73  1FF3               	btfss	___xxtofl@val+3,7
  7345     0A74  2A76               	goto	u5521
  7346     0A75  2A77               	goto	u5520
  7347     0A76                     u5521:
  7348     0A76  2A78               	goto	l3932
  7349     0A77                     u5520:
  7350     0A77                     l3930:
  7351     0A77  17FD               	bsf	___xxtofl@arg+3,7
  7352     0A78                     l3932:
  7353     0A78  087D               	movf	___xxtofl@arg+3,w
  7354     0A79  00F3               	movwf	?___xxtofl+3
  7355     0A7A  087C               	movf	___xxtofl@arg+2,w
  7356     0A7B  00F2               	movwf	?___xxtofl+2
  7357     0A7C  087B               	movf	___xxtofl@arg+1,w
  7358     0A7D  00F1               	movwf	?___xxtofl+1
  7359     0A7E  087A               	movf	___xxtofl@arg,w
  7360     0A7F  00F0               	movwf	?___xxtofl
  7361     0A80                     l848:
  7362     0A80  0008               	return
  7363     0A81                     __end_of___xxtofl:
  7364                           
  7365                           	psect	text22
  7366     16B2                     __ptext22:	
  7367 ;; *************** function ___flge *****************
  7368 ;; Defined at:
  7369 ;;		line 4 in file "C:\Program Files\Microchip\xc8\v2.41\pic\sources\c90\common\flge.c"
  7370 ;; Parameters:    Size  Location     Type
  7371 ;;  ff1             4    0[COMMON] unsigned char 
  7372 ;;  ff2             4    4[COMMON] unsigned char 
  7373 ;; Auto vars:     Size  Location     Type
  7374 ;;		None
  7375 ;; Return value:  Size  Location     Type
  7376 ;;		None               void
  7377 ;; Registers used:
  7378 ;;		wreg, status,2, status,0
  7379 ;; Tracked objects:
  7380 ;;		On entry : 0/0
  7381 ;;		On exit  : 0/0
  7382 ;;		Unchanged: 0/0
  7383 ;; Data sizes:     COMMON   BANK0   BANK1   BANK3   BANK2
  7384 ;;      Params:         8       0       0       0       0
  7385 ;;      Locals:         0       0       0       0       0
  7386 ;;      Temps:          4       0       0       0       0
  7387 ;;      Totals:        12       0       0       0       0
  7388 ;;Total ram usage:       12 bytes
  7389 ;; Hardware stack levels used: 1
  7390 ;; This function calls:
  7391 ;;		Nothing
  7392 ;; This function is called by:
  7393 ;;		_log
  7394 ;; This function uses a non-reentrant model
  7395 ;;
  7396                           
  7397     16B2                     ___flge:	
  7398                           ;psect for function ___flge
  7399                           
  7400     16B2                     l3868:	
  7401                           ;incstack = 0
  7402                           ; Regs used in ___flge: [wreg+status,2+status,0]
  7403                           
  7404     16B2  3000               	movlw	0
  7405     16B3  0570               	andwf	___flge@ff1,w
  7406     16B4  00F8               	movwf	??___flge
  7407     16B5  3000               	movlw	0
  7408     16B6  0571               	andwf	___flge@ff1+1,w
  7409     16B7  00F9               	movwf	??___flge+1
  7410     16B8  3080               	movlw	128
  7411     16B9  0572               	andwf	___flge@ff1+2,w
  7412     16BA  00FA               	movwf	??___flge+2
  7413     16BB  307F               	movlw	127
  7414     16BC  0573               	andwf	___flge@ff1+3,w
  7415     16BD  00FB               	movwf	??___flge+3
  7416     16BE  087B               	movf	??___flge+3,w
  7417     16BF  047A               	iorwf	??___flge+2,w
  7418     16C0  0479               	iorwf	??___flge+1,w
  7419     16C1  0478               	iorwf	??___flge,w
  7420     16C2  1D03               	skipz
  7421     16C3  2EC5               	goto	u5321
  7422     16C4  2EC6               	goto	u5320
  7423     16C5                     u5321:
  7424     16C5  2ECE               	goto	l587
  7425     16C6                     u5320:
  7426     16C6                     l3870:
  7427     16C6  3000               	movlw	0
  7428     16C7  00F3               	movwf	___flge@ff1+3
  7429     16C8  3000               	movlw	0
  7430     16C9  00F2               	movwf	___flge@ff1+2
  7431     16CA  3000               	movlw	0
  7432     16CB  00F1               	movwf	___flge@ff1+1
  7433     16CC  3000               	movlw	0
  7434     16CD  00F0               	movwf	___flge@ff1
  7435     16CE                     l587:
  7436     16CE  3000               	movlw	0
  7437     16CF  0574               	andwf	___flge@ff2,w
  7438     16D0  00F8               	movwf	??___flge
  7439     16D1  3000               	movlw	0
  7440     16D2  0575               	andwf	___flge@ff2+1,w
  7441     16D3  00F9               	movwf	??___flge+1
  7442     16D4  3080               	movlw	128
  7443     16D5  0576               	andwf	___flge@ff2+2,w
  7444     16D6  00FA               	movwf	??___flge+2
  7445     16D7  307F               	movlw	127
  7446     16D8  0577               	andwf	___flge@ff2+3,w
  7447     16D9  00FB               	movwf	??___flge+3
  7448     16DA  087B               	movf	??___flge+3,w
  7449     16DB  047A               	iorwf	??___flge+2,w
  7450     16DC  0479               	iorwf	??___flge+1,w
  7451     16DD  0478               	iorwf	??___flge,w
  7452     16DE  1D03               	skipz
  7453     16DF  2EE1               	goto	u5331
  7454     16E0  2EE2               	goto	u5330
  7455     16E1                     u5331:
  7456     16E1  2EEA               	goto	l3874
  7457     16E2                     u5330:
  7458     16E2                     l3872:
  7459     16E2  3000               	movlw	0
  7460     16E3  00F7               	movwf	___flge@ff2+3
  7461     16E4  3000               	movlw	0
  7462     16E5  00F6               	movwf	___flge@ff2+2
  7463     16E6  3000               	movlw	0
  7464     16E7  00F5               	movwf	___flge@ff2+1
  7465     16E8  3000               	movlw	0
  7466     16E9  00F4               	movwf	___flge@ff2
  7467     16EA                     l3874:
  7468     16EA  1FF3               	btfss	___flge@ff1+3,7
  7469     16EB  2EED               	goto	u5341
  7470     16EC  2EEE               	goto	u5340
  7471     16ED                     u5341:
  7472     16ED  2F12               	goto	l3878
  7473     16EE                     u5340:
  7474     16EE                     l3876:
  7475     16EE  3000               	movlw	0
  7476     16EF  00F8               	movwf	??___flge
  7477     16F0  3000               	movlw	0
  7478     16F1  00F9               	movwf	??___flge+1
  7479     16F2  3000               	movlw	0
  7480     16F3  00FA               	movwf	??___flge+2
  7481     16F4  3080               	movlw	128
  7482     16F5  00FB               	movwf	??___flge+3
  7483     16F6  0870               	movf	___flge@ff1,w
  7484     16F7  02F8               	subwf	??___flge,f
  7485     16F8  0871               	movf	___flge@ff1+1,w
  7486     16F9  1C03               	skipc
  7487     16FA  0F71               	incfsz	___flge@ff1+1,w
  7488     16FB  2EFD               	goto	u5351
  7489     16FC  2EFE               	goto	u5352
  7490     16FD                     u5351:
  7491     16FD  02F9               	subwf	??___flge+1,f
  7492     16FE                     u5352:
  7493     16FE  0872               	movf	___flge@ff1+2,w
  7494     16FF  1C03               	skipc
  7495     1700  0F72               	incfsz	___flge@ff1+2,w
  7496     1701  2F03               	goto	u5353
  7497     1702  2F04               	goto	u5354
  7498     1703                     u5353:
  7499     1703  02FA               	subwf	??___flge+2,f
  7500     1704                     u5354:
  7501     1704  0873               	movf	___flge@ff1+3,w
  7502     1705  1C03               	skipc
  7503     1706  0F73               	incfsz	___flge@ff1+3,w
  7504     1707  2F09               	goto	u5355
  7505     1708  2F0A               	goto	u5356
  7506     1709                     u5355:
  7507     1709  02FB               	subwf	??___flge+3,f
  7508     170A                     u5356:
  7509     170A  087B               	movf	??___flge+3,w
  7510     170B  00F3               	movwf	___flge@ff1+3
  7511     170C  087A               	movf	??___flge+2,w
  7512     170D  00F2               	movwf	___flge@ff1+2
  7513     170E  0879               	movf	??___flge+1,w
  7514     170F  00F1               	movwf	___flge@ff1+1
  7515     1710  0878               	movf	??___flge,w
  7516     1711  00F0               	movwf	___flge@ff1
  7517     1712                     l3878:
  7518     1712  1FF7               	btfss	___flge@ff2+3,7
  7519     1713  2F15               	goto	u5361
  7520     1714  2F16               	goto	u5360
  7521     1715                     u5361:
  7522     1715  2F3A               	goto	l590
  7523     1716                     u5360:
  7524     1716                     l3880:
  7525     1716  3000               	movlw	0
  7526     1717  00F8               	movwf	??___flge
  7527     1718  3000               	movlw	0
  7528     1719  00F9               	movwf	??___flge+1
  7529     171A  3000               	movlw	0
  7530     171B  00FA               	movwf	??___flge+2
  7531     171C  3080               	movlw	128
  7532     171D  00FB               	movwf	??___flge+3
  7533     171E  0874               	movf	___flge@ff2,w
  7534     171F  02F8               	subwf	??___flge,f
  7535     1720  0875               	movf	___flge@ff2+1,w
  7536     1721  1C03               	skipc
  7537     1722  0F75               	incfsz	___flge@ff2+1,w
  7538     1723  2F25               	goto	u5371
  7539     1724  2F26               	goto	u5372
  7540     1725                     u5371:
  7541     1725  02F9               	subwf	??___flge+1,f
  7542     1726                     u5372:
  7543     1726  0876               	movf	___flge@ff2+2,w
  7544     1727  1C03               	skipc
  7545     1728  0F76               	incfsz	___flge@ff2+2,w
  7546     1729  2F2B               	goto	u5373
  7547     172A  2F2C               	goto	u5374
  7548     172B                     u5373:
  7549     172B  02FA               	subwf	??___flge+2,f
  7550     172C                     u5374:
  7551     172C  0877               	movf	___flge@ff2+3,w
  7552     172D  1C03               	skipc
  7553     172E  0F77               	incfsz	___flge@ff2+3,w
  7554     172F  2F31               	goto	u5375
  7555     1730  2F32               	goto	u5376
  7556     1731                     u5375:
  7557     1731  02FB               	subwf	??___flge+3,f
  7558     1732                     u5376:
  7559     1732  087B               	movf	??___flge+3,w
  7560     1733  00F7               	movwf	___flge@ff2+3
  7561     1734  087A               	movf	??___flge+2,w
  7562     1735  00F6               	movwf	___flge@ff2+2
  7563     1736  0879               	movf	??___flge+1,w
  7564     1737  00F5               	movwf	___flge@ff2+1
  7565     1738  0878               	movf	??___flge,w
  7566     1739  00F4               	movwf	___flge@ff2
  7567     173A                     l590:
  7568     173A  3080               	movlw	128
  7569     173B  06F3               	xorwf	___flge@ff1+3,f
  7570     173C  3080               	movlw	128
  7571     173D  06F7               	xorwf	___flge@ff2+3,f
  7572     173E  0877               	movf	___flge@ff2+3,w
  7573     173F  0273               	subwf	___flge@ff1+3,w
  7574     1740  1D03               	skipz
  7575     1741  2F4C               	goto	u5385
  7576     1742  0876               	movf	___flge@ff2+2,w
  7577     1743  0272               	subwf	___flge@ff1+2,w
  7578     1744  1D03               	skipz
  7579     1745  2F4C               	goto	u5385
  7580     1746  0875               	movf	___flge@ff2+1,w
  7581     1747  0271               	subwf	___flge@ff1+1,w
  7582     1748  1D03               	skipz
  7583     1749  2F4C               	goto	u5385
  7584     174A  0874               	movf	___flge@ff2,w
  7585     174B  0270               	subwf	___flge@ff1,w
  7586     174C                     u5385:
  7587     174C  1803               	skipnc
  7588     174D  2F4F               	goto	u5381
  7589     174E  2F50               	goto	u5380
  7590     174F                     u5381:
  7591     174F  2F52               	goto	l3884
  7592     1750                     u5380:
  7593     1750                     l3882:
  7594     1750  1003               	clrc
  7595     1751  2F53               	goto	l591
  7596     1752                     l3884:
  7597     1752  1403               	setc
  7598     1753                     l591:
  7599     1753  0008               	return
  7600     1754                     __end_of___flge:
  7601                           
  7602                           	psect	text23
  7603     15BF                     __ptext23:	
  7604 ;; *************** function ___fltol *****************
  7605 ;; Defined at:
  7606 ;;		line 43 in file "C:\Program Files\Microchip\xc8\v2.41\pic\sources\c90\common\fltol.c"
  7607 ;; Parameters:    Size  Location     Type
  7608 ;;  f1              4    0[COMMON] unsigned char 
  7609 ;; Auto vars:     Size  Location     Type
  7610 ;;  exp1            1    9[COMMON] unsigned char 
  7611 ;;  sign1           1    8[COMMON] unsigned char 
  7612 ;; Return value:  Size  Location     Type
  7613 ;;                  4    0[COMMON] long 
  7614 ;; Registers used:
  7615 ;;		wreg, status,2, status,0, btemp+1
  7616 ;; Tracked objects:
  7617 ;;		On entry : 0/0
  7618 ;;		On exit  : 0/0
  7619 ;;		Unchanged: 0/0
  7620 ;; Data sizes:     COMMON   BANK0   BANK1   BANK3   BANK2
  7621 ;;      Params:         4       0       0       0       0
  7622 ;;      Locals:         2       0       0       0       0
  7623 ;;      Temps:          4       0       0       0       0
  7624 ;;      Totals:        10       0       0       0       0
  7625 ;;Total ram usage:       10 bytes
  7626 ;; Hardware stack levels used: 1
  7627 ;; This function calls:
  7628 ;;		Nothing
  7629 ;; This function is called by:
  7630 ;;		_Calculus_Temperature
  7631 ;; This function uses a non-reentrant model
  7632 ;;
  7633                           
  7634     15BF                     ___fltol:	
  7635                           ;psect for function ___fltol
  7636                           
  7637     15BF                     l2784:	
  7638                           ;incstack = 0
  7639                           ; Regs used in ___fltol: [wreg+status,2+status,0+btemp+1]
  7640                           
  7641     15BF  1003               	clrc
  7642     15C0  0D72               	rlf	___fltol@f1+2,w
  7643     15C1  0D73               	rlf	___fltol@f1+3,w
  7644     15C2  00F9               	movwf	___fltol@exp1
  7645     15C3  0879               	movf	___fltol@exp1,w
  7646     15C4  1D03               	btfss	3,2
  7647     15C5  2DC7               	goto	u3411
  7648     15C6  2DC8               	goto	u3410
  7649     15C7                     u3411:
  7650     15C7  2DD1               	goto	l2790
  7651     15C8                     u3410:
  7652     15C8                     l2786:
  7653     15C8  3000               	movlw	0
  7654     15C9  00F3               	movwf	?___fltol+3
  7655     15CA  3000               	movlw	0
  7656     15CB  00F2               	movwf	?___fltol+2
  7657     15CC  3000               	movlw	0
  7658     15CD  00F1               	movwf	?___fltol+1
  7659     15CE  3000               	movlw	0
  7660     15CF  00F0               	movwf	?___fltol
  7661     15D0  2E34               	goto	l599
  7662     15D1                     l2790:
  7663     15D1  0870               	movf	___fltol@f1,w
  7664     15D2  00F4               	movwf	??___fltol
  7665     15D3  0871               	movf	___fltol@f1+1,w
  7666     15D4  00F5               	movwf	??___fltol+1
  7667     15D5  0872               	movf	___fltol@f1+2,w
  7668     15D6  00F6               	movwf	??___fltol+2
  7669     15D7  0873               	movf	___fltol@f1+3,w
  7670     15D8  00F7               	movwf	??___fltol+3
  7671     15D9  301F               	movlw	31
  7672     15DA                     u3425:
  7673     15DA  1003               	clrc
  7674     15DB  0CF7               	rrf	??___fltol+3,f
  7675     15DC  0CF6               	rrf	??___fltol+2,f
  7676     15DD  0CF5               	rrf	??___fltol+1,f
  7677     15DE  0CF4               	rrf	??___fltol,f
  7678     15DF                     u3420:
  7679     15DF  3EFF               	addlw	-1
  7680     15E0  1D03               	skipz
  7681     15E1  2DDA               	goto	u3425
  7682     15E2  0874               	movf	??___fltol,w
  7683     15E3  00F8               	movwf	___fltol@sign1
  7684     15E4                     l2792:
  7685     15E4  17F2               	bsf	___fltol@f1+2,7
  7686     15E5                     l2794:
  7687     15E5  30FF               	movlw	255
  7688     15E6  05F0               	andwf	___fltol@f1,f
  7689     15E7  30FF               	movlw	255
  7690     15E8  05F1               	andwf	___fltol@f1+1,f
  7691     15E9  30FF               	movlw	255
  7692     15EA  05F2               	andwf	___fltol@f1+2,f
  7693     15EB  3000               	movlw	0
  7694     15EC  05F3               	andwf	___fltol@f1+3,f
  7695     15ED                     l2796:
  7696     15ED  3096               	movlw	150
  7697     15EE  02F9               	subwf	___fltol@exp1,f
  7698     15EF                     l2798:
  7699     15EF  1FF9               	btfss	___fltol@exp1,7
  7700     15F0  2DF2               	goto	u3431
  7701     15F1  2DF3               	goto	u3430
  7702     15F2                     u3431:
  7703     15F2  2E0D               	goto	l2810
  7704     15F3                     u3430:
  7705     15F3                     l2800:
  7706     15F3  0879               	movf	___fltol@exp1,w
  7707     15F4  3A80               	xorlw	128
  7708     15F5  3E97               	addlw	151
  7709     15F6  1803               	skipnc
  7710     15F7  2DF9               	goto	u3441
  7711     15F8  2DFA               	goto	u3440
  7712     15F9                     u3441:
  7713     15F9  2DFB               	goto	l2806
  7714     15FA                     u3440:
  7715     15FA  2DC8               	goto	l2786
  7716     15FB                     l2806:
  7717     15FB  3001               	movlw	1
  7718     15FC                     u3455:
  7719     15FC  1003               	clrc
  7720     15FD  0CF3               	rrf	___fltol@f1+3,f
  7721     15FE  0CF2               	rrf	___fltol@f1+2,f
  7722     15FF  0CF1               	rrf	___fltol@f1+1,f
  7723     1600  0CF0               	rrf	___fltol@f1,f
  7724     1601  3EFF               	addlw	-1
  7725     1602  1D03               	skipz
  7726     1603  2DFC               	goto	u3455
  7727     1604                     l2808:
  7728     1604  3001               	movlw	1
  7729     1605  00FF               	movwf	btemp+1
  7730     1606  087F               	movf	btemp+1,w
  7731     1607  07F9               	addwf	___fltol@exp1,f
  7732     1608  1D03               	btfss	3,2
  7733     1609  2E0B               	goto	u3461
  7734     160A  2E0C               	goto	u3460
  7735     160B                     u3461:
  7736     160B  2DFB               	goto	l2806
  7737     160C                     u3460:
  7738     160C  2E24               	goto	l2818
  7739     160D                     l2810:
  7740     160D  3020               	movlw	32
  7741     160E  0279               	subwf	___fltol@exp1,w
  7742     160F  1C03               	skipc
  7743     1610  2E12               	goto	u3471
  7744     1611  2E13               	goto	u3470
  7745     1612                     u3471:
  7746     1612  2E1F               	goto	l606
  7747     1613                     u3470:
  7748     1613  2DC8               	goto	l2786
  7749     1614                     l2816:
  7750     1614  3001               	movlw	1
  7751     1615  00F4               	movwf	??___fltol
  7752     1616                     u3485:
  7753     1616  1003               	clrc
  7754     1617  0DF0               	rlf	___fltol@f1,f
  7755     1618  0DF1               	rlf	___fltol@f1+1,f
  7756     1619  0DF2               	rlf	___fltol@f1+2,f
  7757     161A  0DF3               	rlf	___fltol@f1+3,f
  7758     161B  0BF4               	decfsz	??___fltol,f
  7759     161C  2E16               	goto	u3485
  7760     161D  3001               	movlw	1
  7761     161E  02F9               	subwf	___fltol@exp1,f
  7762     161F                     l606:
  7763     161F  0879               	movf	___fltol@exp1,w
  7764     1620  1D03               	btfss	3,2
  7765     1621  2E23               	goto	u3491
  7766     1622  2E24               	goto	u3490
  7767     1623                     u3491:
  7768     1623  2E14               	goto	l2816
  7769     1624                     u3490:
  7770     1624                     l2818:
  7771     1624  0878               	movf	___fltol@sign1,w
  7772     1625  1903               	btfsc	3,2
  7773     1626  2E28               	goto	u3501
  7774     1627  2E29               	goto	u3500
  7775     1628                     u3501:
  7776     1628  2E34               	goto	l609
  7777     1629                     u3500:
  7778     1629                     l2820:
  7779     1629  09F0               	comf	___fltol@f1,f
  7780     162A  09F1               	comf	___fltol@f1+1,f
  7781     162B  09F2               	comf	___fltol@f1+2,f
  7782     162C  09F3               	comf	___fltol@f1+3,f
  7783     162D  0AF0               	incf	___fltol@f1,f
  7784     162E  1903               	skipnz
  7785     162F  0AF1               	incf	___fltol@f1+1,f
  7786     1630  1903               	skipnz
  7787     1631  0AF2               	incf	___fltol@f1+2,f
  7788     1632  1903               	skipnz
  7789     1633  0AF3               	incf	___fltol@f1+3,f
  7790     1634                     l609:
  7791     1634                     l599:
  7792     1634  0008               	return
  7793     1635                     __end_of___fltol:
  7794                           
  7795                           	psect	text24
  7796     0070                     __ptext24:	
  7797 ;; *************** function ___fldiv *****************
  7798 ;; Defined at:
  7799 ;;		line 8 in file "C:\Program Files\Microchip\xc8\v2.41\pic\sources\c90\common\sprcdiv.c"
  7800 ;; Parameters:    Size  Location     Type
  7801 ;;  a               4   31[BANK0 ] long 
  7802 ;;  b               4   35[BANK0 ] long 
  7803 ;; Auto vars:     Size  Location     Type
  7804 ;;  grs             4   51[BANK0 ] unsigned long 
  7805 ;;  rem             4   44[BANK0 ] unsigned long 
  7806 ;;  new_exp         2   49[BANK0 ] int 
  7807 ;;  aexp            1   56[BANK0 ] unsigned char 
  7808 ;;  bexp            1   55[BANK0 ] unsigned char 
  7809 ;;  sign            1   48[BANK0 ] unsigned char 
  7810 ;; Return value:  Size  Location     Type
  7811 ;;                  4   31[BANK0 ] unsigned char 
  7812 ;; Registers used:
  7813 ;;		wreg, status,2, status,0, btemp+1
  7814 ;; Tracked objects:
  7815 ;;		On entry : 0/0
  7816 ;;		On exit  : 0/0
  7817 ;;		Unchanged: 0/0
  7818 ;; Data sizes:     COMMON   BANK0   BANK1   BANK3   BANK2
  7819 ;;      Params:         0       8       0       0       0
  7820 ;;      Locals:         0      13       0       0       0
  7821 ;;      Temps:          0       5       0       0       0
  7822 ;;      Totals:         0      26       0       0       0
  7823 ;;Total ram usage:       26 bytes
  7824 ;; Hardware stack levels used: 1
  7825 ;; This function calls:
  7826 ;;		Nothing
  7827 ;; This function is called by:
  7828 ;;		_Calculus_Temperature
  7829 ;; This function uses a non-reentrant model
  7830 ;;
  7831                           
  7832     0070                     ___fldiv:	
  7833                           ;psect for function ___fldiv
  7834                           
  7835     0070                     l2870:	
  7836                           ;incstack = 0
  7837                           ; Regs used in ___fldiv: [wreg+status,2+status,0+btemp+1]
  7838                           
  7839     0070  1283               	bcf	3,5	;RP0=0, select bank0
  7840     0071  1303               	bcf	3,6	;RP1=0, select bank0
  7841     0072  0846               	movf	___fldiv@b+3,w
  7842     0073  3980               	andlw	128
  7843     0074  00D0               	movwf	___fldiv@sign
  7844     0075                     l2872:
  7845     0075  0846               	movf	___fldiv@b+3,w
  7846     0076  00C7               	movwf	??___fldiv
  7847     0077  0747               	addwf	??___fldiv,w
  7848     0078  00D7               	movwf	___fldiv@bexp
  7849     0079                     l2874:
  7850     0079  1FC5               	btfss	___fldiv@b+2,7
  7851     007A  287C               	goto	u3641
  7852     007B  287D               	goto	u3640
  7853     007C                     u3641:
  7854     007C  287E               	goto	l2878
  7855     007D                     u3640:
  7856     007D                     l2876:
  7857     007D  1457               	bsf	___fldiv@bexp,0
  7858     007E                     l2878:
  7859     007E  0857               	movf	___fldiv@bexp,w
  7860     007F  1903               	btfsc	3,2
  7861     0080  2882               	goto	u3651
  7862     0081  2883               	goto	u3650
  7863     0082                     u3651:
  7864     0082  2893               	goto	l2888
  7865     0083                     u3650:
  7866     0083                     l2880:
  7867     0083  0A57               	incf	___fldiv@bexp,w
  7868     0084  1D03               	btfss	3,2
  7869     0085  2887               	goto	u3661
  7870     0086  2888               	goto	u3660
  7871     0087                     u3661:
  7872     0087  2890               	goto	l2884
  7873     0088                     u3660:
  7874     0088                     l2882:
  7875     0088  3000               	movlw	0
  7876     0089  00C6               	movwf	___fldiv@b+3
  7877     008A  3000               	movlw	0
  7878     008B  00C5               	movwf	___fldiv@b+2
  7879     008C  3000               	movlw	0
  7880     008D  00C4               	movwf	___fldiv@b+1
  7881     008E  3000               	movlw	0
  7882     008F  00C3               	movwf	___fldiv@b
  7883     0090                     l2884:
  7884     0090  17C5               	bsf	___fldiv@b+2,7
  7885     0091                     l2886:
  7886     0091  01C6               	clrf	___fldiv@b+3
  7887     0092  289B               	goto	l2890
  7888     0093                     l2888:
  7889     0093  3000               	movlw	0
  7890     0094  00C6               	movwf	___fldiv@b+3
  7891     0095  3000               	movlw	0
  7892     0096  00C5               	movwf	___fldiv@b+2
  7893     0097  3000               	movlw	0
  7894     0098  00C4               	movwf	___fldiv@b+1
  7895     0099  3000               	movlw	0
  7896     009A  00C3               	movwf	___fldiv@b
  7897     009B                     l2890:
  7898     009B  0842               	movf	___fldiv@a+3,w
  7899     009C  3980               	andlw	128
  7900     009D  00FF               	movwf	btemp+1
  7901     009E  087F               	movf	btemp+1,w
  7902     009F  06D0               	xorwf	___fldiv@sign,f
  7903     00A0                     l2892:
  7904     00A0  0842               	movf	___fldiv@a+3,w
  7905     00A1  00C7               	movwf	??___fldiv
  7906     00A2  0747               	addwf	??___fldiv,w
  7907     00A3  00D8               	movwf	___fldiv@aexp
  7908     00A4                     l2894:
  7909     00A4  1FC1               	btfss	___fldiv@a+2,7
  7910     00A5  28A7               	goto	u3671
  7911     00A6  28A8               	goto	u3670
  7912     00A7                     u3671:
  7913     00A7  28A9               	goto	l2898
  7914     00A8                     u3670:
  7915     00A8                     l2896:
  7916     00A8  1458               	bsf	___fldiv@aexp,0
  7917     00A9                     l2898:
  7918     00A9  0858               	movf	___fldiv@aexp,w
  7919     00AA  1903               	btfsc	3,2
  7920     00AB  28AD               	goto	u3681
  7921     00AC  28AE               	goto	u3680
  7922     00AD                     u3681:
  7923     00AD  28BE               	goto	l2908
  7924     00AE                     u3680:
  7925     00AE                     l2900:
  7926     00AE  0A58               	incf	___fldiv@aexp,w
  7927     00AF  1D03               	btfss	3,2
  7928     00B0  28B2               	goto	u3691
  7929     00B1  28B3               	goto	u3690
  7930     00B2                     u3691:
  7931     00B2  28BB               	goto	l2904
  7932     00B3                     u3690:
  7933     00B3                     l2902:
  7934     00B3  3000               	movlw	0
  7935     00B4  00C2               	movwf	___fldiv@a+3
  7936     00B5  3000               	movlw	0
  7937     00B6  00C1               	movwf	___fldiv@a+2
  7938     00B7  3000               	movlw	0
  7939     00B8  00C0               	movwf	___fldiv@a+1
  7940     00B9  3000               	movlw	0
  7941     00BA  00BF               	movwf	___fldiv@a
  7942     00BB                     l2904:
  7943     00BB  17C1               	bsf	___fldiv@a+2,7
  7944     00BC                     l2906:
  7945     00BC  01C2               	clrf	___fldiv@a+3
  7946     00BD  28C6               	goto	l762
  7947     00BE                     l2908:
  7948     00BE  3000               	movlw	0
  7949     00BF  00C2               	movwf	___fldiv@a+3
  7950     00C0  3000               	movlw	0
  7951     00C1  00C1               	movwf	___fldiv@a+2
  7952     00C2  3000               	movlw	0
  7953     00C3  00C0               	movwf	___fldiv@a+1
  7954     00C4  3000               	movlw	0
  7955     00C5  00BF               	movwf	___fldiv@a
  7956     00C6                     l762:
  7957     00C6  0842               	movf	___fldiv@a+3,w
  7958     00C7  0441               	iorwf	___fldiv@a+2,w
  7959     00C8  0440               	iorwf	___fldiv@a+1,w
  7960     00C9  043F               	iorwf	___fldiv@a,w
  7961     00CA  1D03               	skipz
  7962     00CB  28CD               	goto	u3701
  7963     00CC  28CE               	goto	u3700
  7964     00CD                     u3701:
  7965     00CD  28E7               	goto	l2918
  7966     00CE                     u3700:
  7967     00CE                     l2910:
  7968     00CE  3000               	movlw	0
  7969     00CF  00C6               	movwf	___fldiv@b+3
  7970     00D0  3000               	movlw	0
  7971     00D1  00C5               	movwf	___fldiv@b+2
  7972     00D2  3000               	movlw	0
  7973     00D3  00C4               	movwf	___fldiv@b+1
  7974     00D4  3000               	movlw	0
  7975     00D5  00C3               	movwf	___fldiv@b
  7976     00D6  3080               	movlw	128
  7977     00D7  04C5               	iorwf	___fldiv@b+2,f
  7978     00D8  307F               	movlw	127
  7979     00D9  04C6               	iorwf	___fldiv@b+3,f
  7980     00DA                     l2912:
  7981     00DA  0850               	movf	___fldiv@sign,w
  7982     00DB  00FF               	movwf	btemp+1
  7983     00DC  087F               	movf	btemp+1,w
  7984     00DD  04C6               	iorwf	___fldiv@b+3,f
  7985     00DE                     l2914:
  7986     00DE  0846               	movf	___fldiv@b+3,w
  7987     00DF  00C2               	movwf	?___fldiv+3
  7988     00E0  0845               	movf	___fldiv@b+2,w
  7989     00E1  00C1               	movwf	?___fldiv+2
  7990     00E2  0844               	movf	___fldiv@b+1,w
  7991     00E3  00C0               	movwf	?___fldiv+1
  7992     00E4  0843               	movf	___fldiv@b,w
  7993     00E5  00BF               	movwf	?___fldiv
  7994     00E6  2A3E               	goto	l764
  7995     00E7                     l2918:
  7996     00E7  0857               	movf	___fldiv@bexp,w
  7997     00E8  1D03               	btfss	3,2
  7998     00E9  28EB               	goto	u3711
  7999     00EA  28EC               	goto	u3710
  8000     00EB                     u3711:
  8001     00EB  28F5               	goto	l2924
  8002     00EC                     u3710:
  8003     00EC                     l2920:
  8004     00EC  3000               	movlw	0
  8005     00ED  00C2               	movwf	?___fldiv+3
  8006     00EE  3000               	movlw	0
  8007     00EF  00C1               	movwf	?___fldiv+2
  8008     00F0  3000               	movlw	0
  8009     00F1  00C0               	movwf	?___fldiv+1
  8010     00F2  3000               	movlw	0
  8011     00F3  00BF               	movwf	?___fldiv
  8012     00F4  2A3E               	goto	l764
  8013     00F5                     l2924:
  8014     00F5  0857               	movf	___fldiv@bexp,w
  8015     00F6  00C7               	movwf	??___fldiv
  8016     00F7  01C8               	clrf	??___fldiv+1
  8017     00F8  0848               	movf	??___fldiv+1,w
  8018     00F9  00CA               	movwf	??___fldiv+3
  8019     00FA  0858               	movf	___fldiv@aexp,w
  8020     00FB  0247               	subwf	??___fldiv,w
  8021     00FC  00C9               	movwf	??___fldiv+2
  8022     00FD  1C03               	skipc
  8023     00FE  03CA               	decf	??___fldiv+3,f
  8024     00FF  0849               	movf	??___fldiv+2,w
  8025     0100  3E7F               	addlw	127
  8026     0101  00D1               	movwf	___fldiv@new_exp
  8027     0102  084A               	movf	??___fldiv+3,w
  8028     0103  1803               	skipnc
  8029     0104  3E01               	addlw	1
  8030     0105  3E00               	addlw	0
  8031     0106  00D2               	movwf	___fldiv@new_exp+1
  8032     0107                     l2926:
  8033     0107  0846               	movf	___fldiv@b+3,w
  8034     0108  00CF               	movwf	___fldiv@rem+3
  8035     0109  0845               	movf	___fldiv@b+2,w
  8036     010A  00CE               	movwf	___fldiv@rem+2
  8037     010B  0844               	movf	___fldiv@b+1,w
  8038     010C  00CD               	movwf	___fldiv@rem+1
  8039     010D  0843               	movf	___fldiv@b,w
  8040     010E  00CC               	movwf	___fldiv@rem
  8041     010F                     l2928:
  8042     010F  3000               	movlw	0
  8043     0110  00C6               	movwf	___fldiv@b+3
  8044     0111  3000               	movlw	0
  8045     0112  00C5               	movwf	___fldiv@b+2
  8046     0113  3000               	movlw	0
  8047     0114  00C4               	movwf	___fldiv@b+1
  8048     0115  3000               	movlw	0
  8049     0116  00C3               	movwf	___fldiv@b
  8050     0117                     l2930:
  8051     0117  3000               	movlw	0
  8052     0118  00D6               	movwf	___fldiv@grs+3
  8053     0119  3000               	movlw	0
  8054     011A  00D5               	movwf	___fldiv@grs+2
  8055     011B  3000               	movlw	0
  8056     011C  00D4               	movwf	___fldiv@grs+1
  8057     011D  3000               	movlw	0
  8058     011E  00D3               	movwf	___fldiv@grs
  8059     011F                     l2932:
  8060     011F  01D8               	clrf	___fldiv@aexp
  8061     0120  296B               	goto	l2952
  8062     0121                     l2934:
  8063     0121  0858               	movf	___fldiv@aexp,w
  8064     0122  1903               	btfsc	3,2
  8065     0123  2925               	goto	u3721
  8066     0124  2926               	goto	u3720
  8067     0125                     u3721:
  8068     0125  2946               	goto	l2944
  8069     0126                     u3720:
  8070     0126                     l2936:
  8071     0126  3001               	movlw	1
  8072     0127  00C7               	movwf	??___fldiv
  8073     0128                     u3735:
  8074     0128  1003               	clrc
  8075     0129  0DCC               	rlf	___fldiv@rem,f
  8076     012A  0DCD               	rlf	___fldiv@rem+1,f
  8077     012B  0DCE               	rlf	___fldiv@rem+2,f
  8078     012C  0DCF               	rlf	___fldiv@rem+3,f
  8079     012D  0BC7               	decfsz	??___fldiv,f
  8080     012E  2928               	goto	u3735
  8081     012F  3001               	movlw	1
  8082     0130  00C7               	movwf	??___fldiv
  8083     0131                     u3745:
  8084     0131  1003               	clrc
  8085     0132  0DC3               	rlf	___fldiv@b,f
  8086     0133  0DC4               	rlf	___fldiv@b+1,f
  8087     0134  0DC5               	rlf	___fldiv@b+2,f
  8088     0135  0DC6               	rlf	___fldiv@b+3,f
  8089     0136  0BC7               	decfsz	??___fldiv,f
  8090     0137  2931               	goto	u3745
  8091     0138                     l2938:
  8092     0138  1FD6               	btfss	___fldiv@grs+3,7
  8093     0139  293B               	goto	u3751
  8094     013A  293C               	goto	u3750
  8095     013B                     u3751:
  8096     013B  293D               	goto	l2942
  8097     013C                     u3750:
  8098     013C                     l2940:
  8099     013C  1443               	bsf	___fldiv@b,0
  8100     013D                     l2942:
  8101     013D  3001               	movlw	1
  8102     013E  00C7               	movwf	??___fldiv
  8103     013F                     u3765:
  8104     013F  1003               	clrc
  8105     0140  0DD3               	rlf	___fldiv@grs,f
  8106     0141  0DD4               	rlf	___fldiv@grs+1,f
  8107     0142  0DD5               	rlf	___fldiv@grs+2,f
  8108     0143  0DD6               	rlf	___fldiv@grs+3,f
  8109     0144  0BC7               	decfsz	??___fldiv,f
  8110     0145  293F               	goto	u3765
  8111     0146                     l2944:
  8112     0146  0842               	movf	___fldiv@a+3,w
  8113     0147  024F               	subwf	___fldiv@rem+3,w
  8114     0148  1D03               	skipz
  8115     0149  2954               	goto	u3775
  8116     014A  0841               	movf	___fldiv@a+2,w
  8117     014B  024E               	subwf	___fldiv@rem+2,w
  8118     014C  1D03               	skipz
  8119     014D  2954               	goto	u3775
  8120     014E  0840               	movf	___fldiv@a+1,w
  8121     014F  024D               	subwf	___fldiv@rem+1,w
  8122     0150  1D03               	skipz
  8123     0151  2954               	goto	u3775
  8124     0152  083F               	movf	___fldiv@a,w
  8125     0153  024C               	subwf	___fldiv@rem,w
  8126     0154                     u3775:
  8127     0154  1C03               	skipc
  8128     0155  2957               	goto	u3771
  8129     0156  2958               	goto	u3770
  8130     0157                     u3771:
  8131     0157  2967               	goto	l2950
  8132     0158                     u3770:
  8133     0158                     l2946:
  8134     0158  1756               	bsf	___fldiv@grs+3,6
  8135     0159                     l2948:
  8136     0159  083F               	movf	___fldiv@a,w
  8137     015A  02CC               	subwf	___fldiv@rem,f
  8138     015B  0840               	movf	___fldiv@a+1,w
  8139     015C  1C03               	skipc
  8140     015D  0F40               	incfsz	___fldiv@a+1,w
  8141     015E  02CD               	subwf	___fldiv@rem+1,f
  8142     015F  0841               	movf	___fldiv@a+2,w
  8143     0160  1C03               	skipc
  8144     0161  0F41               	incfsz	___fldiv@a+2,w
  8145     0162  02CE               	subwf	___fldiv@rem+2,f
  8146     0163  0842               	movf	___fldiv@a+3,w
  8147     0164  1C03               	skipc
  8148     0165  0F42               	incfsz	___fldiv@a+3,w
  8149     0166  02CF               	subwf	___fldiv@rem+3,f
  8150     0167                     l2950:
  8151     0167  3001               	movlw	1
  8152     0168  00FF               	movwf	btemp+1
  8153     0169  087F               	movf	btemp+1,w
  8154     016A  07D8               	addwf	___fldiv@aexp,f
  8155     016B                     l2952:
  8156     016B  301A               	movlw	26
  8157     016C  0258               	subwf	___fldiv@aexp,w
  8158     016D  1C03               	skipc
  8159     016E  2970               	goto	u3781
  8160     016F  2971               	goto	u3780
  8161     0170                     u3781:
  8162     0170  2921               	goto	l2934
  8163     0171                     u3780:
  8164     0171                     l2954:
  8165     0171  084F               	movf	___fldiv@rem+3,w
  8166     0172  044E               	iorwf	___fldiv@rem+2,w
  8167     0173  044D               	iorwf	___fldiv@rem+1,w
  8168     0174  044C               	iorwf	___fldiv@rem,w
  8169     0175  1903               	skipnz
  8170     0176  2978               	goto	u3791
  8171     0177  2979               	goto	u3790
  8172     0178                     u3791:
  8173     0178  2998               	goto	l2968
  8174     0179                     u3790:
  8175     0179                     l2956:
  8176     0179  1453               	bsf	___fldiv@grs,0
  8177     017A  2998               	goto	l2968
  8178     017B                     l2958:
  8179     017B  3001               	movlw	1
  8180     017C  00C7               	movwf	??___fldiv
  8181     017D                     u3805:
  8182     017D  1003               	clrc
  8183     017E  0DC3               	rlf	___fldiv@b,f
  8184     017F  0DC4               	rlf	___fldiv@b+1,f
  8185     0180  0DC5               	rlf	___fldiv@b+2,f
  8186     0181  0DC6               	rlf	___fldiv@b+3,f
  8187     0182  0BC7               	decfsz	??___fldiv,f
  8188     0183  297D               	goto	u3805
  8189     0184                     l2960:
  8190     0184  1FD6               	btfss	___fldiv@grs+3,7
  8191     0185  2987               	goto	u3811
  8192     0186  2988               	goto	u3810
  8193     0187                     u3811:
  8194     0187  2989               	goto	l2964
  8195     0188                     u3810:
  8196     0188                     l2962:
  8197     0188  1443               	bsf	___fldiv@b,0
  8198     0189                     l2964:
  8199     0189  3001               	movlw	1
  8200     018A  00C7               	movwf	??___fldiv
  8201     018B                     u3825:
  8202     018B  1003               	clrc
  8203     018C  0DD3               	rlf	___fldiv@grs,f
  8204     018D  0DD4               	rlf	___fldiv@grs+1,f
  8205     018E  0DD5               	rlf	___fldiv@grs+2,f
  8206     018F  0DD6               	rlf	___fldiv@grs+3,f
  8207     0190  0BC7               	decfsz	??___fldiv,f
  8208     0191  298B               	goto	u3825
  8209     0192                     l2966:
  8210     0192  30FF               	movlw	255
  8211     0193  07D1               	addwf	___fldiv@new_exp,f
  8212     0194  1803               	skipnc
  8213     0195  0AD2               	incf	___fldiv@new_exp+1,f
  8214     0196  30FF               	movlw	255
  8215     0197  07D2               	addwf	___fldiv@new_exp+1,f
  8216     0198                     l2968:
  8217     0198  1FC5               	btfss	___fldiv@b+2,7
  8218     0199  299B               	goto	u3831
  8219     019A  299C               	goto	u3830
  8220     019B                     u3831:
  8221     019B  297B               	goto	l2958
  8222     019C                     u3830:
  8223     019C                     l2970:
  8224     019C  01D8               	clrf	___fldiv@aexp
  8225     019D                     l2972:
  8226     019D  1FD6               	btfss	___fldiv@grs+3,7
  8227     019E  29A0               	goto	u3841
  8228     019F  29A1               	goto	u3840
  8229     01A0                     u3841:
  8230     01A0  29BD               	goto	l2980
  8231     01A1                     u3840:
  8232     01A1                     l2974:
  8233     01A1  30FF               	movlw	255
  8234     01A2  0553               	andwf	___fldiv@grs,w
  8235     01A3  00C7               	movwf	??___fldiv
  8236     01A4  30FF               	movlw	255
  8237     01A5  0554               	andwf	___fldiv@grs+1,w
  8238     01A6  00C8               	movwf	??___fldiv+1
  8239     01A7  30FF               	movlw	255
  8240     01A8  0555               	andwf	___fldiv@grs+2,w
  8241     01A9  00C9               	movwf	??___fldiv+2
  8242     01AA  307F               	movlw	127
  8243     01AB  0556               	andwf	___fldiv@grs+3,w
  8244     01AC  00CA               	movwf	??___fldiv+3
  8245     01AD  084A               	movf	??___fldiv+3,w
  8246     01AE  0449               	iorwf	??___fldiv+2,w
  8247     01AF  0448               	iorwf	??___fldiv+1,w
  8248     01B0  0447               	iorwf	??___fldiv,w
  8249     01B1  1903               	skipnz
  8250     01B2  29B4               	goto	u3851
  8251     01B3  29B5               	goto	u3850
  8252     01B4                     u3851:
  8253     01B4  29B8               	goto	l778
  8254     01B5                     u3850:
  8255     01B5                     l2976:
  8256     01B5  01D8               	clrf	___fldiv@aexp
  8257     01B6  0AD8               	incf	___fldiv@aexp,f
  8258     01B7  29BD               	goto	l2980
  8259     01B8                     l778:
  8260     01B8  1C43               	btfss	___fldiv@b,0
  8261     01B9  29BB               	goto	u3861
  8262     01BA  29BC               	goto	u3860
  8263     01BB                     u3861:
  8264     01BB  29BD               	goto	l2980
  8265     01BC                     u3860:
  8266     01BC  29B5               	goto	l2976
  8267     01BD                     l2980:
  8268     01BD  0858               	movf	___fldiv@aexp,w
  8269     01BE  1903               	btfsc	3,2
  8270     01BF  29C1               	goto	u3871
  8271     01C0  29C2               	goto	u3870
  8272     01C1                     u3871:
  8273     01C1  29F3               	goto	l2990
  8274     01C2                     u3870:
  8275     01C2                     l2982:
  8276     01C2  3001               	movlw	1
  8277     01C3  07C3               	addwf	___fldiv@b,f
  8278     01C4  3000               	movlw	0
  8279     01C5  1803               	skipnc
  8280     01C6  3001               	movlw	1
  8281     01C7  07C4               	addwf	___fldiv@b+1,f
  8282     01C8  3000               	movlw	0
  8283     01C9  1803               	skipnc
  8284     01CA  3001               	movlw	1
  8285     01CB  07C5               	addwf	___fldiv@b+2,f
  8286     01CC  3000               	movlw	0
  8287     01CD  1803               	skipnc
  8288     01CE  3001               	movlw	1
  8289     01CF  07C6               	addwf	___fldiv@b+3,f
  8290     01D0                     l2984:
  8291     01D0  1C46               	btfss	___fldiv@b+3,0
  8292     01D1  29D3               	goto	u3881
  8293     01D2  29D4               	goto	u3880
  8294     01D3                     u3881:
  8295     01D3  29F3               	goto	l2990
  8296     01D4                     u3880:
  8297     01D4                     l2986:
  8298     01D4  0843               	movf	___fldiv@b,w
  8299     01D5  00C7               	movwf	??___fldiv
  8300     01D6  0844               	movf	___fldiv@b+1,w
  8301     01D7  00C8               	movwf	??___fldiv+1
  8302     01D8  0845               	movf	___fldiv@b+2,w
  8303     01D9  00C9               	movwf	??___fldiv+2
  8304     01DA  0846               	movf	___fldiv@b+3,w
  8305     01DB  00CA               	movwf	??___fldiv+3
  8306     01DC  3001               	movlw	1
  8307     01DD  00CB               	movwf	??___fldiv+4
  8308     01DE                     u3895:
  8309     01DE  0D4A               	rlf	??___fldiv+3,w
  8310     01DF  0CCA               	rrf	??___fldiv+3,f
  8311     01E0  0CC9               	rrf	??___fldiv+2,f
  8312     01E1  0CC8               	rrf	??___fldiv+1,f
  8313     01E2  0CC7               	rrf	??___fldiv,f
  8314     01E3                     u3890:
  8315     01E3  0BCB               	decfsz	??___fldiv+4,f
  8316     01E4  29DE               	goto	u3895
  8317     01E5  084A               	movf	??___fldiv+3,w
  8318     01E6  00C6               	movwf	___fldiv@b+3
  8319     01E7  0849               	movf	??___fldiv+2,w
  8320     01E8  00C5               	movwf	___fldiv@b+2
  8321     01E9  0848               	movf	??___fldiv+1,w
  8322     01EA  00C4               	movwf	___fldiv@b+1
  8323     01EB  0847               	movf	??___fldiv,w
  8324     01EC  00C3               	movwf	___fldiv@b
  8325     01ED                     l2988:
  8326     01ED  3001               	movlw	1
  8327     01EE  07D1               	addwf	___fldiv@new_exp,f
  8328     01EF  1803               	skipnc
  8329     01F0  0AD2               	incf	___fldiv@new_exp+1,f
  8330     01F1  3000               	movlw	0
  8331     01F2  07D2               	addwf	___fldiv@new_exp+1,f
  8332     01F3                     l2990:
  8333     01F3  0852               	movf	___fldiv@new_exp+1,w
  8334     01F4  3A80               	xorlw	128
  8335     01F5  00FF               	movwf	btemp+1
  8336     01F6  3080               	movlw	128
  8337     01F7  027F               	subwf	btemp+1,w
  8338     01F8  1D03               	skipz
  8339     01F9  29FC               	goto	u3905
  8340     01FA  30FF               	movlw	255
  8341     01FB  0251               	subwf	___fldiv@new_exp,w
  8342     01FC                     u3905:
  8343     01FC  1C03               	skipc
  8344     01FD  29FF               	goto	u3901
  8345     01FE  2A00               	goto	u3900
  8346     01FF                     u3901:
  8347     01FF  2A0E               	goto	l2994
  8348     0200                     u3900:
  8349     0200                     l2992:
  8350     0200  30FF               	movlw	255
  8351     0201  1283               	bcf	3,5	;RP0=0, select bank0
  8352     0202  1303               	bcf	3,6	;RP1=0, select bank0
  8353     0203  00D1               	movwf	___fldiv@new_exp
  8354     0204  3000               	movlw	0
  8355     0205  00D2               	movwf	___fldiv@new_exp+1
  8356     0206  3000               	movlw	0
  8357     0207  00C6               	movwf	___fldiv@b+3
  8358     0208  3000               	movlw	0
  8359     0209  00C5               	movwf	___fldiv@b+2
  8360     020A  3000               	movlw	0
  8361     020B  00C4               	movwf	___fldiv@b+1
  8362     020C  3000               	movlw	0
  8363     020D  00C3               	movwf	___fldiv@b
  8364     020E                     l2994:
  8365     020E  1283               	bcf	3,5	;RP0=0, select bank0
  8366     020F  1303               	bcf	3,6	;RP1=0, select bank0
  8367     0210  0852               	movf	___fldiv@new_exp+1,w
  8368     0211  3A80               	xorlw	128
  8369     0212  00FF               	movwf	btemp+1
  8370     0213  3080               	movlw	128
  8371     0214  027F               	subwf	btemp+1,w
  8372     0215  1D03               	skipz
  8373     0216  2A19               	goto	u3915
  8374     0217  3001               	movlw	1
  8375     0218  0251               	subwf	___fldiv@new_exp,w
  8376     0219                     u3915:
  8377     0219  1803               	skipnc
  8378     021A  2A1C               	goto	u3911
  8379     021B  2A1D               	goto	u3910
  8380     021C                     u3911:
  8381     021C  2A2A               	goto	l784
  8382     021D                     u3910:
  8383     021D                     l2996:
  8384     021D  1283               	bcf	3,5	;RP0=0, select bank0
  8385     021E  1303               	bcf	3,6	;RP1=0, select bank0
  8386     021F  01D1               	clrf	___fldiv@new_exp
  8387     0220  01D2               	clrf	___fldiv@new_exp+1
  8388     0221                     l2998:
  8389     0221  3000               	movlw	0
  8390     0222  00C6               	movwf	___fldiv@b+3
  8391     0223  3000               	movlw	0
  8392     0224  00C5               	movwf	___fldiv@b+2
  8393     0225  3000               	movlw	0
  8394     0226  00C4               	movwf	___fldiv@b+1
  8395     0227  3000               	movlw	0
  8396     0228  00C3               	movwf	___fldiv@b
  8397     0229                     l3000:
  8398     0229  01D0               	clrf	___fldiv@sign
  8399     022A                     l784:
  8400     022A  1283               	bcf	3,5	;RP0=0, select bank0
  8401     022B  1303               	bcf	3,6	;RP1=0, select bank0
  8402     022C  0851               	movf	___fldiv@new_exp,w
  8403     022D  00D7               	movwf	___fldiv@bexp
  8404     022E                     l3002:
  8405     022E  1C57               	btfss	___fldiv@bexp,0
  8406     022F  2A31               	goto	u3921
  8407     0230  2A32               	goto	u3920
  8408     0231                     u3921:
  8409     0231  2A34               	goto	l3006
  8410     0232                     u3920:
  8411     0232                     l3004:
  8412     0232  17C5               	bsf	___fldiv@b+2,7
  8413     0233  2A38               	goto	l3008
  8414     0234                     l3006:
  8415     0234  307F               	movlw	127
  8416     0235  00FF               	movwf	btemp+1
  8417     0236  087F               	movf	btemp+1,w
  8418     0237  05C5               	andwf	___fldiv@b+2,f
  8419     0238                     l3008:
  8420     0238  0857               	movf	___fldiv@bexp,w
  8421     0239  00C7               	movwf	??___fldiv
  8422     023A  1003               	clrc
  8423     023B  0C47               	rrf	??___fldiv,w
  8424     023C  00C6               	movwf	___fldiv@b+3
  8425     023D  28DA               	goto	l2912
  8426     023E                     l764:
  8427     023E  0008               	return
  8428     023F                     __end_of___fldiv:
  8429                           
  8430                           	psect	text25
  8431     1498                     __ptext25:	
  8432 ;; *************** function _function_Environment *****************
  8433 ;; Defined at:
  8434 ;;		line 206 in file "Funciones_Estado.c"
  8435 ;; Parameters:    Size  Location     Type
  8436 ;;		None
  8437 ;; Auto vars:     Size  Location     Type
  8438 ;;  time2           1   13[COMMON] unsigned char 
  8439 ;; Return value:  Size  Location     Type
  8440 ;;                  1    wreg      void 
  8441 ;; Registers used:
  8442 ;;		wreg, fsr0l, fsr0h, status,2, status,0, btemp+1, pclath, cstack
  8443 ;; Tracked objects:
  8444 ;;		On entry : 0/0
  8445 ;;		On exit  : 0/0
  8446 ;;		Unchanged: 0/0
  8447 ;; Data sizes:     COMMON   BANK0   BANK1   BANK3   BANK2
  8448 ;;      Params:         0       0       0       0       0
  8449 ;;      Locals:         1       0       0       0       0
  8450 ;;      Temps:          3       0       0       0       0
  8451 ;;      Totals:         4       0       0       0       0
  8452 ;;Total ram usage:        4 bytes
  8453 ;; Hardware stack levels used: 1
  8454 ;; Hardware stack levels required when called: 3
  8455 ;; This function calls:
  8456 ;;		_LCD_Clear
  8457 ;;		_LCD_String_xy
  8458 ;; This function is called by:
  8459 ;;		_main
  8460 ;; This function uses a non-reentrant model
  8461 ;;
  8462                           
  8463     1498                     _function_Environment:	
  8464                           ;psect for function _function_Environment
  8465                           
  8466     1498                     l3414:	
  8467                           ;incstack = 0
  8468                           ; Regs used in _function_Environment: [wreg-fsr0h+status,2+status,0+btemp+1+pclath+cstac
      +                          k]
  8469                           
  8470                           
  8471                           ;Funciones_Estado.c: 207:     unsigned char time2 = 0;
  8472     1498  01FD               	clrf	function_Environment@time2
  8473     1499                     l3416:
  8474                           
  8475                           ;Funciones_Estado.c: 208:     LCD_Clear();
  8476     1499  160A  118A  227E  160A  118A  	fcall	_LCD_Clear
  8477     149E                     l3418:
  8478                           
  8479                           ;Funciones_Estado.c: 209:     LCD_String_xy(0,0,"Que Calor :(");
  8480     149E  01F5               	clrf	LCD_String_xy@pos
  8481     149F  3087               	movlw	(low ((STR_9-__stringbase)| (0+32768)))& (0+255)
  8482     14A0  00F6               	movwf	LCD_String_xy@msg
  8483     14A1  3080               	movlw	128
  8484     14A2  00F7               	movwf	LCD_String_xy@msg+1
  8485     14A3  3000               	movlw	0
  8486     14A4  160A  118A  230F  160A  118A  	fcall	_LCD_String_xy
  8487                           
  8488                           ;Funciones_Estado.c: 210:     while(time2 < 5){
  8489     14A9  2CCE               	goto	l3426
  8490     14AA                     l261:
  8491                           
  8492                           ;Funciones_Estado.c: 211:         RE2 = 1;
  8493     14AA  1283               	bcf	3,5	;RP0=0, select bank0
  8494     14AB  1303               	bcf	3,6	;RP1=0, select bank0
  8495     14AC  1509               	bsf	9,2	;volatile
  8496     14AD                     l3420:
  8497                           
  8498                           ;Funciones_Estado.c: 212:         _delay((unsigned long)((500)*(8000000/4000.0)));
  8499     14AD  3006               	movlw	6
  8500     14AE  00FC               	movwf	??_function_Environment+2
  8501     14AF  3013               	movlw	19
  8502     14B0  00FB               	movwf	??_function_Environment+1
  8503     14B1  30AD               	movlw	173
  8504     14B2  00FA               	movwf	??_function_Environment
  8505     14B3                     u5787:
  8506     14B3  0BFA               	decfsz	??_function_Environment,f
  8507     14B4  2CB3               	goto	u5787
  8508     14B5  0BFB               	decfsz	??_function_Environment+1,f
  8509     14B6  2CB3               	goto	u5787
  8510     14B7  0BFC               	decfsz	??_function_Environment+2,f
  8511     14B8  2CB3               	goto	u5787
  8512     14B9  2CBA               	nop2
  8513     14BA                     l3422:
  8514                           
  8515                           ;Funciones_Estado.c: 213:         RE2 = 0;
  8516     14BA  1283               	bcf	3,5	;RP0=0, select bank0
  8517     14BB  1303               	bcf	3,6	;RP1=0, select bank0
  8518     14BC  1109               	bcf	9,2	;volatile
  8519                           
  8520                           ;Funciones_Estado.c: 214:         _delay((unsigned long)((500)*(8000000/4000.0)));
  8521     14BD  3006               	movlw	6
  8522     14BE  00FC               	movwf	??_function_Environment+2
  8523     14BF  3013               	movlw	19
  8524     14C0  00FB               	movwf	??_function_Environment+1
  8525     14C1  30AD               	movlw	173
  8526     14C2  00FA               	movwf	??_function_Environment
  8527     14C3                     u5797:
  8528     14C3  0BFA               	decfsz	??_function_Environment,f
  8529     14C4  2CC3               	goto	u5797
  8530     14C5  0BFB               	decfsz	??_function_Environment+1,f
  8531     14C6  2CC3               	goto	u5797
  8532     14C7  0BFC               	decfsz	??_function_Environment+2,f
  8533     14C8  2CC3               	goto	u5797
  8534     14C9  2CCA               	nop2
  8535     14CA                     l3424:
  8536                           
  8537                           ;Funciones_Estado.c: 215:         time2++;
  8538     14CA  3001               	movlw	1
  8539     14CB  00FF               	movwf	btemp+1
  8540     14CC  087F               	movf	btemp+1,w
  8541     14CD  07FD               	addwf	function_Environment@time2,f
  8542     14CE                     l3426:
  8543                           
  8544                           ;Funciones_Estado.c: 210:     while(time2 < 5){
  8545     14CE  3005               	movlw	5
  8546     14CF  027D               	subwf	function_Environment@time2,w
  8547     14D0  1C03               	skipc
  8548     14D1  2CD3               	goto	u4371
  8549     14D2  2CD4               	goto	u4370
  8550     14D3                     u4371:
  8551     14D3  2CAA               	goto	l261
  8552     14D4                     u4370:
  8553     14D4                     l262:
  8554                           
  8555                           ;Funciones_Estado.c: 217:     Estado = monitoring;
  8556     14D4  1283               	bcf	3,5	;RP0=0, select bank0
  8557     14D5  1303               	bcf	3,6	;RP1=0, select bank0
  8558     14D6  01EF               	clrf	_Estado
  8559     14D7  0AEF               	incf	_Estado,f
  8560     14D8                     l263:
  8561     14D8  0008               	return
  8562     14D9                     __end_of_function_Environment:
  8563                           
  8564                           	psect	text26
  8565     1457                     __ptext26:	
  8566 ;; *************** function _function_Alarm *****************
  8567 ;; Defined at:
  8568 ;;		line 145 in file "Funciones_Estado.c"
  8569 ;; Parameters:    Size  Location     Type
  8570 ;;		None
  8571 ;; Auto vars:     Size  Location     Type
  8572 ;;  time            1   13[COMMON] unsigned char 
  8573 ;; Return value:  Size  Location     Type
  8574 ;;                  1    wreg      void 
  8575 ;; Registers used:
  8576 ;;		wreg, fsr0l, fsr0h, status,2, status,0, btemp+1, pclath, cstack
  8577 ;; Tracked objects:
  8578 ;;		On entry : 0/0
  8579 ;;		On exit  : 0/0
  8580 ;;		Unchanged: 0/0
  8581 ;; Data sizes:     COMMON   BANK0   BANK1   BANK3   BANK2
  8582 ;;      Params:         0       0       0       0       0
  8583 ;;      Locals:         1       0       0       0       0
  8584 ;;      Temps:          3       0       0       0       0
  8585 ;;      Totals:         4       0       0       0       0
  8586 ;;Total ram usage:        4 bytes
  8587 ;; Hardware stack levels used: 1
  8588 ;; Hardware stack levels required when called: 3
  8589 ;; This function calls:
  8590 ;;		_LCD_Clear
  8591 ;;		_LCD_String_xy
  8592 ;; This function is called by:
  8593 ;;		_main
  8594 ;; This function uses a non-reentrant model
  8595 ;;
  8596                           
  8597     1457                     _function_Alarm:	
  8598                           ;psect for function _function_Alarm
  8599                           
  8600     1457                     l3370:	
  8601                           ;incstack = 0
  8602                           ; Regs used in _function_Alarm: [wreg-fsr0h+status,2+status,0+btemp+1+pclath+cstack]
  8603                           
  8604                           
  8605                           ;Funciones_Estado.c: 146:     unsigned char time = 0;
  8606     1457  01FD               	clrf	function_Alarm@time
  8607     1458                     l3372:
  8608                           
  8609                           ;Funciones_Estado.c: 147:     LCD_Clear();
  8610     1458  160A  118A  227E  160A  118A  	fcall	_LCD_Clear
  8611     145D                     l3374:
  8612                           
  8613                           ;Funciones_Estado.c: 148:     LCD_String_xy(0,0,"NO AUTORIZADO!!");
  8614     145D  01F5               	clrf	LCD_String_xy@pos
  8615     145E  3058               	movlw	(low ((STR_6-__stringbase)| (0+32768)))& (0+255)
  8616     145F  00F6               	movwf	LCD_String_xy@msg
  8617     1460  3080               	movlw	128
  8618     1461  00F7               	movwf	LCD_String_xy@msg+1
  8619     1462  3000               	movlw	0
  8620     1463  160A  118A  230F  160A  118A  	fcall	_LCD_String_xy
  8621                           
  8622                           ;Funciones_Estado.c: 149:     while(time < 5){
  8623     1468  2C8D               	goto	l3382
  8624     1469                     l250:
  8625                           
  8626                           ;Funciones_Estado.c: 150:         RE0 = 1;
  8627     1469  1283               	bcf	3,5	;RP0=0, select bank0
  8628     146A  1303               	bcf	3,6	;RP1=0, select bank0
  8629     146B  1409               	bsf	9,0	;volatile
  8630     146C                     l3376:
  8631                           
  8632                           ;Funciones_Estado.c: 151:         _delay((unsigned long)((500)*(8000000/4000.0)));
  8633     146C  3006               	movlw	6
  8634     146D  00FC               	movwf	??_function_Alarm+2
  8635     146E  3013               	movlw	19
  8636     146F  00FB               	movwf	??_function_Alarm+1
  8637     1470  30AD               	movlw	173
  8638     1471  00FA               	movwf	??_function_Alarm
  8639     1472                     u5807:
  8640     1472  0BFA               	decfsz	??_function_Alarm,f
  8641     1473  2C72               	goto	u5807
  8642     1474  0BFB               	decfsz	??_function_Alarm+1,f
  8643     1475  2C72               	goto	u5807
  8644     1476  0BFC               	decfsz	??_function_Alarm+2,f
  8645     1477  2C72               	goto	u5807
  8646     1478  2C79               	nop2
  8647     1479                     l3378:
  8648                           
  8649                           ;Funciones_Estado.c: 152:         RE0 = 0;
  8650     1479  1283               	bcf	3,5	;RP0=0, select bank0
  8651     147A  1303               	bcf	3,6	;RP1=0, select bank0
  8652     147B  1009               	bcf	9,0	;volatile
  8653                           
  8654                           ;Funciones_Estado.c: 153:         _delay((unsigned long)((500)*(8000000/4000.0)));
  8655     147C  3006               	movlw	6
  8656     147D  00FC               	movwf	??_function_Alarm+2
  8657     147E  3013               	movlw	19
  8658     147F  00FB               	movwf	??_function_Alarm+1
  8659     1480  30AD               	movlw	173
  8660     1481  00FA               	movwf	??_function_Alarm
  8661     1482                     u5817:
  8662     1482  0BFA               	decfsz	??_function_Alarm,f
  8663     1483  2C82               	goto	u5817
  8664     1484  0BFB               	decfsz	??_function_Alarm+1,f
  8665     1485  2C82               	goto	u5817
  8666     1486  0BFC               	decfsz	??_function_Alarm+2,f
  8667     1487  2C82               	goto	u5817
  8668     1488  2C89               	nop2
  8669     1489                     l3380:
  8670                           
  8671                           ;Funciones_Estado.c: 154:         time++;
  8672     1489  3001               	movlw	1
  8673     148A  00FF               	movwf	btemp+1
  8674     148B  087F               	movf	btemp+1,w
  8675     148C  07FD               	addwf	function_Alarm@time,f
  8676     148D                     l3382:
  8677                           
  8678                           ;Funciones_Estado.c: 149:     while(time < 5){
  8679     148D  3005               	movlw	5
  8680     148E  027D               	subwf	function_Alarm@time,w
  8681     148F  1C03               	skipc
  8682     1490  2C92               	goto	u4351
  8683     1491  2C93               	goto	u4350
  8684     1492                     u4351:
  8685     1492  2C69               	goto	l250
  8686     1493                     u4350:
  8687     1493                     l251:
  8688                           
  8689                           ;Funciones_Estado.c: 156:     Estado = monitoring;
  8690     1493  1283               	bcf	3,5	;RP0=0, select bank0
  8691     1494  1303               	bcf	3,6	;RP1=0, select bank0
  8692     1495  01EF               	clrf	_Estado
  8693     1496  0AEF               	incf	_Estado,f
  8694     1497                     l252:
  8695     1497  0008               	return
  8696     1498                     __end_of_function_Alarm:
  8697                           
  8698                           	psect	text27
  8699     130F                     __ptext27:	
  8700 ;; *************** function _LCD_String_xy *****************
  8701 ;; Defined at:
  8702 ;;		line 138 in file "lcd.c"
  8703 ;; Parameters:    Size  Location     Type
  8704 ;;  row             1    wreg     unsigned char 
  8705 ;;  pos             1    5[COMMON] unsigned char 
  8706 ;;  msg             2    6[COMMON] PTR const unsigned char 
  8707 ;;		 -> STR_9(13), STR_7(16), STR_6(16), STR_5(13), 
  8708 ;;		 -> STR_4(17), STR_3(15), STR_2(12), buffer(17), 
  8709 ;; Auto vars:     Size  Location     Type
  8710 ;;  row             1    8[COMMON] unsigned char 
  8711 ;;  location        1    9[COMMON] unsigned char 
  8712 ;; Return value:  Size  Location     Type
  8713 ;;                  1    wreg      void 
  8714 ;; Registers used:
  8715 ;;		wreg, fsr0l, fsr0h, status,2, status,0, btemp+1, pclath, cstack
  8716 ;; Tracked objects:
  8717 ;;		On entry : 0/0
  8718 ;;		On exit  : 0/0
  8719 ;;		Unchanged: 0/0
  8720 ;; Data sizes:     COMMON   BANK0   BANK1   BANK3   BANK2
  8721 ;;      Params:         3       0       0       0       0
  8722 ;;      Locals:         2       0       0       0       0
  8723 ;;      Temps:          0       0       0       0       0
  8724 ;;      Totals:         5       0       0       0       0
  8725 ;;Total ram usage:        5 bytes
  8726 ;; Hardware stack levels used: 1
  8727 ;; Hardware stack levels required when called: 2
  8728 ;; This function calls:
  8729 ;;		_LCD_Command
  8730 ;;		_LCD_String
  8731 ;; This function is called by:
  8732 ;;		_function_Monitoring
  8733 ;;		_function_Security
  8734 ;;		_function_Locked
  8735 ;;		_function_Alarm
  8736 ;;		_function_Environment_alarm
  8737 ;;		_function_Environment
  8738 ;; This function uses a non-reentrant model
  8739 ;;
  8740                           
  8741     130F                     _LCD_String_xy:	
  8742                           ;psect for function _LCD_String_xy
  8743                           
  8744                           
  8745                           ;incstack = 0
  8746                           ; Regs used in _LCD_String_xy: [wreg-fsr0h+status,2+status,0+btemp+1+pclath+cstack]
  8747                           ;LCD_String_xy@row stored from wreg
  8748     130F  00F8               	movwf	LCD_String_xy@row
  8749     1310                     l3116:
  8750     1310                     l3118:
  8751                           
  8752                           ;lcd.c: 141:     if(row<=1)
  8753     1310  3002               	movlw	2
  8754     1311  0278               	subwf	LCD_String_xy@row,w
  8755     1312  1803               	skipnc
  8756     1313  2B15               	goto	u4151
  8757     1314  2B16               	goto	u4150
  8758     1315                     u4151:
  8759     1315  2B21               	goto	l3124
  8760     1316                     u4150:
  8761     1316                     l3120:
  8762                           
  8763                           ;lcd.c: 142:     {;lcd.c: 143:         location=(0x80) | ((pos) & 0x0f);
  8764     1316  0875               	movf	LCD_String_xy@pos,w
  8765     1317  390F               	andlw	15
  8766     1318  3880               	iorlw	128
  8767     1319  00F9               	movwf	LCD_String_xy@location
  8768     131A                     l3122:
  8769                           
  8770                           ;lcd.c: 144:         LCD_Command(location);
  8771     131A  0879               	movf	LCD_String_xy@location,w
  8772     131B  160A  118A  23B1  160A  118A  	fcall	_LCD_Command
  8773                           
  8774                           ;lcd.c: 145:     }
  8775     1320  2B2B               	goto	l3128
  8776     1321                     l3124:
  8777                           
  8778                           ;lcd.c: 147:     {;lcd.c: 148:         location=(0xC0) | ((pos) & 0x0f);
  8779     1321  0875               	movf	LCD_String_xy@pos,w
  8780     1322  390F               	andlw	15
  8781     1323  38C0               	iorlw	192
  8782     1324  00F9               	movwf	LCD_String_xy@location
  8783     1325                     l3126:
  8784                           
  8785                           ;lcd.c: 149:         LCD_Command(location);
  8786     1325  0879               	movf	LCD_String_xy@location,w
  8787     1326  160A  118A  23B1  160A  118A  	fcall	_LCD_Command
  8788     132B                     l3128:
  8789                           
  8790                           ;lcd.c: 151:     LCD_String(msg);
  8791     132B  0876               	movf	LCD_String_xy@msg,w
  8792     132C  00F3               	movwf	LCD_String@msg
  8793     132D  0877               	movf	LCD_String_xy@msg+1,w
  8794     132E  00F4               	movwf	LCD_String@msg+1
  8795     132F  160A  118A  22E9  160A  118A  	fcall	_LCD_String
  8796     1334                     l172:
  8797     1334  0008               	return
  8798     1335                     __end_of_LCD_String_xy:
  8799                           
  8800                           	psect	text28
  8801     12E9                     __ptext28:	
  8802 ;; *************** function _LCD_String *****************
  8803 ;; Defined at:
  8804 ;;		line 117 in file "lcd.c"
  8805 ;; Parameters:    Size  Location     Type
  8806 ;;  msg             2    3[COMMON] PTR const unsigned char 
  8807 ;;		 -> STR_9(13), STR_7(16), STR_6(16), STR_5(13), 
  8808 ;;		 -> STR_4(17), STR_3(15), STR_2(12), buffer(17), 
  8809 ;; Auto vars:     Size  Location     Type
  8810 ;;		None
  8811 ;; Return value:  Size  Location     Type
  8812 ;;                  1    wreg      void 
  8813 ;; Registers used:
  8814 ;;		wreg, fsr0l, fsr0h, status,2, status,0, btemp+1, pclath, cstack
  8815 ;; Tracked objects:
  8816 ;;		On entry : 0/0
  8817 ;;		On exit  : 0/0
  8818 ;;		Unchanged: 0/0
  8819 ;; Data sizes:     COMMON   BANK0   BANK1   BANK3   BANK2
  8820 ;;      Params:         2       0       0       0       0
  8821 ;;      Locals:         0       0       0       0       0
  8822 ;;      Temps:          0       0       0       0       0
  8823 ;;      Totals:         2       0       0       0       0
  8824 ;;Total ram usage:        2 bytes
  8825 ;; Hardware stack levels used: 1
  8826 ;; Hardware stack levels required when called: 1
  8827 ;; This function calls:
  8828 ;;		_LCD_Char
  8829 ;; This function is called by:
  8830 ;;		_LCD_String_xy
  8831 ;; This function uses a non-reentrant model
  8832 ;;
  8833                           
  8834     12E9                     _LCD_String:	
  8835                           ;psect for function _LCD_String
  8836                           
  8837     12E9                     l2754:	
  8838                           ;incstack = 0
  8839                           ; Regs used in _LCD_String: [wreg-fsr0h+status,2+status,0+btemp+1+pclath+cstack]
  8840                           
  8841                           
  8842                           ;lcd.c: 117: void LCD_String(const char *msg);lcd.c: 118: {;lcd.c: 119:  while((*msg)!=0
      +                          )
  8843     12E9  2AFE               	goto	l2760
  8844     12EA                     l2756:
  8845                           
  8846                           ;lcd.c: 120:  {;lcd.c: 121:    LCD_Char(*msg);
  8847     12EA  0874               	movf	LCD_String@msg+1,w
  8848     12EB  00FF               	movwf	btemp+1
  8849     12EC  0873               	movf	LCD_String@msg,w
  8850     12ED  0084               	movwf	4
  8851     12EE  120A  158A  2000  160A  118A  	fcall	stringtab
  8852     12F3  160A  118A  23E7  160A  118A  	fcall	_LCD_Char
  8853     12F8                     l2758:
  8854                           
  8855                           ;lcd.c: 122:    msg++;
  8856     12F8  3001               	movlw	1
  8857     12F9  07F3               	addwf	LCD_String@msg,f
  8858     12FA  1803               	skipnc
  8859     12FB  0AF4               	incf	LCD_String@msg+1,f
  8860     12FC  3000               	movlw	0
  8861     12FD  07F4               	addwf	LCD_String@msg+1,f
  8862     12FE                     l2760:
  8863                           
  8864                           ;lcd.c: 119:  while((*msg)!=0)
  8865     12FE  0874               	movf	LCD_String@msg+1,w
  8866     12FF  1283               	bcf	3,5	;RP0=0, select bank0
  8867     1300  1303               	bcf	3,6	;RP1=0, select bank0
  8868     1301  00FF               	movwf	btemp+1
  8869     1302  0873               	movf	LCD_String@msg,w
  8870     1303  0084               	movwf	4
  8871     1304  120A  158A  2000  160A  118A  	fcall	stringtab
  8872     1309  3A00               	xorlw	0
  8873     130A  1D03               	skipz
  8874     130B  2B0D               	goto	u3381
  8875     130C  2B0E               	goto	u3380
  8876     130D                     u3381:
  8877     130D  2AEA               	goto	l2756
  8878     130E                     u3380:
  8879     130E                     l167:
  8880     130E  0008               	return
  8881     130F                     __end_of_LCD_String:
  8882                           
  8883                           	psect	text29
  8884     13E7                     __ptext29:	
  8885 ;; *************** function _LCD_Char *****************
  8886 ;; Defined at:
  8887 ;;		line 89 in file "lcd.c"
  8888 ;; Parameters:    Size  Location     Type
  8889 ;;  dat             1    wreg     unsigned char 
  8890 ;; Auto vars:     Size  Location     Type
  8891 ;;  dat             1    2[COMMON] unsigned char 
  8892 ;; Return value:  Size  Location     Type
  8893 ;;                  1    wreg      void 
  8894 ;; Registers used:
  8895 ;;		wreg, status,2, status,0
  8896 ;; Tracked objects:
  8897 ;;		On entry : 0/0
  8898 ;;		On exit  : 0/0
  8899 ;;		Unchanged: 0/0
  8900 ;; Data sizes:     COMMON   BANK0   BANK1   BANK3   BANK2
  8901 ;;      Params:         0       0       0       0       0
  8902 ;;      Locals:         1       0       0       0       0
  8903 ;;      Temps:          2       0       0       0       0
  8904 ;;      Totals:         3       0       0       0       0
  8905 ;;Total ram usage:        3 bytes
  8906 ;; Hardware stack levels used: 1
  8907 ;; This function calls:
  8908 ;;		Nothing
  8909 ;; This function is called by:
  8910 ;;		_LCD_String
  8911 ;;		_function_Security
  8912 ;; This function uses a non-reentrant model
  8913 ;;
  8914                           
  8915     13E7                     _LCD_Char:	
  8916                           ;psect for function _LCD_Char
  8917                           
  8918                           
  8919                           ;incstack = 0
  8920                           ; Regs used in _LCD_Char: [wreg+status,2+status,0]
  8921                           ;LCD_Char@dat stored from wreg
  8922     13E7  00F2               	movwf	LCD_Char@dat
  8923     13E8                     l2616:
  8924                           
  8925                           ;lcd.c: 89: void LCD_Char(unsigned char dat);lcd.c: 90: {;lcd.c: 91:  PORTD = (PORTD & 0
      +                          x0f) | (0xF0 & dat);
  8926     13E8  30F0               	movlw	240
  8927     13E9  0572               	andwf	LCD_Char@dat,w
  8928     13EA  00F0               	movwf	??_LCD_Char
  8929     13EB  1283               	bcf	3,5	;RP0=0, select bank0
  8930     13EC  1303               	bcf	3,6	;RP1=0, select bank0
  8931     13ED  0808               	movf	8,w	;volatile
  8932     13EE  390F               	andlw	15
  8933     13EF  0470               	iorwf	??_LCD_Char,w
  8934     13F0  0088               	movwf	8	;volatile
  8935     13F1                     l2618:
  8936                           
  8937                           ;lcd.c: 92:  PORTDbits.RD0 = 1;
  8938     13F1  1408               	bsf	8,0	;volatile
  8939     13F2                     l2620:
  8940                           
  8941                           ;lcd.c: 93:  PORTDbits.RD1 = 1;
  8942     13F2  1488               	bsf	8,1	;volatile
  8943     13F3                     l2622:
  8944                           
  8945                           ;lcd.c: 94:  __nop();
  8946     13F3  0000               	nop
  8947     13F4                     l2624:
  8948                           
  8949                           ;lcd.c: 95:  PORTDbits.RD1 = 0;
  8950     13F4  1283               	bcf	3,5	;RP0=0, select bank0
  8951     13F5  1303               	bcf	3,6	;RP1=0, select bank0
  8952     13F6  1088               	bcf	8,1	;volatile
  8953     13F7                     l2626:
  8954                           
  8955                           ;lcd.c: 96:  _delay((unsigned long)((1)*(8000000/4000.0)));
  8956     13F7  3003               	movlw	3
  8957     13F8  00F1               	movwf	??_LCD_Char+1
  8958     13F9  3097               	movlw	151
  8959     13FA  00F0               	movwf	??_LCD_Char
  8960     13FB                     u5827:
  8961     13FB  0BF0               	decfsz	??_LCD_Char,f
  8962     13FC  2BFB               	goto	u5827
  8963     13FD  0BF1               	decfsz	??_LCD_Char+1,f
  8964     13FE  2BFB               	goto	u5827
  8965     13FF  2C00               	nop2
  8966     1400                     l2628:
  8967                           
  8968                           ;lcd.c: 97:     PORTD = (unsigned char)((PORTD & 0x0f) | (dat<<4));
  8969     1400  0872               	movf	LCD_Char@dat,w
  8970     1401  00F0               	movwf	??_LCD_Char
  8971     1402  3004               	movlw	4
  8972     1403                     u3115:
  8973     1403  1003               	clrc
  8974     1404  0DF0               	rlf	??_LCD_Char,f
  8975     1405  3EFF               	addlw	-1
  8976     1406  1D03               	skipz
  8977     1407  2C03               	goto	u3115
  8978     1408  1283               	bcf	3,5	;RP0=0, select bank0
  8979     1409  1303               	bcf	3,6	;RP1=0, select bank0
  8980     140A  0808               	movf	8,w	;volatile
  8981     140B  390F               	andlw	15
  8982     140C  0470               	iorwf	??_LCD_Char,w
  8983     140D  0088               	movwf	8	;volatile
  8984     140E                     l2630:
  8985                           
  8986                           ;lcd.c: 98:  PORTDbits.RD1 = 1;
  8987     140E  1488               	bsf	8,1	;volatile
  8988     140F                     l2632:
  8989                           
  8990                           ;lcd.c: 99:  __nop();
  8991     140F  0000               	nop
  8992     1410                     l2634:
  8993                           
  8994                           ;lcd.c: 100:  PORTDbits.RD1 = 0;
  8995     1410  1283               	bcf	3,5	;RP0=0, select bank0
  8996     1411  1303               	bcf	3,6	;RP1=0, select bank0
  8997     1412  1088               	bcf	8,1	;volatile
  8998                           
  8999                           ;lcd.c: 101:  _delay((unsigned long)((3)*(8000000/4000.0)));
  9000     1413  3008               	movlw	8
  9001     1414  00F1               	movwf	??_LCD_Char+1
  9002     1415  30C9               	movlw	201
  9003     1416  00F0               	movwf	??_LCD_Char
  9004     1417                     u5837:
  9005     1417  0BF0               	decfsz	??_LCD_Char,f
  9006     1418  2C17               	goto	u5837
  9007     1419  0BF1               	decfsz	??_LCD_Char+1,f
  9008     141A  2C17               	goto	u5837
  9009     141B  2C1C               	nop2
  9010     141C                     l161:
  9011     141C  0008               	return
  9012     141D                     __end_of_LCD_Char:
  9013                           
  9014                           	psect	text30
  9015     127E                     __ptext30:	
  9016 ;; *************** function _LCD_Clear *****************
  9017 ;; Defined at:
  9018 ;;		line 166 in file "lcd.c"
  9019 ;; Parameters:    Size  Location     Type
  9020 ;;		None
  9021 ;; Auto vars:     Size  Location     Type
  9022 ;;		None
  9023 ;; Return value:  Size  Location     Type
  9024 ;;                  1    wreg      void 
  9025 ;; Registers used:
  9026 ;;		wreg, status,2, status,0, pclath, cstack
  9027 ;; Tracked objects:
  9028 ;;		On entry : 0/0
  9029 ;;		On exit  : 0/0
  9030 ;;		Unchanged: 0/0
  9031 ;; Data sizes:     COMMON   BANK0   BANK1   BANK3   BANK2
  9032 ;;      Params:         0       0       0       0       0
  9033 ;;      Locals:         0       0       0       0       0
  9034 ;;      Temps:          2       0       0       0       0
  9035 ;;      Totals:         2       0       0       0       0
  9036 ;;Total ram usage:        2 bytes
  9037 ;; Hardware stack levels used: 1
  9038 ;; Hardware stack levels required when called: 1
  9039 ;; This function calls:
  9040 ;;		_LCD_Command
  9041 ;; This function is called by:
  9042 ;;		_function_Security
  9043 ;;		_function_Locked
  9044 ;;		_function_Alarm
  9045 ;;		_function_Environment_alarm
  9046 ;;		_function_Environment
  9047 ;; This function uses a non-reentrant model
  9048 ;;
  9049                           
  9050     127E                     _LCD_Clear:	
  9051                           ;psect for function _LCD_Clear
  9052                           
  9053     127E                     l3130:	
  9054                           ;incstack = 0
  9055                           ; Regs used in _LCD_Clear: [wreg+status,2+status,0+pclath+cstack]
  9056                           
  9057                           
  9058                           ;lcd.c: 168:     LCD_Command(0x01);
  9059     127E  3001               	movlw	1
  9060     127F  160A  118A  23B1  160A  118A  	fcall	_LCD_Command
  9061     1284                     l3132:
  9062                           
  9063                           ;lcd.c: 169:     _delay((unsigned long)((3)*(8000000/4000.0)));
  9064     1284  3008               	movlw	8
  9065     1285  00F4               	movwf	??_LCD_Clear+1
  9066     1286  30C9               	movlw	201
  9067     1287  00F3               	movwf	??_LCD_Clear
  9068     1288                     u5847:
  9069     1288  0BF3               	decfsz	??_LCD_Clear,f
  9070     1289  2A88               	goto	u5847
  9071     128A  0BF4               	decfsz	??_LCD_Clear+1,f
  9072     128B  2A88               	goto	u5847
  9073     128C  2A8D               	nop2
  9074     128D                     l175:
  9075     128D  0008               	return
  9076     128E                     __end_of_LCD_Clear:
  9077                           
  9078                           	psect	text31
  9079     135C                     __ptext31:	
  9080 ;; *************** function _LCD_Init *****************
  9081 ;; Defined at:
  9082 ;;		line 38 in file "lcd.c"
  9083 ;; Parameters:    Size  Location     Type
  9084 ;;		None
  9085 ;; Auto vars:     Size  Location     Type
  9086 ;;		None
  9087 ;; Return value:  Size  Location     Type
  9088 ;;                  1    wreg      void 
  9089 ;; Registers used:
  9090 ;;		wreg, status,2, status,0, pclath, cstack
  9091 ;; Tracked objects:
  9092 ;;		On entry : 0/0
  9093 ;;		On exit  : 0/0
  9094 ;;		Unchanged: 0/0
  9095 ;; Data sizes:     COMMON   BANK0   BANK1   BANK3   BANK2
  9096 ;;      Params:         0       0       0       0       0
  9097 ;;      Locals:         0       0       0       0       0
  9098 ;;      Temps:          2       0       0       0       0
  9099 ;;      Totals:         2       0       0       0       0
  9100 ;;Total ram usage:        2 bytes
  9101 ;; Hardware stack levels used: 1
  9102 ;; Hardware stack levels required when called: 1
  9103 ;; This function calls:
  9104 ;;		_LCD_Command
  9105 ;; This function is called by:
  9106 ;;		_main
  9107 ;; This function uses a non-reentrant model
  9108 ;;
  9109                           
  9110     135C                     _LCD_Init:	
  9111                           ;psect for function _LCD_Init
  9112                           
  9113     135C                     l3272:	
  9114                           ;incstack = 0
  9115                           ; Regs used in _LCD_Init: [wreg+status,2+status,0+pclath+cstack]
  9116                           
  9117                           
  9118                           ;lcd.c: 39:     TRISD = 0;
  9119     135C  1683               	bsf	3,5	;RP0=1, select bank1
  9120     135D  1303               	bcf	3,6	;RP1=0, select bank1
  9121     135E  0188               	clrf	8	;volatile
  9122     135F                     l3274:
  9123                           
  9124                           ;lcd.c: 40:     _delay((unsigned long)((15)*(8000000/4000.0)));
  9125     135F  3027               	movlw	39
  9126     1360  00F4               	movwf	??_LCD_Init+1
  9127     1361  30F5               	movlw	245
  9128     1362  00F3               	movwf	??_LCD_Init
  9129     1363                     u5857:
  9130     1363  0BF3               	decfsz	??_LCD_Init,f
  9131     1364  2B63               	goto	u5857
  9132     1365  0BF4               	decfsz	??_LCD_Init+1,f
  9133     1366  2B63               	goto	u5857
  9134     1367                     l3276:
  9135                           
  9136                           ;lcd.c: 41:     LCD_Command(0x02);
  9137     1367  3002               	movlw	2
  9138     1368  160A  118A  23B1  160A  118A  	fcall	_LCD_Command
  9139     136D                     l3278:
  9140                           
  9141                           ;lcd.c: 42:     LCD_Command(0x28);
  9142     136D  3028               	movlw	40
  9143     136E  160A  118A  23B1  160A  118A  	fcall	_LCD_Command
  9144     1373                     l3280:
  9145                           
  9146                           ;lcd.c: 43:     LCD_Command(0x01);
  9147     1373  3001               	movlw	1
  9148     1374  160A  118A  23B1  160A  118A  	fcall	_LCD_Command
  9149     1379                     l3282:
  9150                           
  9151                           ;lcd.c: 44:     LCD_Command(0x0c);
  9152     1379  300C               	movlw	12
  9153     137A  160A  118A  23B1  160A  118A  	fcall	_LCD_Command
  9154     137F                     l3284:
  9155                           
  9156                           ;lcd.c: 45:     LCD_Command(0x06);
  9157     137F  3006               	movlw	6
  9158     1380  160A  118A  23B1  160A  118A  	fcall	_LCD_Command
  9159     1385                     l155:
  9160     1385  0008               	return
  9161     1386                     __end_of_LCD_Init:
  9162                           
  9163                           	psect	text32
  9164     13B1                     __ptext32:	
  9165 ;; *************** function _LCD_Command *****************
  9166 ;; Defined at:
  9167 ;;		line 61 in file "lcd.c"
  9168 ;; Parameters:    Size  Location     Type
  9169 ;;  cmd             1    wreg     unsigned char 
  9170 ;; Auto vars:     Size  Location     Type
  9171 ;;  cmd             1    2[COMMON] unsigned char 
  9172 ;; Return value:  Size  Location     Type
  9173 ;;                  1    wreg      void 
  9174 ;; Registers used:
  9175 ;;		wreg, status,2, status,0
  9176 ;; Tracked objects:
  9177 ;;		On entry : 0/0
  9178 ;;		On exit  : 0/0
  9179 ;;		Unchanged: 0/0
  9180 ;; Data sizes:     COMMON   BANK0   BANK1   BANK3   BANK2
  9181 ;;      Params:         0       0       0       0       0
  9182 ;;      Locals:         1       0       0       0       0
  9183 ;;      Temps:          2       0       0       0       0
  9184 ;;      Totals:         3       0       0       0       0
  9185 ;;Total ram usage:        3 bytes
  9186 ;; Hardware stack levels used: 1
  9187 ;; This function calls:
  9188 ;;		Nothing
  9189 ;; This function is called by:
  9190 ;;		_LCD_Init
  9191 ;;		_LCD_String_xy
  9192 ;;		_LCD_Clear
  9193 ;;		_function_Security
  9194 ;; This function uses a non-reentrant model
  9195 ;;
  9196                           
  9197     13B1                     _LCD_Command:	
  9198                           ;psect for function _LCD_Command
  9199                           
  9200                           
  9201                           ;incstack = 0
  9202                           ; Regs used in _LCD_Command: [wreg+status,2+status,0]
  9203                           ;LCD_Command@cmd stored from wreg
  9204     13B1  00F2               	movwf	LCD_Command@cmd
  9205     13B2                     l2734:
  9206                           
  9207                           ;lcd.c: 61: void LCD_Command(unsigned char cmd );lcd.c: 62: {;lcd.c: 63:  PORTD = (PORTD
      +                           & 0x0f) |(0xF0 & cmd);
  9208     13B2  30F0               	movlw	240
  9209     13B3  0572               	andwf	LCD_Command@cmd,w
  9210     13B4  00F0               	movwf	??_LCD_Command
  9211     13B5  1283               	bcf	3,5	;RP0=0, select bank0
  9212     13B6  1303               	bcf	3,6	;RP1=0, select bank0
  9213     13B7  0808               	movf	8,w	;volatile
  9214     13B8  390F               	andlw	15
  9215     13B9  0470               	iorwf	??_LCD_Command,w
  9216     13BA  0088               	movwf	8	;volatile
  9217     13BB                     l2736:
  9218                           
  9219                           ;lcd.c: 64:  PORTDbits.RD0 = 0;
  9220     13BB  1008               	bcf	8,0	;volatile
  9221     13BC                     l2738:
  9222                           
  9223                           ;lcd.c: 65:  PORTDbits.RD1 = 1;
  9224     13BC  1488               	bsf	8,1	;volatile
  9225     13BD                     l2740:
  9226                           
  9227                           ;lcd.c: 66:  __nop();
  9228     13BD  0000               	nop
  9229     13BE                     l2742:
  9230                           
  9231                           ;lcd.c: 67:  PORTDbits.RD1 = 0;
  9232     13BE  1283               	bcf	3,5	;RP0=0, select bank0
  9233     13BF  1303               	bcf	3,6	;RP1=0, select bank0
  9234     13C0  1088               	bcf	8,1	;volatile
  9235     13C1                     l2744:
  9236                           
  9237                           ;lcd.c: 68:  _delay((unsigned long)((1)*(8000000/4000.0)));
  9238     13C1  3003               	movlw	3
  9239     13C2  00F1               	movwf	??_LCD_Command+1
  9240     13C3  3097               	movlw	151
  9241     13C4  00F0               	movwf	??_LCD_Command
  9242     13C5                     u5867:
  9243     13C5  0BF0               	decfsz	??_LCD_Command,f
  9244     13C6  2BC5               	goto	u5867
  9245     13C7  0BF1               	decfsz	??_LCD_Command+1,f
  9246     13C8  2BC5               	goto	u5867
  9247     13C9  2BCA               	nop2
  9248     13CA                     l2746:
  9249                           
  9250                           ;lcd.c: 69:     PORTD = (unsigned char)((PORTD & 0x0f) | (cmd<<4));
  9251     13CA  0872               	movf	LCD_Command@cmd,w
  9252     13CB  00F0               	movwf	??_LCD_Command
  9253     13CC  3004               	movlw	4
  9254     13CD                     u3375:
  9255     13CD  1003               	clrc
  9256     13CE  0DF0               	rlf	??_LCD_Command,f
  9257     13CF  3EFF               	addlw	-1
  9258     13D0  1D03               	skipz
  9259     13D1  2BCD               	goto	u3375
  9260     13D2  1283               	bcf	3,5	;RP0=0, select bank0
  9261     13D3  1303               	bcf	3,6	;RP1=0, select bank0
  9262     13D4  0808               	movf	8,w	;volatile
  9263     13D5  390F               	andlw	15
  9264     13D6  0470               	iorwf	??_LCD_Command,w
  9265     13D7  0088               	movwf	8	;volatile
  9266     13D8                     l2748:
  9267                           
  9268                           ;lcd.c: 70:  PORTDbits.RD1 = 1;
  9269     13D8  1488               	bsf	8,1	;volatile
  9270     13D9                     l2750:
  9271                           
  9272                           ;lcd.c: 71:  __nop();
  9273     13D9  0000               	nop
  9274     13DA                     l2752:
  9275                           
  9276                           ;lcd.c: 72:  PORTDbits.RD1 = 0;
  9277     13DA  1283               	bcf	3,5	;RP0=0, select bank0
  9278     13DB  1303               	bcf	3,6	;RP1=0, select bank0
  9279     13DC  1088               	bcf	8,1	;volatile
  9280                           
  9281                           ;lcd.c: 73:  _delay((unsigned long)((3)*(8000000/4000.0)));
  9282     13DD  3008               	movlw	8
  9283     13DE  00F1               	movwf	??_LCD_Command+1
  9284     13DF  30C9               	movlw	201
  9285     13E0  00F0               	movwf	??_LCD_Command
  9286     13E1                     u5877:
  9287     13E1  0BF0               	decfsz	??_LCD_Command,f
  9288     13E2  2BE1               	goto	u5877
  9289     13E3  0BF1               	decfsz	??_LCD_Command+1,f
  9290     13E4  2BE1               	goto	u5877
  9291     13E5  2BE6               	nop2
  9292     13E6                     l158:
  9293     13E6  0008               	return
  9294     13E7                     __end_of_LCD_Command:
  9295                           
  9296                           	psect	text33
  9297     1266                     __ptext33:	
  9298 ;; *************** function _ADC_Init *****************
  9299 ;; Defined at:
  9300 ;;		line 42 in file "Sensors_Control.c"
  9301 ;; Parameters:    Size  Location     Type
  9302 ;;		None
  9303 ;; Auto vars:     Size  Location     Type
  9304 ;;		None
  9305 ;; Return value:  Size  Location     Type
  9306 ;;                  1    wreg      void 
  9307 ;; Registers used:
  9308 ;;		wreg, status,2, status,0
  9309 ;; Tracked objects:
  9310 ;;		On entry : 0/0
  9311 ;;		On exit  : 0/0
  9312 ;;		Unchanged: 0/0
  9313 ;; Data sizes:     COMMON   BANK0   BANK1   BANK3   BANK2
  9314 ;;      Params:         0       0       0       0       0
  9315 ;;      Locals:         0       0       0       0       0
  9316 ;;      Temps:          0       0       0       0       0
  9317 ;;      Totals:         0       0       0       0       0
  9318 ;;Total ram usage:        0 bytes
  9319 ;; Hardware stack levels used: 1
  9320 ;; This function calls:
  9321 ;;		Nothing
  9322 ;; This function is called by:
  9323 ;;		_main
  9324 ;; This function uses a non-reentrant model
  9325 ;;
  9326                           
  9327     1266                     _ADC_Init:	
  9328                           ;psect for function _ADC_Init
  9329                           
  9330     1266                     l3268:	
  9331                           ;incstack = 0
  9332                           ; Regs used in _ADC_Init: [wreg+status,2+status,0]
  9333                           
  9334                           
  9335                           ;Sensors_Control.c: 43:     ADCON1bits.ADFM = 1;
  9336     1266  1683               	bsf	3,5	;RP0=1, select bank1
  9337     1267  1303               	bcf	3,6	;RP1=0, select bank1
  9338     1268  179F               	bsf	31,7	;volatile
  9339                           
  9340                           ;Sensors_Control.c: 44:     ADCON1bits.VCFG0 = 0;
  9341     1269  121F               	bcf	31,4	;volatile
  9342                           
  9343                           ;Sensors_Control.c: 45:     ADCON1bits.VCFG1 = 0;
  9344     126A  129F               	bcf	31,5	;volatile
  9345     126B                     l3270:
  9346                           
  9347                           ;Sensors_Control.c: 46:     ADCON0bits.ADCS = 0b01;
  9348     126B  1283               	bcf	3,5	;RP0=0, select bank0
  9349     126C  1303               	bcf	3,6	;RP1=0, select bank0
  9350     126D  081F               	movf	31,w	;volatile
  9351     126E  393F               	andlw	-193
  9352     126F  3840               	iorlw	64
  9353     1270  009F               	movwf	31	;volatile
  9354     1271                     l284:
  9355     1271  0008               	return
  9356     1272                     __end_of_ADC_Init:
  9357     007E                     btemp	set	126	;btemp
  9358     007E                     wtemp0	set	126
  9359                           
  9360                           	psect	config
  9361                           
  9362                           ;Config register CONFIG1 @ 0x2007
  9363                           ;	Oscillator Selection bits
  9364                           ;	FOSC = INTRC_CLKOUT, INTOSC oscillator: CLKOUT function on RA6/OSC2/CLKOUT pin, I/O fu
      +                          nction on RA7/OSC1/CLKIN
  9365                           ;	Watchdog Timer Enable bit
  9366                           ;	WDTE = OFF, WDT disabled and can be enabled by SWDTEN bit of the WDTCON register
  9367                           ;	Power-up Timer Enable bit
  9368                           ;	PWRTE = OFF, PWRT disabled
  9369                           ;	RE3/MCLR pin function select bit
  9370                           ;	MCLRE = OFF, RE3/MCLR pin function is digital input, MCLR internally tied to VDD
  9371                           ;	Code Protection bit
  9372                           ;	CP = OFF, Program memory code protection is disabled
  9373                           ;	Data Code Protection bit
  9374                           ;	CPD = OFF, Data memory code protection is disabled
  9375                           ;	Brown Out Reset Selection bits
  9376                           ;	BOREN = OFF, BOR disabled
  9377                           ;	Internal External Switchover bit
  9378                           ;	IESO = OFF, Internal/External Switchover mode is disabled
  9379                           ;	Fail-Safe Clock Monitor Enabled bit
  9380                           ;	FCMEN = OFF, Fail-Safe Clock Monitor is disabled
  9381                           ;	Low Voltage Programming Enable bit
  9382                           ;	LVP = OFF, RB3 pin has digital I/O, HV on MCLR must be used for programming
  9383                           ;	In-Circuit Debugger Mode bit
  9384                           ;	DEBUG = 0x1, unprogrammed default
  9385     2007                     	org	8199
  9386     2007  20D5               	dw	8405
  9387                           
  9388                           ;Config register CONFIG2 @ 0x2008
  9389                           ;	Brown-out Reset Selection bit
  9390                           ;	BOR4V = BOR40V, Brown-out Reset set to 4.0V
  9391                           ;	Flash Program Memory Self Write Enable bits
  9392                           ;	WRT = OFF, Write protection off
  9393     2008                     	org	8200
  9394     2008  3FFF               	dw	16383

Data Sizes:
    Strings     127
    Constant    51
    Data        16
    BSS         31
    Persistent  0
    Stack       0

Auto Spaces:
    Space          Size  Autos    Used
    COMMON           14     14      14
    BANK0            80     79      80
    BANK1            80     51      64
    BANK3            96      0      33
    BANK2            96      0       0

Pointer List with Targets:

    strncmp@s2	PTR const unsigned char  size(1) Largest target is 5
		 -> password(CODE[5]), 

    strncmp@s1	PTR const unsigned char  size(1) Largest target is 5
		 -> pass_user(BANK1[5]), 

    frexp@eptr	PTR int  size(1) Largest target is 2
		 -> log@exponent(BANK0[2]), 

    eval_poly@d	PTR const  size(1) Largest target is 36
		 -> log@coeff(CODE[36]), 

    sprintf@f	PTR const unsigned char  size(1) Largest target is 19
		 -> STR_8(CODE[6]), STR_1(CODE[19]), 

    sprintf@sp	PTR unsigned char  size(1) Largest target is 17
		 -> buffer(BANK3[17]), 

    sprintf@ap	PTR void [1] size(1) Largest target is 2
		 -> ?_sprintf(BANK0[2]), 

    LCD_String_xy@msg	PTR const unsigned char  size(2) Largest target is 17
		 -> STR_9(CODE[13]), STR_7(CODE[16]), STR_6(CODE[16]), STR_5(CODE[13]), 
		 -> STR_4(CODE[17]), STR_3(CODE[15]), STR_2(CODE[12]), buffer(BANK3[17]), 

    LCD_String@msg	PTR const unsigned char  size(2) Largest target is 17
		 -> STR_9(CODE[13]), STR_7(CODE[16]), STR_6(CODE[16]), STR_5(CODE[13]), 
		 -> STR_4(CODE[17]), STR_3(CODE[15]), STR_2(CODE[12]), buffer(BANK3[17]), 


Critical Paths under _main in COMMON

    _main->_function_Alarm
    _main->_function_Environment
    _main->_function_Security
    _function_Security->_LCD_String_xy
    _function_Locked->_LCD_String_xy
    _sprintf->___lwmod
    ___lwmod->___lwdiv
    _Calculus_Temperature->___xxtofl
    _log->___xxtofl
    _log->_frexp
    _frexp->___fleq
    ___flmul->___xxtofl
    ___flmul->_frexp
    ___fladd->___xxtofl
    ___fladd->_frexp
    ___fldiv->___xxtofl
    ___fldiv->_frexp
    _function_Environment->_LCD_String_xy
    _function_Alarm->_LCD_String_xy
    _LCD_String_xy->_LCD_String
    _LCD_String->_LCD_Char
    _LCD_Clear->_LCD_Command
    _LCD_Init->_LCD_Command

Critical Paths under _main in BANK0

    _function_Security->_keypad_getkey
    _function_Monitoring->_sprintf
    _Calculus_Temperature->_log
    _log->___fladd
    _eval_poly->___fladd
    ___flmul->_frexp
    ___fladd->___fldiv
    ___fldiv->___flmul

Critical Paths under _main in BANK1

    _main->_function_Environment_alarm
    _function_Environment_alarm->_Calculus_Temperature
    _Calculus_Temperature->_log
    _log->_eval_poly

Critical Paths under _main in BANK3

    None.

Critical Paths under _main in BANK2

    None.

Call Graph Tables:

 ---------------------------------------------------------------------------------
 (Depth) Function   	        Calls       Base Space   Used Autos Params    Refs
 ---------------------------------------------------------------------------------
 (0) _main                                                 0     0      0   42189
                           _ADC_Init
                           _LCD_Init
                     _function_Alarm
               _function_Environment
         _function_Environment_alarm
                    _function_Locked
                _function_Monitoring
                  _function_Security
                        _keypad_init
 ---------------------------------------------------------------------------------
 (1) _keypad_init                                          0     0      0       0
 ---------------------------------------------------------------------------------
 (1) _function_Security                                    4     4      0    2751
                                             10 COMMON     4     4      0
                           _LCD_Char
                          _LCD_Clear
                        _LCD_Command
                      _LCD_String_xy
                      _keypad_getkey
                            _strncmp
 ---------------------------------------------------------------------------------
 (3) _strncmp                                              6     3      3     319
                                              0 COMMON     6     3      3
 ---------------------------------------------------------------------------------
 (2) _keypad_getkey                                       23    23      0     542
                                              0 COMMON     4     4      0
                                              0 BANK0     19    19      0
 ---------------------------------------------------------------------------------
 (1) _function_Monitoring                                  8     8      0    3085
                                             19 BANK0      6     6      0
                      _LCD_String_xy
                        _Sensors_IHM
                            _sprintf
 ---------------------------------------------------------------------------------
 (2) _Sensors_IHM                                          1     1      0      26
                                              0 COMMON     1     1      0
 ---------------------------------------------------------------------------------
 (1) _function_Locked                                      3     3      0    1756
                                             10 COMMON     3     3      0
                          _LCD_Clear
                      _LCD_String_xy
 ---------------------------------------------------------------------------------
 (1) _function_Environment_alarm                          13    13      0   30993
                                             44 BANK1      7     7      0
               _Calculus_Temperature
                          _LCD_Clear
                      _LCD_String_xy
                         _Use_Chanel
                            _sprintf
 ---------------------------------------------------------------------------------
 (2) _sprintf                                             27    20      7    1346
                                              0 BANK0     19    12      7
                            ___lwdiv
                            ___lwmod
 ---------------------------------------------------------------------------------
 (3) ___lwmod                                              5     1      4     311
                                              7 COMMON     5     1      4
                            ___lwdiv (ARG)
 ---------------------------------------------------------------------------------
 (3) ___lwdiv                                              7     3      4     314
                                              0 COMMON     7     3      4
 ---------------------------------------------------------------------------------
 (2) _Use_Chanel                                           3     1      2     250
                                              0 COMMON     3     1      2
 ---------------------------------------------------------------------------------
 (2) _Calculus_Temperature                                28    26      2   27533
                                             20 BANK1     24    22      2
                            ___fladd
                            ___fldiv
                            ___fltol
                           ___xxtofl
                                _log
 ---------------------------------------------------------------------------------
 (3) _log                                                  6     2      4   20328
                                             77 BANK0      2     2      0
                                             16 BANK1      4     0      4
                            ___fladd
                            ___fldiv (ARG)
                             ___fleq
                             ___flge
                            ___flmul
                           ___xxtofl
                          _eval_poly
                              _frexp
 ---------------------------------------------------------------------------------
 (4) _frexp                                                7     2      5    1132
                                             12 COMMON     2     2      0
                                              0 BANK0      5     0      5
                             ___fleq
 ---------------------------------------------------------------------------------
 (5) ___fleq                                              12     4      8     630
                                              0 COMMON    12     4      8
 ---------------------------------------------------------------------------------
 (4) _eval_poly                                           16     9      7    8719
                                              0 BANK1     16     9      7
                            ___fladd
                            ___fldiv (ARG)
                            ___flmul
 ---------------------------------------------------------------------------------
 (5) ___flmul                                             26    18      8    3853
                                              5 BANK0     26    18      8
                          __Umul8_16
                           ___xxtofl (ARG)
                              _frexp (ARG)
 ---------------------------------------------------------------------------------
 (6) __Umul8_16                                            9     7      2     980
                                              0 COMMON     9     7      2
 ---------------------------------------------------------------------------------
 (5) ___fladd                                             20    12      8    4342
                                             57 BANK0     20    12      8
                            ___fldiv (ARG)
                            ___flmul (ARG)
                           ___xxtofl (ARG)
                              _frexp (ARG)
 ---------------------------------------------------------------------------------
 (4) ___xxtofl                                            14    10      4     656
                                              0 COMMON    14    10      4
 ---------------------------------------------------------------------------------
 (4) ___flge                                              12     4      8     586
                                              0 COMMON    12     4      8
 ---------------------------------------------------------------------------------
 (3) ___fltol                                             10     6      4     305
                                              0 COMMON    10     6      4
 ---------------------------------------------------------------------------------
 (3) ___fldiv                                             26    18      8    1577
                                             31 BANK0     26    18      8
                          __Umul8_16 (ARG)
                             ___fleq (ARG)
                             ___flge (ARG)
                            ___flmul (ARG)
                           ___xxtofl (ARG)
                              _frexp (ARG)
 ---------------------------------------------------------------------------------
 (1) _function_Environment                                 4     4      0    1780
                                             10 COMMON     4     4      0
                          _LCD_Clear
                      _LCD_String_xy
 ---------------------------------------------------------------------------------
 (1) _function_Alarm                                       4     4      0    1780
                                             10 COMMON     4     4      0
                          _LCD_Clear
                      _LCD_String_xy
 ---------------------------------------------------------------------------------
 (2) _LCD_String_xy                                        5     2      3    1712
                                              5 COMMON     5     2      3
                        _LCD_Command
                         _LCD_String
 ---------------------------------------------------------------------------------
 (3) _LCD_String                                           2     0      2     165
                                              3 COMMON     2     0      2
                           _LCD_Char
 ---------------------------------------------------------------------------------
 (4) _LCD_Char                                             3     3      0      44
                                              0 COMMON     3     3      0
 ---------------------------------------------------------------------------------
 (2) _LCD_Clear                                            2     2      0      44
                                              3 COMMON     2     2      0
                        _LCD_Command
 ---------------------------------------------------------------------------------
 (1) _LCD_Init                                             2     2      0      44
                                              3 COMMON     2     2      0
                        _LCD_Command
 ---------------------------------------------------------------------------------
 (3) _LCD_Command                                          3     3      0      44
                                              0 COMMON     3     3      0
 ---------------------------------------------------------------------------------
 (1) _ADC_Init                                             0     0      0       0
 ---------------------------------------------------------------------------------
 Estimated maximum stack depth 6
 ---------------------------------------------------------------------------------

 Call Graph Graphs:

 _main (ROOT)
   _ADC_Init
   _LCD_Init
     _LCD_Command
   _function_Alarm
     _LCD_Clear
       _LCD_Command
     _LCD_String_xy
       _LCD_Command
       _LCD_String
         _LCD_Char
   _function_Environment
     _LCD_Clear
     _LCD_String_xy
   _function_Environment_alarm
     _Calculus_Temperature
       ___fladd
         ___fldiv (ARG)
           __Umul8_16 (ARG)
           ___fleq (ARG)
           ___flge (ARG)
           ___flmul (ARG)
             __Umul8_16
             ___xxtofl (ARG)
             _frexp (ARG)
               ___fleq
           ___xxtofl (ARG)
           _frexp (ARG)
         ___flmul (ARG)
         ___xxtofl (ARG)
         _frexp (ARG)
       ___fldiv
       ___fltol
       ___xxtofl
       _log
         ___fladd
         ___fldiv (ARG)
         ___fleq (ARG)
         ___flge (ARG)
         ___flmul (ARG)
         ___xxtofl (ARG)
         _eval_poly (ARG)
           ___fladd
           ___fldiv (ARG)
           ___flmul (ARG)
         _frexp (ARG)
     _LCD_Clear
     _LCD_String_xy
     _Use_Chanel
     _sprintf
       ___lwdiv
       ___lwmod
         ___lwdiv (ARG)
   _function_Locked
     _LCD_Clear
     _LCD_String_xy
   _function_Monitoring
     _LCD_String_xy
     _Sensors_IHM
     _sprintf
   _function_Security
     _LCD_Char
     _LCD_Clear
     _LCD_Command
     _LCD_String_xy
     _keypad_getkey
     _strncmp
   _keypad_init

 Address spaces:
Name               Size   Autos  Total    Cost      Usage
BANK3               60      0      21       9       34.4%
BITBANK3            60      0       0       8        0.0%
SFR3                 0      0       0       4        0.0%
BITSFR3              0      0       0       4        0.0%
BANK2               60      0       0      11        0.0%
BITBANK2            60      0       0      10        0.0%
SFR2                 0      0       0       5        0.0%
BITSFR2              0      0       0       5        0.0%
BANK1               50     33      40       7       80.0%
BITBANK1            50      0       0       6        0.0%
SFR1                 0      0       0       2        0.0%
BITSFR1              0      0       0       2        0.0%
BANK0               50     4F      50       5      100.0%
BITBANK0            50      0       0       4        0.0%
SFR0                 0      0       0       1        0.0%
BITSFR0              0      0       0       1        0.0%
COMMON               E      E       E       1      100.0%
BITCOMMON            E      0       0       0        0.0%
CODE                 0      0       0       0        0.0%
DATA                 0      0      BF      12        0.0%
ABS                  0      0      BF       3        0.0%
NULL                 0      0       0       0        0.0%
STACK                0      0       0       2        0.0%
EEDATA             100      0       0       0        0.0%


Microchip Technology PIC Macro Assembler V2.41 build 20230208172133 
Symbol Table                                                                                   Fri Nov 03 23:42:48 2023

                                 ___fldiv@aexp 0058                                   ___fldiv@bexp 0057  
                                            pc 0002                                   ___fldiv@sign 0050  
                                 ?_LCD_Command 0070                                             l81 127D  
                                           fsr 0004                                    ?_LCD_String 0073  
                          __Umul8_16@word_mpld 0076                                            l140 0C3C  
                                          l161 141C                                            l250 1469  
                                          l234 16B1                                            l155 1385  
                                          l251 1493                                            l243 17FF  
                                          l172 1334                                            l252 1497  
                                          l261 14AA                                            l158 13E6  
                                          l262 14D4                                            l246 13B0  
                                          l175 128D                                            l167 130E  
                                          l263 14D8                                            l409 0D2E  
                                          l257 09C8                                            l290 12E8  
                                          l284 1271                                            l293 0FFF  
                                          l606 161F                                            l710 031D  
                                          l287 12DD                                            l712 02F6  
                                          l296 12BA                                            l609 1634  
                                          l289 12E1                                            l297 12C0  
                                          l706 029A                                            l802 07DB  
                                          l731 040A                                            l299 12C7  
                                          l821 1349                                            l590 173A  
                                          l582 08E9                                            l591 1753  
                                          l727 03E6                                            l719 0496  
                                          l823 135B                                            l583 0905  
                                          l808 074B                                            l584 091A  
                                          l737 042C                                            l762 00C6  
                                          l587 16CE                                            l764 023E  
                                          l860 0A56                                            l749 0496  
                                          l685 151C                                            l909 1562  
                                          l846 09EB                                            l599 1634  
                                          l695 1456                                            l784 022A  
                                          l848 0A80                                            l873 0E74  
                                          l778 01B8                                            l859 0A4A  
                                          l891 15BE                                            l885 0B5A  
                                          _RC0 0038                                            _RC1 0039  
                                          _RC2 003A                                            _RE0 0048  
                                          _RE1 0049                                            _RE2 004A  
                                          _idx 00D6                                            _log 0D2F  
                                          fsr0 0004                                            indf 0000  
                                 ___flmul@aexp 0033                                   ___flmul@bexp 0038  
                                 ___flmul@sign 0032                                   ___flmul@temp 003D  
                                 ___flmul@prod 0039                                    LCD_Char@dat 0072  
                                 ___fltol@exp1 0079                                           l3000 0229  
                                         l3002 022E                                           l3004 0232  
                                         l3100 0C19                                           l3020 0B71  
                                         l3006 0234                                           l3110 0C2C  
                                         l3102 0C1B                                           l3030 0B7E  
                                         l3022 0B74                                           l3120 1316  
                                         l3008 0238                                           l4000 0FEA  
                                         l3200 0CD2                                           l3112 0C39  
                                         l3104 0C20                                           l3040 0B96  
                                         l3032 0B86                                           l3016 0B5B  
                                         l3130 127E                                           l3122 131A  
                                         l3202 0CFE                                           l3210 0D16  
                                         l4010 0933                                           l3106 0C22  
                                         l3050 0BA9                                           l3042 0B98  
                                         l3034 0B88                                           l3018 0B71  
                                         l3132 1284                                           l3124 1321  
                                         l3116 1310                                           l3204 0D03  
                                         l3212 0D26                                           l4020 0989  
                                         l4012 0942                                           l4004 091B  
                                         l3140 12BE                                           l3108 0C26  
                                         l3060 0BC1                                           l3052 0BB1  
                                         l3044 0B9D                                           l3036 0B8F  
                                         l3028 0B76                                           l3300 1770  
                                         l3126 1325                                           l3118 1310  
                                         l3214 0D2A                                           l3206 0D07  
                                         l3150 0C42                                           l4030 09B5  
                                         l4022 0998                                           l4014 095A  
                                         l4006 0920                                           l3142 12C4  
                                         l3134 12B1                                           l3070 0BD5  
                                         l3062 0BC3                                           l3054 0BB3  
                                         l3046 0B9F                                           l3038 0B91  
                                         l3222 151E                                           l3310 178F  
                                         l3302 1775                                           l3128 132B  
                                         l3240 12C8                                           l3208 0D0D  
                                         l3160 0C5B                                           l3152 0C45  
                                         l4032 09C4                                           l4024 09A7  
                                         l4016 0968                                           l4008 092B  
                                         l3144 12C6                                           l3136 12B2  
                                         l3080 0BED                                           l3072 0BDD  
                                         l3064 0BC8                                           l3056 0BBA  
                                         l3048 0BA3                                           l3232 154A  
                                         l3224 151F                                           l3320 17C1  
                                         l3312 17A1                                           l3304 177B  
                                         l4040 000E                                           l3242 12D4  
                                         l3170 0C85                                           l3154 0C4B  
                                         l4026 09AC                                           l4018 097E  
                                         l3138 12B8                                           l3090 0C01  
                                         l3082 0BEF                                           l3074 0BDF  
                                         l3066 0BCA                                           l3058 0BBC  
                                         l3226 1527                                           l3234 1552  
                                         l3330 17DA                                           l3322 17C4  
                                         l3314 17A6                                           l3306 1783  
                                         l4050 001E                                           l4042 0011  
                                         l4034 0006                                           l2620 13F2  
                                         l3420 14AD                                           l3500 1336  
                                         l3244 12D5                                           l3172 0C89  
                                         l3164 0C5C                                           l3156 0C50  
                                         l3148 0C40                                           l4028 09B0  
                                         l3092 0C09                                           l3084 0BF4  
                                         l3076 0BE6                                           l3068 0BCE  
                                         l3236 1560                                           l3228 1537  
                                         l3340 17F9                                           l3332 17E7  
                                         l3316 17B1                                           l3324 17C7  
                                         l3308 1787                                           l4060 0038  
                                         l4052 0023                                           l4044 0013  
                                         l4036 000A                                           l3270 126B  
                                         l2630 140E                                           l2622 13F3  
                                         l3422 14BA                                           l3414 1498  
                                         l3510 1357                                           l3502 1338  
                                         l3246 12DA                                           l3190 0CBA  
                                         l3182 0C94                                           l3174 0C8D  
                                         l3166 0C79                                           l3158 0C54  
                                         l3350 165B                                           l3094 0C0B  
                                         l3086 0BF6                                           l3078 0BE8  
                                         l3342 17FB                                           l3334 17EA  
                                         l3326 17CC                                           l3318 17B4  
                                         l4070 0055                                           l4062 003D  
                                         l4054 0028                                           l4046 0015  
                                         l4038 000B                                           l3280 1373  
                                         l3272 135C                                           l2632 140F  
                                         l2624 13F4                                           l2616 13E8  
                                         l3424 14CA                                           l3416 1499  
                                         l2800 15F3                                           l3600 02C2  
                                         l3504 133F                                           l3520 0917  
                                         l3248 12E2                                           l3192 0CC0  
                                         l3176 0C92                                           l3168 0C81  
                                         l3360 1396                                           l3352 1684  
                                         l3344 1635                                           l3096 0C12  
                                         l3088 0BFA                                           l3336 17F0  
                                         l3328 17D7                                           l4072 005B  
                                         l4064 0043                                           l4056 002B  
                                         l4048 0019                                           l3282 1379  
                                         l3274 135F                                           l2634 1410  
                                         l2626 13F7                                           l2618 13F1  
                                         l3370 1457                                           l3426 14CE  
                                         l3418 149E                                           l2810 160D  
                                         l3610 02FA                                           l3602 02C4  
                                         l3530 0248                                           l3506 1343  
                                         l3522 0919                                           l3514 08CD  
                                         l3194 0CC5                                           l3186 0CB0  
                                         l3362 1399                                           l3354 169E  
                                         l3346 164D                                           l3098 0C14  
                                         l3338 17F1                                           l3290 1754  
                                         l4074 0061                                           l4066 0049  
                                         l4058 0032                                           l3268 1266  
                                         l2740 13BD                                           l3284 137F  
                                         l3276 1367                                           l2628 1400  
                                         l3380 1489                                           l3372 1458  
                                         l2900 00AE                                           l2820 1629  
                                         l3700 0448                                           l3620 0311  
                                         l3612 0301                                           l3604 02C6  
                                         l3540 025F                                           l3532 024C  
                                         l3508 1352                                           l3516 08E1  
                                         l3196 0CC9                                           l3188 0CB4  
                                         l3364 13A5                                           l3356 1386  
                                         l3348 1657                                           l3292 1754  
                                         l4076 0067                                           l4068 004F  
                                         l2750 13D9                                           l2742 13BE  
                                         l2734 13B2                                           l3278 136D  
                                         l3382 148D                                           l3374 145D  
                                         l2910 00CE                                           l2902 00B3  
                                         l2806 15FB                                           l3710 047C  
                                         l3702 0466                                           l3630 032F  
                                         l3614 0303                                           l3622 0315  
                                         l3606 02C7                                           l3550 0273  
                                         l3542 0260                                           l3534 024D  
                                         l3526 023F                                           l3518 08FD  
                                         l2830 14EB                                           l2822 14D9  
                                         l3198 0CCF                                           l3366 13A8  
                                         l3358 138B                                           l3294 1759  
                                         l3286 1272                                           l2752 13DA  
                                         l2744 13C1                                           l2736 13BB  
                                         l2760 12FE                                           l3376 146C  
                                         l2920 00EC                                           l2912 00DA  
                                         l2904 00BB                                           l2816 1614  
                                         l2808 1604                                           l3720 048C  
                                         l3712 0481                                           l3704 046A  
                                         l3640 0357                                           l3632 0346  
                                         l3624 0321                                           l3616 0307  
                                         l3608 02DE                                           l3560 0282  
                                         l3552 0274                                           l3536 0252  
                                         l3544 0262                                           l3528 0244  
                                         l3800 0670                                           l2840 150B  
                                         l2832 14EF                                           l2824 14DB  
                                         l3368 13AD                                           l3296 1764  
                                         l3288 127C                                           l2746 13CA  
                                         l2738 13BC                                           l2754 12E9  
                                         l3378 1479                                           l2930 0117  
                                         l2914 00DE                                           l2906 00BC  
                                         l2818 1624                                           l3722 0491  
                                         l3714 0482                                           l3706 046F  
                                         l3650 0380                                           l3642 035B  
                                         l3634 034A                                           l3626 0326  
                                         l3618 0308                                           l3570 02A0  
                                         l3562 0287                                           l3554 0278  
                                         l3546 026A                                           l3538 0257  
                                         l3810 0700                                           l3802 067E  
                                         l3730 04A0                                           l2842 1512  
                                         l2834 14F3                                           l2826 14E1  
                                         l2850 1423                                           l4098 0C6E  
                                         l3298 176A                                           l2748 13D8  
                                         l2756 12EA                                           l2940 013C  
                                         l2932 011F                                           l2924 00F5  
                                         l2908 00BE                                           l3900 09FC  
                                         l3724 0495                                           l3716 0486  
                                         l3708 0474                                           l3652 03BE  
                                         l3660 03D8                                           l3644 035C  
                                         l3636 034E                                           l3580 02AE  
                                         l3572 02A4                                           l3564 028F  
                                         l3556 027C                                           l3548 026D  
                                         l3820 0725                                           l3812 070E  
                                         l3804 06A9                                           l3740 04B7  
                                         l3732 04A4                                           l2836 1504  
                                         l2828 14E4                                           l2844 1518  
                                         l2860 143F                                           l2852 1426  
                                         l2758 12F8                                           l2950 0167  
                                         l2942 013D                                           l2934 0121  
                                         l2926 0107                                           l2918 00E7  
                                         l2870 0070                                           l2790 15D1  
                                         l3910 0A17                                           l3902 09FF  
                                         l3718 0488                                           l3670 0405  
                                         l3662 03EE                                           l3654 03C2  
                                         l3646 0365                                           l3638 0355  
                                         l3590 02B8                                           l3582 02B0  
                                         l3574 02A8                                           l3566 0290  
                                         l3558 027D                                           l3830 0748  
                                         l3814 0717                                           l3822 072B  
                                         l3806 06CF                                           l3750 04CE  
                                         l3742 04B9                                           l3734 04A5  
                                         l3726 0497                                           l2838 150A  
                                         l2862 1445                                           l2854 142D  
                                         l2960 0184                                           l2936 0126  
                                         l2944 0146                                           l2952 016B  
                                         l2928 010F                                           l2880 0083  
                                         l2872 0075                                           l2792 15E4  
                                         l2784 15BF                                           l3920 0A44  
                                         l3912 0A25                                           l3904 0A03  
                                         l3680 0418                                           l3672 0409  
                                         l3664 03F3                                           l3656 03C4  
                                         l3648 036A                                           l3592 02BA  
                                         l3584 02B2                                           l3576 02AA  
                                         l3568 0292                                           l3840 0767  
                                         l3824 072F                                           l3816 071B  
                                         l3808 06F7                                           l3760 04E3  
                                         l3752 04CF                                           l3744 04C1  
                                         l3736 04AA                                           l3728 049C  
                                         l2864 144C                                           l2856 1431  
                                         l2848 141D                                           l2970 019C  
                                         l2962 0188                                           l2954 0171  
                                         l2946 0158                                           l2938 0138  
                                         l2890 009B                                           l2882 0088  
                                         l2874 0079                                           l2794 15E5  
                                         l2786 15C8                                           l3930 0A77  
                                         l3922 0A4E                                           l3914 0A2E  
                                         l3906 0A0C                                           l3690 0429  
                                         l3674 040E                                           l3682 041A  
                                         l3658 03C9                                           l3594 02BC  
                                         l3586 02B4                                           l3578 02AC  
                                         l3850 07AD                                           l3842 0780  
                                         l3834 0750                                           l3826 0730  
                                         l3818 071C                                           l3770 04FE  
                                         l3762 04EB                                           l3754 04D4  
                                         l3746 04C6                                           l3738 04AF  
                                         l2858 1435                                           l2866 1452  
                                         l2980 01BD                                           l2972 019D  
                                         l2964 0189                                           l2956 0179  
                                         l2948 0159                                           l2892 00A0  
                                         l2884 0090                                           l2876 007D  
                                         l2796 15ED                                           l3932 0A78  
                                         l3924 0A58                                           l3916 0A35  
                                         l3908 0A13                                           l3676 0411  
                                         l3668 03FC                                           l3684 041E  
                                         l3596 02BE                                           l3588 02B6  
                                         l3860 07CA                                           l3852 07B7  
                                         l3836 0755                                           l3844 0786  
                                         l3828 0734                                           l3780 057A  
                                         l3772 050C                                           l3764 04F0  
                                         l3756 04D9                                           l3748 04CA  
                                         l3940 1586                                           l2982 01C2  
                                         l2990 01F3                                           l2974 01A1  
                                         l2966 0192                                           l2958 017B  
                                         l2894 00A4                                           l2886 0091  
                                         l2878 007E                                           l2798 15EF  
                                         l3870 16C6                                           l3926 0A6E  
                                         l3918 0A40                                           l3694 0431  
                                         l3686 041F                                           l3678 0413  
                                         l3598 02C0                                           l3854 07B9  
                                         l3862 07CF                                           l3846 0793  
                                         l3838 0763                                           l3790 05E6  
                                         l3782 0596                                           l3774 0519  
                                         l3766 04F5                                           l3758 04E1  
                                         l3950 15BD                                           l2992 0200  
                                         l2984 01D0                                           l2976 01B5  
                                         l2968 0198                                           l2896 00A8  
                                         l2888 0093                                           l3880 1716  
                                         l3872 16E2                                           l3928 0A73  
                                         l3696 0436                                           l3688 0423  
                                         l3864 07D3                                           l3856 07C5  
                                         l3848 079E                                           l3792 05F4  
                                         l3784 05B2                                           l3776 0534  
                                         l3960 0B4C                                           l3952 15BE  
                                         l3944 158F                                           l3936 1563  
                                         l2994 020E                                           l2986 01D4  
                                         l2898 00A9                                           l3882 1750  
                                         l3874 16EA                                           l3890 09CF  
                                         l3698 0444                                           l3858 07C9  
                                         l3794 0611                                           l3786 05BB  
                                         l3778 0550                                           l3962 0B52  
                                         l3946 15AC                                           l3938 157E  
                                         l2996 021D                                           l2988 01ED  
                                         l3884 1752                                           l3876 16EE  
                                         l3868 16B2                                           l3892 09D3  
                                         l3796 0628                                           l3788 05C9  
                                         l3956 0A81                                           l3948 15B9  
                                         l3980 0DEA                                           l3972 0D59  
                                         ?_log 00B0                                           l2998 0221  
                                         l3878 1712                                           l3894 09E3  
                                         l3798 0645                                           l3958 0AB0  
                                         l3982 0DF2                                           l3974 0D74  
                                         l3966 0D2F                                           l3990 0E88  
                                         l3896 09F3                                           l3888 09CA  
                                         l3984 0E11                                           l3968 0D4A  
                                         l3992 0EE0                                           l3978 0D83  
                                         l3994 0F2E                                           l3996 0F84  
                                         l3988 0E75                                           l3998 0FC3  
                                         STR_1 0843                                           STR_2 08B0  
                                         STR_3 0887                                           STR_4 0856  
                                         STR_5 08A3                                           STR_6 0867  
                                         STR_7 0877                                           STR_8 08BC  
                                         STR_9 0896                                           u4000 0BB9  
                                         u4001 0BB8                                           u4010 0BC0  
                                         u3115 1403                                           u4011 0BBF  
                                         u4100 0C11                                           u4020 0BC7  
                                         u4101 0C10                                           u4021 0BC6  
                                         u4110 0C18                                           u4030 0BCE  
                                         u4111 0C17                                           u4031 0BCD  
                                         u5000 04D9                                           u4200 0C89  
                                         u4120 0C1F                                           u4040 0BD5  
                                         u5001 04D8                                           u4201 0C88  
                                         u4121 0C1E                                           u4041 0BD4  
                                         u3410 15C8                                           u5010 04F0  
                                         u4210 0CAF                                           u4130 0C26  
                                         u4050 0BE5                                           u3411 15C7  
                                         u5011 04EF                                           u4211 0CAE  
                                         u4131 0C25                                           u4051 0BE4  
                                         u3500 1629                                           u3420 15DF  
                                         u5020 04F5                                           u4220 0CBA  
                                         u4140 0C39                                           u4060 0BEC  
                                         u4300 1775                                           u3501 1628  
                                         u5021 04F4                                           u4221 0CB9  
                                         u4141 0C38                                           u4061 0BEB  
                                         u4301 1774                                           u4150 1316  
                                         u3430 15F3                                           u3510 14E1  
                                         u4230 0CC0                                           u4070 0BF3  
                                         u4310 178F                                           u4151 1315  
                                         u3431 15F2                                           u5111 0637  
                                         u5031 0542                                           u3511 14E0  
                                         u4231 0CBF                                           u4215 0CAB  
                                         u4071 0BF2                                           u4311 178E  
                                         u3440 15FA                                           u5200 071B  
                                         u5112 063E                                           u5032 0549  
                                         u3600 1435                                           u4240 0D16  
                                         u4160 12B8                                           u4080 0BFA  
                                         u4320 17A1                                           u3441 15F9  
                                         u3425 15DA                                           u5201 071A  
                                         u5121 0662                                           u5113 0645  
                                         u5105 0613                                           u5041 055E  
                                         u5033 0550                                           u3601 1434  
                                         u4241 0D15                                           u4161 12B7  
                                         u4145 0C35                                           u4081 0BF9  
                                         u4321 17A0                                           u5122 0669  
                                         u5042 0565                                           u3530 14F3  
                                         u3610 143F                                           u4250 0D26  
                                         u4170 12BE                                           u4090 0C01  
                                         u4330 17F9                                           u5131 068D  
                                         u5123 0670                                           u5051 0588  
                                         u5043 056C                                           u3531 14F2  
                                         u3611 143E                                           u4251 0D25  
                                         u4171 12BD                                           u4091 0C00  
                                         u4331 17F8                                           u3380 130E  
                                         u3700 00CE                                           u3460 160C  
                                         u4500 0252                                           u5300 07AD  
                                         u5220 072F                                           u5140 06B5  
                                         u5132 0694                                           u5052 058F  
                                         u4180 12C4                                           u4340 1657  
                                         u4260 1527                                           u3381 130D  
                                         u3701 00CD                                           u3461 160B  
                                         u4501 0251                                           u5301 07AC  
                                         u5221 072E                                           u5133 069B  
                                         u5061 05A4                                           u5053 0596  
                                         u3525 14E5                                           u4181 12C3  
                                         u4341 1656                                           u4261 1526  
                                         u4350 1493                                           u3710 00EC  
                                         u3470 1613                                           u4510 0257  
                                         u4430 1343                                           u5310 07C9  
                                         u5230 0734                                           u5062 05AB  
                                         u3550 1504                                           u3630 1452  
                                         u4190 0C4B                                           u4270 1537  
                                         u3375 13CD                                           u4351 1492  
                                         u3711 00EB                                           u3471 1612  
                                         u3455 15FC                                           u4511 0256  
                                         u4431 1342                                           u5311 07C8  
                                         u5231 0733                                           u5215 071E  
                                         u5151 06C1                                           u5063 05B2  
                                         u3551 1503                                           u3631 1451  
                                         u3615 143B                                           u4191 0C4A  
                                         u4271 1536                                           u3720 0126  
                                         u3640 007D                                           u5320 16C6  
                                         u5400 09D3                                           u4600 02EA  
                                         u4520 0273                                           u5240 0748  
                                         u5160 06DD                                           u5152 06C8  
                                         u4280 1560                                           u3721 0125  
                                         u3641 007C                                           u5321 16C5  
                                         u5401 09D2                                           u4521 0272  
                                         u5305 07A9                                           u5241 0747  
                                         u5153 06CF                                           u5145 06B0  
                                         u5081 05D8                                           u3545 14F4  
                                         u3625 1446                                           u4281 155F  
                                         u4370 14D4                                           u3810 0188  
                                         u3650 0083                                           u3490 1624  
                                         u5330 16E2                                           u5410 09F3  
                                         u4610 02FA                                           u4530 027C  
                                         u4450 1357                                           u5250 074F  
                                         u5082 05DF                                           u4290 12E1  
                                         u3570 1518                                           u4371 14D3  
                                         u3811 0187                                           u3651 0082  
                                         u3491 1623                                           u5331 16E1  
                                         u5411 09F2                                           u4611 02F9  
                                         u4531 027B                                           u4451 1356  
                                         u5251 074E                                           u5171 06E9  
                                         u5091 0603                                           u5083 05E6  
                                         u5075 05B4                                           u4291 12E0  
                                         u3571 1517                                           u3555 1500  
                                         u3900 0200                                           u3660 0088  
                                         u5340 16EE                                           u5500 0A63  
                                         u4700 035B                                           u4620 0307  
                                         u4540 0282                                           u5260 0755  
                                         u5172 06F0                                           u5092 060A  
                                         u4460 08E1                                           u3580 1423  
                                         u3901 01FF                                           u3805 017D  
                                         u3661 0087                                           u3485 1616  
                                         u5341 16ED                                           u4701 035A  
                                         u4621 0306                                           u4541 0281  
                                         u4445 134A                                           u5261 0754  
                                         u5173 06F7                                           u5165 06D8  
                                         u5093 0611                                           u4461 08E0  
                                         u3565 150C                                           u3581 1422  
                                         u3910 021D                                           u3830 019C  
                                         u3750 013C                                           u3670 00A8  
                                         u5510 0A73                                           u5430 0A12  
                                         u4550 0287                                           u5270 0767  
                                         u4470 08FD                                           u3911 021C  
                                         u3831 019B                                           u3751 013B  
                                         u3735 0128                                           u3671 00A7  
                                         u5351 16FD                                           u5511 0A72  
                                         u5431 0A11                                           u4551 0286  
                                         u5271 0766                                           u4471 08FC  
                                         u3920 0232                                           u3840 01A1  
                                         u3680 00AE                                           u5360 1716  
                                         u5352 16FE                                           u5520 0A77  
                                         u4800 040E                                           u4720 0380  
                                         u4640 031D                                           u4560 02A0  
                                         u5280 0776                                           u4480 0917  
                                         u5600 0032                                           u3921 0231  
                                         u3905 01FC                                           u3841 01A0  
                                         u3825 018B                                           u3745 0131  
                                         u3681 00AD                                           u5361 1715  
                                         u5353 1703                                           u5521 0A76  
                                         u5505 0A5E                                           u5425 0A04  
                                         u4801 040D                                           u4721 037F  
                                         u4641 031C                                           u4561 029F  
                                         u5185 06F9                                           u4481 0916  
                                         u5601 0031                                           u3850 01B5  
                                         u3770 0158                                           u3690 00B3  
                                         u5354 1704                                           u5450 0A34  
                                         u4810 0418                                           u4650 0321  
                                         u4570 02A4                                           u4490 024C  
                                         u5290 0793                                           u5530 157E  
                                         u3930 0B63                                           u5610 003D  
                                         u3915 0219                                           u3851 01B4  
                                         u3771 0157                                           u3691 00B2  
                                         u5371 1725                                           u5355 1709  
                                         u5451 0A33                                           u4811 0417  
                                         u4731 0397                                           u4723 037C  
                                         u4715 035E                                           u4651 0320  
                                         u4635 030A                                           u4571 02A3  
                                         u4491 024B                                           u5291 0792  
                                         u5195 0710                                           u5531 157D  
                                         u3595 1427                                           u5611 003C  
                                         u3860 01BC                                           u3780 0171  
                                         u5380 1750                                           u5372 1726  
                                         u5356 170A                                           u4900 046F  
                                         u4820 041E                                           u4740 03AB  
                                         u4732 0398                                           u4660 0326  
                                         u4580 02DE                                           u3940 0B7E  
                                         u5620 0049                                           u3861 01BB  
                                         u3781 0170                                           u3765 013F  
                                         u5381 174F                                           u5373 172B  
                                         u5445 0A26                                           u4901 046E  
                                         u4821 041D                                           u4741 03AC  
                                         u4733 039D                                           u4661 0325  
                                         u4581 02DD                                           u5285 0771  
                                         u4485 0913                                           u3941 0B7D  
                                         u5621 0048                                           u3870 01C2  
                                         u3790 0179                                           u5374 172C  
                                         u5470 0A44                                           u5390 09CF  
                                         u4910 0474                                           u4830 0423  
                                         u4750 03C9                                           u4742 03B1  
                                         u4734 039E                                           u4590 02E9  
                                         u3950 0B8E                                           u5630 0055  
                                         u3871 01C1                                           u3791 0178  
                                         u3775 0154                                           u5375 1731  
                                         u5471 0A43                                           u5391 09CE  
                                         u4911 0473                                           u4831 0422  
                                         u4751 03C8                                           u4743 03B2  
                                         u4735 03A3                                           u4671 0338  
                                         u4591 02E7                                           u5295 078F  
                                         u3951 0B8D                                           u5631 0054  
                                         u3880 01D4                                           u5376 1732  
                                         u5480 0A4A                                           u4920 0481  
                                         u4840 0429                                           u4760 03EE  
                                         u4736 03A4                                           u4680 034A  
                                         u4672 033F                                           u5560 0B52  
                                         u3960 0B95                                           u5640 0061  
                                         u3881 01D3                                           u5385 174C  
                                         u5481 0A49                                           u5465 0A39  
                                         u4921 0480                                           u4841 0428  
                                         u4761 03ED                                           u4681 0349  
                                         u4673 0346                                           u4585 02DA  
                                         u5561 0B51                                           u5545 0A86  
                                         u3961 0B94                                           u5641 0060  
                                         u3890 01E3                                           u5490 0A4E  
                                         u4930 0486                                           u4850 0430  
                                         u4770 03F3                                           u4690 034E  
                                         u5570 0D4A                                           u3970 0B9C  
                                         u5491 0A4D                                           u4931 0485  
                                         u4851 042F                                           u4771 03F2  
                                         u4691 034D                                           u5555 0AB9  
                                         u5571 0D49                                           u5707 0C05  
                                         u3971 0B9B                                           u4940 0495  
                                         u4860 0436                                           u5580 0D74  
                                         u3980 0BA3                                           u4941 0494  
                                         u4861 0435                                           u5581 0D73  
                                         u5717 1697                                           u3981 0BA2  
                                         u4870 0448                                           u4790 0409  
                                         u4950 04A4                                           u5590 09A7  
                                         u3990 0BA9                                           u5807 1472  
                                         u3895 01DE                                           u4871 0447  
                                         u4791 0408                                           u4951 04A3  
                                         u5591 09A6                                           u5727 16A6  
                                         u3991 0BA8                                           u4880 0457  
                                         u4960 04AA                                           u5817 1482  
                                         u4785 03FE                                           u4961 04A9  
                                         u5737 139F                                           u5657 17BA  
                                         u4890 0466                                           u4970 04AF  
                                         u5827 13FB                                           u4891 0465  
                                         u4971 04AE                                           u5595 09A3  
                                         u5747 0962                                           u5667 17E0  
                                         u4980 04CE                                           u5837 1417  
                                         u4885 0452                                           u4981 04CD  
                                         u5757 0991                                           u5677 0B82  
                                         u4990 04D4                                           u5847 1288  
                                         u4991 04D3                                           u5767 09BD  
                                         u5687 0BAD                                           u5857 1363  
                                         u5777 12D7                                           u5697 0BD9  
                                         u5867 13C5                                           u5787 14B3  
                                         u5877 13E1                                           u5797 14C3  
                                         _main 0006                                           btemp 007E  
                                         log@x 00B0                               __end_of_ADC_Init 1272  
                                         start 0000                                ___fldiv@new_exp 0051  
                                _LCD_String_xy 130F                               Use_Chanel@select 0070  
                                        ??_log 007E                               __end_of_LCD_Char 141D  
                             __end_of_LCD_Init 1386                                  ___fltol@sign1 0078  
                              __end_of___fladd 0497                                          ?_main 0070  
                              __end_of___fldiv 023F                                __end_of___flmul 07DC  
                              __end_of___fltol 1635                    ?_function_Environment_alarm 0070  
                                        _ANSEL 0188                                __end_of___lwdiv 151D  
                              __end_of___lwmod 1457                                          _PORTB 0006  
                                        _PORTD 0008                                          _PORTE 0009  
                                        _TRISA 0085                                          _TRISB 0086  
                                        _TRISC 0087                                          _TRISD 0088  
                                        _TRISE 0089                                __end_of_dpowers 081A  
                                 ?_keypad_init 0070                                          _frexp 1563  
                                        _errno 00D3                                          pclath 000A  
                             ??_function_Alarm 007A                                          status 0003  
                                        wtemp0 007E                                __end_of_sprintf 0D2F  
                              __end_of_strncmp 1563                                 ?_LCD_String_xy 0075  
                              __initialization 07DC                                    log@exponent 006D  
                                  _system_lock 00D5                                   __end_of_main 0070  
                    Calculus_Temperature@tempC 00C8                                         ??_main 007E  
  function_Environment_alarm@value_temperature 00CF                              __end_of_LCD_Clear 128E  
                  __end_of_function_Monitoring 16B2                            keypad_getkey@letras 0020  
                                       ?_frexp 0020                                         _ADRESH 001E  
                                       _ADRESL 009E                               LCD_String_xy@msg 0076  
                             LCD_String_xy@pos 0075                               LCD_String_xy@row 0078  
                                       _OSCCON 008F                               __end_of___xxtofl 0A81  
                                       _Estado 006F                                         ___flge 16B2  
                                       ___fleq 08CD                   __end_of_function_Environment 14D9  
                                    ??___fladd 0061                                      ??___fldiv 0047  
                                    ??___flmul 002D                                      ??___fltol 0074  
                                    ??___lwdiv 0074                                      ??___lwmod 007B  
                                       _buffer 0190                                  ??_Sensors_IHM 0070  
                                       _intend 00D7                                     _Use_Chanel 12C8  
                    _Calculus_Temperature$1075 00BC                      _Calculus_Temperature$1076 00C0  
                    _Calculus_Temperature$1077 00C4                               __end_of_password 0843  
                                    ?_ADC_Init 0070                                _var_sensor_hall 00D9  
                            ??_function_Locked 007A                             function_Alarm@time 007D  
                                    ??_sprintf 0027                                      ??_strncmp 0073  
                                   ___flge@ff1 0070                                     ___flge@ff2 0074  
                                 ___xxtofl@arg 007A                                   ___xxtofl@exp 0079  
                                 ___xxtofl@val 0070                                     ___fleq@ff1 0070  
                                   ___fleq@ff2 0074                               __end_oflog@coeff 083E  
                                    ?_LCD_Char 0070                        __end_of__initialization 07FC  
                                    ?_LCD_Init 0070                                ??_LCD_String_xy 0078  
                                 eval_poly@res 00AC                                     ___fltol@f1 0070  
                               __pcstackCOMMON 0070                                   __pidataBANK3 128E  
                                __end_of_frexp 15BF                      Sensors_IHM@alarm_activate 0070  
                                 ??_LCD_String 0075                                 _OPTION_REGbits 0081  
                                   ??_ADC_Init 0070                            __end_of_Sensors_IHM 12C8  
                                      ??_frexp 007C                                     __pbssBANK0 006F  
                                   __pbssBANK1 00D3                                     __pbssBANK3 0190  
                                   ??_LCD_Char 0070                                     ??_LCD_Init 0073  
                           __end_of_LCD_String 130F                              __end_of__Umul8_16 135C  
                                   __pmaintext 0006                                        ?___flge 0070  
                                      ?___fleq 0070                                    ?_Use_Chanel 0070  
                                _keypad_getkey 0B5B                                      ?___xxtofl 0070  
                         _function_Environment 1498                                     __stringtab 0800  
                                LCD_String@msg 0073                                        ___fladd 023F  
                                      ___fldiv 0070                                        ___flmul 0497  
                                      ___fltol 15BF                                        ___lwdiv 14D9  
                                      ___lwmod 141D                                    _Sensors_IHM 12B1  
                            __end_of_eval_poly 0B5B                                        __ptext1 1272  
                                      __ptext2 1754                                        __ptext3 151D  
                                      __ptext4 0B5B                                        __ptext5 1635  
                                      __ptext6 12B1                                        __ptext7 1386  
                                      __ptext8 091B                                        __ptext9 0C3D  
                               ?_keypad_getkey 0070                                        _dpowers 0810  
                                   ??___xxtofl 0074                                      _LCD_Clear 127E  
                        ?_function_Environment 0070                                        _sprintf 0C3D  
                                      clrloop0 08C6                                        _strncmp 151D  
                         end_of_initialization 07FC                                 LCD_Command@cmd 0072  
                             _var_sensor_metal 00D8                                _function_Locked 1386  
function_Environment_alarm@temperature_celsius 00D1                                      _PORTDbits 0008  
                                  ___fladd@grs 006C                                  ___xxtofl@sign 0078  
                                   ?_LCD_Clear 0070                                    ___fldiv@grs 0053  
                                  ___fldiv@rem 004C                   __end_of_Calculus_Temperature 1000  
                                  ___flmul@grs 0034                Calculus_Temperature@temperature 00B4  
                         function_Security@key 007D                                  ??_LCD_Command 0070  
                               __end_of___flge 1754                                 __end_of___fleq 091B  
                              ??_keypad_getkey 0070                             keypad_getkey@F1268 01A1  
                          start_initialization 07DC                                     eval_poly@d 00A4  
                                   eval_poly@n 00A5                                     eval_poly@x 00A0  
                       ??_function_Environment 007A                                    __end_of_log 0E75  
                                   frexp@value 0020                             keypad_getkey@valor 0030  
                        __end_of_LCD_String_xy 1335                        __end_of_function_Locked 13B1  
                                     ??___flge 0078                                       ??___fleq 0078  
                                   init_fetch0 129E                                      __Umul8_16 1335  
                                  __pdataBANK3 01A1                                   ??_Use_Chanel 0072  
                                    ___fladd@a 005D                                      ___fladd@b 0059  
                 ??_function_Environment_alarm 00CC                                      ___fldiv@a 003F  
                                    ___fldiv@b 0043                            __end_of_LCD_Command 13E7  
                                    ___flmul@a 0029                                      ___flmul@b 0025  
                                    ___latbits 0002                                  __pcstackBANK0 0020  
                                __pcstackBANK1 00A0                                    ??_LCD_Clear 0073  
                                ??_keypad_init 0070                                    sprintf@ccnt 002C  
                                  sprintf@flag 002B                                    sprintf@prec 002E  
                           __end_of_Use_Chanel 12E9                               ___lwdiv@dividend 0072  
                                     ?___fladd 0059                                       ?___fldiv 003F  
                                     ?___flmul 0025                                       ?___fltol 0070  
                                   ?__Umul8_16 0070                                       ?___lwdiv 0070  
                                     ?___lwmod 0077                           _Calculus_Temperature 0E75  
                                 ?_Sensors_IHM 0070                                      __pstrings 0800  
                                    _eval_poly 0A81                                       _ADC_Init 1266  
                             ___lwdiv@quotient 0074                          LCD_String_xy@location 0079  
                                     ?_sprintf 0020                                       ?_strncmp 0070  
                                     _LCD_Char 13E7                                       _LCD_Init 135C  
                                    _pass_user 00DB                            __end_of_keypad_init 127E  
                                    clear_ram0 08C5                               ?_function_Locked 0070  
                               _function_Alarm 1457                          ?_Calculus_Temperature 00B4  
                          _function_Monitoring 1635                                    _LCD_Command 13B1  
                                   _ADCON0bits 001F                                    __stringbase 080F  
                                   _ADCON1bits 009F                                     ?_eval_poly 00A0  
                         ?_function_Monitoring 0070                                      frexp@eptr 0024  
                       __end_of_function_Alarm 1498                                  _var_sensor_ir 00DA  
                                  ??__Umul8_16 0072                             __end_of__stringtab 0810  
           __end_of_function_Environment_alarm 09C9                     _function_Environment_alarm 091B  
                                   sprintf@val 002F                                       ___xxtofl 09C9  
                              ___lwdiv@divisor 0070                                ___lwdiv@counter 0076  
                                     __ptext10 141D                                       __ptext11 14D9  
                                     __ptext20 023F                                       __ptext12 12C8  
                                     __ptext21 09C9                                       __ptext13 0E75  
                                     __ptext30 127E                                       __ptext22 16B2  
                                     __ptext14 0D2F                                       __ptext31 135C  
                                     __ptext23 15BF                                       __ptext15 1563  
                                     __ptext32 13B1                                       __ptext24 0070  
                                     __ptext16 08CD                                       __ptext33 1266  
                                     __ptext25 1498                                       __ptext17 0A81  
                                     __ptext26 1457                                       __ptext18 0497  
                                     __ptext27 130F                                       __ptext19 1335  
                                     __ptext28 12E9                                       __ptext29 13E7  
                        ??_function_Monitoring 0033                                    _keypad_init 1272  
                        Calculus_Temperature@a 00B8                                     strncmp@len 0071  
                                     _password 083E                                ?_function_Alarm 0070  
                       ??_Calculus_Temperature 00B6                      function_Environment@time2 007D  
                                   _LCD_String 12E9                          __end_of_keypad_getkey 0C3D  
                                     log@coeff 081A                                    ??_eval_poly 00A7  
                                     init_ram0 12A2                                      sprintf@ap 002A  
                                    sprintf@sp 0031                               ___lwmod@dividend 0079  
                                    strncmp@s1 0075                                      strncmp@s2 0070  
                                    stringcode 080A                              _function_Security 1754  
                           ?_function_Security 0070                         __Umul8_16@multiplicand 0070  
                                     sprintf@c 0032                                       sprintf@f 0020  
                          ??_function_Security 007A                                ___lwmod@divisor 0077  
                              ___lwmod@counter 007B                                       stringdir 080A  
                                     stringtab 0800                                 keypad_getkey@i 0031  
                                ___fladd@signs 0069                                   ___fladd@aexp 006A  
                                 ___fladd@bexp 006B                           __Umul8_16@multiplier 0078  
                    __end_of_function_Security 1800                              __Umul8_16@product 0074  
