

Microchip MPLAB XC8 Assembler V2.41 build 20230208172133 
                                                                                               Fri Nov 10 22:01:34 2023

Microchip MPLAB XC8 C Compiler v2.41 (Free license) build 20230208172133 Og1 
     1                           	processor	16F887
     2                           	pagewidth 120
     3                           	opt	flic
     4                           	psect	idataBANK3,global,class=CODE,delta=2,noexec
     5                           	psect	strings,global,class=STRING,delta=2,noexec
     6                           	psect	cinit,global,class=CODE,merge=1,delta=2
     7                           	psect	bssBANK0,global,class=BANK0,space=1,delta=1,noexec
     8                           	psect	bssBANK1,global,class=BANK1,space=1,delta=1,noexec
     9                           	psect	bssBANK3,global,class=BANK3,space=1,delta=1,noexec
    10                           	psect	dataBANK3,global,class=BANK3,space=1,delta=1,noexec
    11                           	psect	inittext,global,class=CODE,delta=2
    12                           	psect	clrtext,global,class=CODE,delta=2
    13                           	psect	cstackBANK1,global,class=BANK1,space=1,delta=1,noexec
    14                           	psect	cstackCOMMON,global,class=COMMON,space=1,delta=1,noexec
    15                           	psect	cstackBANK0,global,class=BANK0,space=1,delta=1,noexec
    16                           	psect	maintext,global,class=CODE,split=1,delta=2
    17                           	psect	text1,local,class=CODE,merge=1,delta=2
    18                           	psect	text2,local,class=CODE,merge=1,delta=2
    19                           	psect	text3,local,class=CODE,merge=1,delta=2,group=3
    20                           	psect	text4,local,class=CODE,merge=1,delta=2
    21                           	psect	text5,local,class=CODE,merge=1,delta=2
    22                           	psect	text6,local,class=CODE,merge=1,delta=2
    23                           	psect	text7,local,class=CODE,merge=1,delta=2
    24                           	psect	text8,local,class=CODE,merge=1,delta=2
    25                           	psect	text9,local,class=CODE,merge=1,delta=2
    26                           	psect	text10,local,class=CODE,merge=1,delta=2,group=1
    27                           	psect	text11,local,class=CODE,merge=1,delta=2,group=2
    28                           	psect	text12,local,class=CODE,merge=1,delta=2,group=2
    29                           	psect	text13,local,class=CODE,merge=1,delta=2
    30                           	psect	text14,local,class=CODE,merge=1,delta=2
    31                           	psect	text15,local,class=CODE,merge=1,delta=2,group=3
    32                           	psect	text16,local,class=CODE,merge=1,delta=2,group=3
    33                           	psect	text17,local,class=CODE,merge=1,delta=2,group=2
    34                           	psect	text18,local,class=CODE,merge=1,delta=2,group=3
    35                           	psect	text19,local,class=CODE,merge=1,delta=2,group=2
    36                           	psect	text20,local,class=CODE,merge=1,delta=2,group=2
    37                           	psect	text21,local,class=CODE,merge=1,delta=2,group=2
    38                           	psect	text22,local,class=CODE,merge=1,delta=2,group=2
    39                           	psect	text23,local,class=CODE,merge=1,delta=2,group=2
    40                           	psect	text24,local,class=CODE,merge=1,delta=2,group=2
    41                           	psect	text25,local,class=CODE,merge=1,delta=2,group=2
    42                           	psect	text26,local,class=CODE,merge=1,delta=2
    43                           	psect	text27,local,class=CODE,merge=1,delta=2
    44                           	psect	text28,local,class=CODE,merge=1,delta=2
    45                           	psect	text29,local,class=CODE,merge=1,delta=2
    46                           	psect	text30,local,class=CODE,merge=1,delta=2
    47                           	psect	text31,local,class=CODE,merge=1,delta=2
    48                           	psect	text32,local,class=CODE,merge=1,delta=2
    49                           	psect	text33,local,class=CODE,merge=1,delta=2
    50                           	psect	config,global,abs,ovrld,class=CONFIG,space=4,delta=2,noexec
    51                           	dabs	1,0x7E,2
    52     0000                     
    53                           ; Version 2.20
    54                           ; Generated 12/02/2020 GMT
    55                           ; 
    56                           ; Copyright © 2020, Microchip Technology Inc. and its subsidiaries ("Microchip")
    57                           ; All rights reserved.
    58                           ; 
    59                           ; This software is developed by Microchip Technology Inc. and its subsidiaries ("Microch
      +                          ip").
    60                           ; 
    61                           ; Redistribution and use in source and binary forms, with or without modification, are
    62                           ; permitted provided that the following conditions are met:
    63                           ; 
    64                           ;     1. Redistributions of source code must retain the above copyright notice, this lis
      +                          t of
    65                           ;        conditions and the following disclaimer.
    66                           ; 
    67                           ;     2. Redistributions in binary form must reproduce the above copyright notice, this 
      +                          list
    68                           ;        of conditions and the following disclaimer in the documentation and/or other
    69                           ;        materials provided with the distribution.
    70                           ; 
    71                           ;     3. Microchip's name may not be used to endorse or promote products derived from th
      +                          is
    72                           ;        software without specific prior written permission.
    73                           ; 
    74                           ; THIS SOFTWARE IS PROVIDED BY MICROCHIP "AS IS" AND ANY EXPRESS OR IMPLIED WARRANTIES,
    75                           ; INCLUDING, BUT NOT LIMITED TO, THE IMPLIED WARRANTIES OF MERCHANTABILITY AND FITNESS F
      +                          OR
    76                           ; PURPOSE ARE DISCLAIMED.  IN NO EVENT SHALL MICROCHIP BE LIABLE FOR ANY DIRECT, INDIREC
      +                          T,
    77                           ; INCIDENTAL, SPECIAL, EXEMPLARY, OR CONSEQUENTIAL DAMAGES (INCLUDING BUT NOT LIMITED TO
    78                           ; PROCUREMENT OF SUBSTITUTE GOODS OR SERVICES; LOSS OF USE, DATA OR PROFITS; OR BUSINESS
    79                           ; INTERRUPTION) HOWSOEVER CAUSED AND ON ANY THEORY OF LIABILITY, WHETHER IN CONTRACT, ST
      +                          RICT
    80                           ; LIABILITY, OR TORT (INCLUDING NEGLIGENCE OR OTHERWISE) ARISING IN ANY WAY OUT OF THE U
      +                          SE OF
    81                           ; THIS SOFTWARE, EVEN IF ADVISED OF THE POSSIBILITY OF SUCH DAMAGE.
    82                           ; 
    83                           ; 
    84                           ; Code-generator required, PIC16F887 Definitions
    85                           ; 
    86                           ; SFR Addresses
    87     0000                     	;# 
    88     0001                     	;# 
    89     0002                     	;# 
    90     0003                     	;# 
    91     0004                     	;# 
    92     0005                     	;# 
    93     0006                     	;# 
    94     0007                     	;# 
    95     0008                     	;# 
    96     0009                     	;# 
    97     000A                     	;# 
    98     000B                     	;# 
    99     000C                     	;# 
   100     000D                     	;# 
   101     000E                     	;# 
   102     000E                     	;# 
   103     000F                     	;# 
   104     0010                     	;# 
   105     0011                     	;# 
   106     0012                     	;# 
   107     0013                     	;# 
   108     0014                     	;# 
   109     0015                     	;# 
   110     0015                     	;# 
   111     0016                     	;# 
   112     0017                     	;# 
   113     0018                     	;# 
   114     0019                     	;# 
   115     001A                     	;# 
   116     001B                     	;# 
   117     001B                     	;# 
   118     001C                     	;# 
   119     001D                     	;# 
   120     001E                     	;# 
   121     001F                     	;# 
   122     0081                     	;# 
   123     0085                     	;# 
   124     0086                     	;# 
   125     0087                     	;# 
   126     0088                     	;# 
   127     0089                     	;# 
   128     008C                     	;# 
   129     008D                     	;# 
   130     008E                     	;# 
   131     008F                     	;# 
   132     0090                     	;# 
   133     0091                     	;# 
   134     0092                     	;# 
   135     0093                     	;# 
   136     0093                     	;# 
   137     0093                     	;# 
   138     0094                     	;# 
   139     0095                     	;# 
   140     0096                     	;# 
   141     0097                     	;# 
   142     0098                     	;# 
   143     0099                     	;# 
   144     009A                     	;# 
   145     009B                     	;# 
   146     009C                     	;# 
   147     009D                     	;# 
   148     009E                     	;# 
   149     009F                     	;# 
   150     0105                     	;# 
   151     0107                     	;# 
   152     0108                     	;# 
   153     0109                     	;# 
   154     010C                     	;# 
   155     010C                     	;# 
   156     010D                     	;# 
   157     010E                     	;# 
   158     010F                     	;# 
   159     0185                     	;# 
   160     0187                     	;# 
   161     0188                     	;# 
   162     0189                     	;# 
   163     018C                     	;# 
   164     018D                     	;# 
   165     0000                     	;# 
   166     0001                     	;# 
   167     0002                     	;# 
   168     0003                     	;# 
   169     0004                     	;# 
   170     0005                     	;# 
   171     0006                     	;# 
   172     0007                     	;# 
   173     0008                     	;# 
   174     0009                     	;# 
   175     000A                     	;# 
   176     000B                     	;# 
   177     000C                     	;# 
   178     000D                     	;# 
   179     000E                     	;# 
   180     000E                     	;# 
   181     000F                     	;# 
   182     0010                     	;# 
   183     0011                     	;# 
   184     0012                     	;# 
   185     0013                     	;# 
   186     0014                     	;# 
   187     0015                     	;# 
   188     0015                     	;# 
   189     0016                     	;# 
   190     0017                     	;# 
   191     0018                     	;# 
   192     0019                     	;# 
   193     001A                     	;# 
   194     001B                     	;# 
   195     001B                     	;# 
   196     001C                     	;# 
   197     001D                     	;# 
   198     001E                     	;# 
   199     001F                     	;# 
   200     0081                     	;# 
   201     0085                     	;# 
   202     0086                     	;# 
   203     0087                     	;# 
   204     0088                     	;# 
   205     0089                     	;# 
   206     008C                     	;# 
   207     008D                     	;# 
   208     008E                     	;# 
   209     008F                     	;# 
   210     0090                     	;# 
   211     0091                     	;# 
   212     0092                     	;# 
   213     0093                     	;# 
   214     0093                     	;# 
   215     0093                     	;# 
   216     0094                     	;# 
   217     0095                     	;# 
   218     0096                     	;# 
   219     0097                     	;# 
   220     0098                     	;# 
   221     0099                     	;# 
   222     009A                     	;# 
   223     009B                     	;# 
   224     009C                     	;# 
   225     009D                     	;# 
   226     009E                     	;# 
   227     009F                     	;# 
   228     0105                     	;# 
   229     0107                     	;# 
   230     0108                     	;# 
   231     0109                     	;# 
   232     010C                     	;# 
   233     010C                     	;# 
   234     010D                     	;# 
   235     010E                     	;# 
   236     010F                     	;# 
   237     0185                     	;# 
   238     0187                     	;# 
   239     0188                     	;# 
   240     0189                     	;# 
   241     018C                     	;# 
   242     018D                     	;# 
   243     0000                     	;# 
   244     0001                     	;# 
   245     0002                     	;# 
   246     0003                     	;# 
   247     0004                     	;# 
   248     0005                     	;# 
   249     0006                     	;# 
   250     0007                     	;# 
   251     0008                     	;# 
   252     0009                     	;# 
   253     000A                     	;# 
   254     000B                     	;# 
   255     000C                     	;# 
   256     000D                     	;# 
   257     000E                     	;# 
   258     000E                     	;# 
   259     000F                     	;# 
   260     0010                     	;# 
   261     0011                     	;# 
   262     0012                     	;# 
   263     0013                     	;# 
   264     0014                     	;# 
   265     0015                     	;# 
   266     0015                     	;# 
   267     0016                     	;# 
   268     0017                     	;# 
   269     0018                     	;# 
   270     0019                     	;# 
   271     001A                     	;# 
   272     001B                     	;# 
   273     001B                     	;# 
   274     001C                     	;# 
   275     001D                     	;# 
   276     001E                     	;# 
   277     001F                     	;# 
   278     0081                     	;# 
   279     0085                     	;# 
   280     0086                     	;# 
   281     0087                     	;# 
   282     0088                     	;# 
   283     0089                     	;# 
   284     008C                     	;# 
   285     008D                     	;# 
   286     008E                     	;# 
   287     008F                     	;# 
   288     0090                     	;# 
   289     0091                     	;# 
   290     0092                     	;# 
   291     0093                     	;# 
   292     0093                     	;# 
   293     0093                     	;# 
   294     0094                     	;# 
   295     0095                     	;# 
   296     0096                     	;# 
   297     0097                     	;# 
   298     0098                     	;# 
   299     0099                     	;# 
   300     009A                     	;# 
   301     009B                     	;# 
   302     009C                     	;# 
   303     009D                     	;# 
   304     009E                     	;# 
   305     009F                     	;# 
   306     0105                     	;# 
   307     0107                     	;# 
   308     0108                     	;# 
   309     0109                     	;# 
   310     010C                     	;# 
   311     010C                     	;# 
   312     010D                     	;# 
   313     010E                     	;# 
   314     010F                     	;# 
   315     0185                     	;# 
   316     0187                     	;# 
   317     0188                     	;# 
   318     0189                     	;# 
   319     018C                     	;# 
   320     018D                     	;# 
   321     0000                     	;# 
   322     0001                     	;# 
   323     0002                     	;# 
   324     0003                     	;# 
   325     0004                     	;# 
   326     0005                     	;# 
   327     0006                     	;# 
   328     0007                     	;# 
   329     0008                     	;# 
   330     0009                     	;# 
   331     000A                     	;# 
   332     000B                     	;# 
   333     000C                     	;# 
   334     000D                     	;# 
   335     000E                     	;# 
   336     000E                     	;# 
   337     000F                     	;# 
   338     0010                     	;# 
   339     0011                     	;# 
   340     0012                     	;# 
   341     0013                     	;# 
   342     0014                     	;# 
   343     0015                     	;# 
   344     0015                     	;# 
   345     0016                     	;# 
   346     0017                     	;# 
   347     0018                     	;# 
   348     0019                     	;# 
   349     001A                     	;# 
   350     001B                     	;# 
   351     001B                     	;# 
   352     001C                     	;# 
   353     001D                     	;# 
   354     001E                     	;# 
   355     001F                     	;# 
   356     0081                     	;# 
   357     0085                     	;# 
   358     0086                     	;# 
   359     0087                     	;# 
   360     0088                     	;# 
   361     0089                     	;# 
   362     008C                     	;# 
   363     008D                     	;# 
   364     008E                     	;# 
   365     008F                     	;# 
   366     0090                     	;# 
   367     0091                     	;# 
   368     0092                     	;# 
   369     0093                     	;# 
   370     0093                     	;# 
   371     0093                     	;# 
   372     0094                     	;# 
   373     0095                     	;# 
   374     0096                     	;# 
   375     0097                     	;# 
   376     0098                     	;# 
   377     0099                     	;# 
   378     009A                     	;# 
   379     009B                     	;# 
   380     009C                     	;# 
   381     009D                     	;# 
   382     009E                     	;# 
   383     009F                     	;# 
   384     0105                     	;# 
   385     0107                     	;# 
   386     0108                     	;# 
   387     0109                     	;# 
   388     010C                     	;# 
   389     010C                     	;# 
   390     010D                     	;# 
   391     010E                     	;# 
   392     010F                     	;# 
   393     0185                     	;# 
   394     0187                     	;# 
   395     0188                     	;# 
   396     0189                     	;# 
   397     018C                     	;# 
   398     018D                     	;# 
   399     0000                     	;# 
   400     0001                     	;# 
   401     0002                     	;# 
   402     0003                     	;# 
   403     0004                     	;# 
   404     0005                     	;# 
   405     0006                     	;# 
   406     0007                     	;# 
   407     0008                     	;# 
   408     0009                     	;# 
   409     000A                     	;# 
   410     000B                     	;# 
   411     000C                     	;# 
   412     000D                     	;# 
   413     000E                     	;# 
   414     000E                     	;# 
   415     000F                     	;# 
   416     0010                     	;# 
   417     0011                     	;# 
   418     0012                     	;# 
   419     0013                     	;# 
   420     0014                     	;# 
   421     0015                     	;# 
   422     0015                     	;# 
   423     0016                     	;# 
   424     0017                     	;# 
   425     0018                     	;# 
   426     0019                     	;# 
   427     001A                     	;# 
   428     001B                     	;# 
   429     001B                     	;# 
   430     001C                     	;# 
   431     001D                     	;# 
   432     001E                     	;# 
   433     001F                     	;# 
   434     0081                     	;# 
   435     0085                     	;# 
   436     0086                     	;# 
   437     0087                     	;# 
   438     0088                     	;# 
   439     0089                     	;# 
   440     008C                     	;# 
   441     008D                     	;# 
   442     008E                     	;# 
   443     008F                     	;# 
   444     0090                     	;# 
   445     0091                     	;# 
   446     0092                     	;# 
   447     0093                     	;# 
   448     0093                     	;# 
   449     0093                     	;# 
   450     0094                     	;# 
   451     0095                     	;# 
   452     0096                     	;# 
   453     0097                     	;# 
   454     0098                     	;# 
   455     0099                     	;# 
   456     009A                     	;# 
   457     009B                     	;# 
   458     009C                     	;# 
   459     009D                     	;# 
   460     009E                     	;# 
   461     009F                     	;# 
   462     0105                     	;# 
   463     0107                     	;# 
   464     0108                     	;# 
   465     0109                     	;# 
   466     010C                     	;# 
   467     010C                     	;# 
   468     010D                     	;# 
   469     010E                     	;# 
   470     010F                     	;# 
   471     0185                     	;# 
   472     0187                     	;# 
   473     0188                     	;# 
   474     0189                     	;# 
   475     018C                     	;# 
   476     018D                     	;# 
   477     0000                     	;# 
   478     0001                     	;# 
   479     0002                     	;# 
   480     0003                     	;# 
   481     0004                     	;# 
   482     0005                     	;# 
   483     0006                     	;# 
   484     0007                     	;# 
   485     0008                     	;# 
   486     0009                     	;# 
   487     000A                     	;# 
   488     000B                     	;# 
   489     000C                     	;# 
   490     000D                     	;# 
   491     000E                     	;# 
   492     000E                     	;# 
   493     000F                     	;# 
   494     0010                     	;# 
   495     0011                     	;# 
   496     0012                     	;# 
   497     0013                     	;# 
   498     0014                     	;# 
   499     0015                     	;# 
   500     0015                     	;# 
   501     0016                     	;# 
   502     0017                     	;# 
   503     0018                     	;# 
   504     0019                     	;# 
   505     001A                     	;# 
   506     001B                     	;# 
   507     001B                     	;# 
   508     001C                     	;# 
   509     001D                     	;# 
   510     001E                     	;# 
   511     001F                     	;# 
   512     0081                     	;# 
   513     0085                     	;# 
   514     0086                     	;# 
   515     0087                     	;# 
   516     0088                     	;# 
   517     0089                     	;# 
   518     008C                     	;# 
   519     008D                     	;# 
   520     008E                     	;# 
   521     008F                     	;# 
   522     0090                     	;# 
   523     0091                     	;# 
   524     0092                     	;# 
   525     0093                     	;# 
   526     0093                     	;# 
   527     0093                     	;# 
   528     0094                     	;# 
   529     0095                     	;# 
   530     0096                     	;# 
   531     0097                     	;# 
   532     0098                     	;# 
   533     0099                     	;# 
   534     009A                     	;# 
   535     009B                     	;# 
   536     009C                     	;# 
   537     009D                     	;# 
   538     009E                     	;# 
   539     009F                     	;# 
   540     0105                     	;# 
   541     0107                     	;# 
   542     0108                     	;# 
   543     0109                     	;# 
   544     010C                     	;# 
   545     010C                     	;# 
   546     010D                     	;# 
   547     010E                     	;# 
   548     010F                     	;# 
   549     0185                     	;# 
   550     0187                     	;# 
   551     0188                     	;# 
   552     0189                     	;# 
   553     018C                     	;# 
   554     018D                     	;# 
   555                           
   556                           	psect	idataBANK3
   557     128E                     __pidataBANK3:
   558                           
   559                           ;initializer for keypad_getkey@F1268
   560     128E  3431               	retlw	49
   561     128F  3432               	retlw	50
   562     1290  3433               	retlw	51
   563     1291  3441               	retlw	65
   564     1292  3434               	retlw	52
   565     1293  3435               	retlw	53
   566     1294  3436               	retlw	54
   567     1295  3442               	retlw	66
   568     1296  3437               	retlw	55
   569     1297  3438               	retlw	56
   570     1298  3439               	retlw	57
   571     1299  3443               	retlw	67
   572     129A  342A               	retlw	42
   573     129B  3430               	retlw	48
   574     129C  3423               	retlw	35
   575     129D  3444               	retlw	68
   576                           
   577                           	psect	strings
   578     0800                     __pstrings:
   579     0800                     stringtab:
   580     0800                     __stringtab:
   581                           
   582                           ;	String table - string pointers are 1 byte each
   583     0800  1BFF               	btfsc	btemp+1,7
   584     0801  280A               	ljmp	stringcode
   585     0802  1383               	bcf	3,7
   586     0803  187F               	btfsc	btemp+1,0
   587     0804  1783               	bsf	3,7
   588     0805  0800               	movf	0,w
   589     0806  0A84               	incf	4,f
   590     0807  1903               	skipnz
   591     0808  0AFF               	incf	btemp+1,f
   592     0809  0008               	return
   593     080A                     stringcode:
   594     080A                     stringdir:
   595     080A  3008               	movlw	high stringdir
   596     080B  008A               	movwf	10
   597     080C  0804               	movf	4,w
   598     080D  0A84               	incf	4,f
   599     080E  0782               	addwf	2,f
   600     080F                     __stringbase:
   601     080F  3400               	retlw	0
   602     0810                     __end_of__stringtab:
   603     0810                     _dpowers:
   604     0810  3401               	retlw	1
   605     0811  3400               	retlw	0
   606     0812  340A               	retlw	10
   607     0813  3400               	retlw	0
   608     0814  3464               	retlw	100
   609     0815  3400               	retlw	0
   610     0816  34E8               	retlw	232
   611     0817  3403               	retlw	3
   612     0818  3410               	retlw	16
   613     0819  3427               	retlw	39
   614     081A                     __end_of_dpowers:
   615     081A                     log@coeff:
   616     081A  3400               	retlw	0
   617     081B  3400               	retlw	0
   618     081C  3400               	retlw	0
   619     081D  3400               	retlw	0
   620     081E  34C4               	retlw	196
   621     081F  34FF               	retlw	255
   622     0820  347F               	retlw	127
   623     0821  343F               	retlw	63
   624     0822  3480               	retlw	128
   625     0823  34EF               	retlw	239
   626     0824  34FF               	retlw	255
   627     0825  34BE               	retlw	190
   628     0826  3490               	retlw	144
   629     0827  34E1               	retlw	225
   630     0828  34A9               	retlw	169
   631     0829  343E               	retlw	62
   632     082A  34EC               	retlw	236
   633     082B  3482               	retlw	130
   634     082C  3476               	retlw	118
   635     082D  34BE               	retlw	190
   636     082E  3482               	retlw	130
   637     082F  34AD               	retlw	173
   638     0830  342B               	retlw	43
   639     0831  343E               	retlw	62
   640     0832  340E               	retlw	14
   641     0833  343C               	retlw	60
   642     0834  34C3               	retlw	195
   643     0835  34BD               	retlw	189
   644     0836  3487               	retlw	135
   645     0837  34D1               	retlw	209
   646     0838  3413               	retlw	19
   647     0839  343D               	retlw	61
   648     083A  3441               	retlw	65
   649     083B  3478               	retlw	120
   650     083C  34D3               	retlw	211
   651     083D  34BB               	retlw	187
   652     083E                     __end_oflog@coeff:
   653     083E                     _password:
   654     083E  3432               	retlw	50
   655     083F  3430               	retlw	48
   656     0840  3432               	retlw	50
   657     0841  3433               	retlw	51
   658     0842  3430               	retlw	48
   659     0843                     __end_of_password:
   660     001E                     _ADRESH	set	30
   661     001F                     _ADCON0bits	set	31
   662     0008                     _PORTDbits	set	8
   663     0008                     _PORTD	set	8
   664     0006                     _PORTB	set	6
   665     0009                     _PORTE	set	9
   666     0048                     _RE0	set	72
   667     004A                     _RE2	set	74
   668     0049                     _RE1	set	73
   669     003A                     _RC2	set	58
   670     0038                     _RC0	set	56
   671     0039                     _RC1	set	57
   672     009E                     _ADRESL	set	158
   673     009F                     _ADCON1bits	set	159
   674     0081                     _OPTION_REGbits	set	129
   675     0086                     _TRISB	set	134
   676     0085                     _TRISA	set	133
   677     0087                     _TRISC	set	135
   678     0088                     _TRISD	set	136
   679     0089                     _TRISE	set	137
   680     008F                     _OSCCON	set	143
   681     0189                     _ANSELH	set	393
   682     0188                     _ANSEL	set	392
   683     0843                     STR_9:
   684     0843  3454               	retlw	84	;'T'
   685     0844  3465               	retlw	101	;'e'
   686     0845  346D               	retlw	109	;'m'
   687     0846  3470               	retlw	112	;'p'
   688     0847  3465               	retlw	101	;'e'
   689     0848  3472               	retlw	114	;'r'
   690     0849  3461               	retlw	97	;'a'
   691     084A  3474               	retlw	116	;'t'
   692     084B  3475               	retlw	117	;'u'
   693     084C  3472               	retlw	114	;'r'
   694     084D  3465               	retlw	101	;'e'
   695     084E  3420               	retlw	32	;' '
   696     084F  343E               	retlw	62	;'>'
   697     0850  3420               	retlw	32	;' '
   698     0851  3432               	retlw	50	;'2'
   699     0852  3435               	retlw	53	;'5'
   700     0853  3420               	retlw	32	;' '
   701     0854  3443               	retlw	67	;'C'
   702     0855  3400               	retlw	0
   703     0856                     STR_1:
   704     0856  3449               	retlw	73	;'I'
   705     0857  3452               	retlw	82	;'R'
   706     0858  3420               	retlw	32	;' '
   707     0859  3425               	retlw	37	;'%'
   708     085A  3464               	retlw	100	;'d'
   709     085B  342C               	retlw	44	;','
   710     085C  3420               	retlw	32	;' '
   711     085D  3448               	retlw	72	;'H'
   712     085E  3420               	retlw	32	;' '
   713     085F  3425               	retlw	37	;'%'
   714     0860  3464               	retlw	100	;'d'
   715     0861  342C               	retlw	44	;','
   716     0862  3420               	retlw	32	;' '
   717     0863  344D               	retlw	77	;'M'
   718     0864  3454               	retlw	84	;'T'
   719     0865  3420               	retlw	32	;' '
   720     0866  3425               	retlw	37	;'%'
   721     0867  3464               	retlw	100	;'d'
   722     0868  3400               	retlw	0
   723     0869                     STR_4:
   724     0869  3443               	retlw	67	;'C'
   725     086A  346C               	retlw	108	;'l'
   726     086B  3461               	retlw	97	;'a'
   727     086C  3476               	retlw	118	;'v'
   728     086D  3465               	retlw	101	;'e'
   729     086E  3420               	retlw	32	;' '
   730     086F  3449               	retlw	73	;'I'
   731     0870  346E               	retlw	110	;'n'
   732     0871  3463               	retlw	99	;'c'
   733     0872  346F               	retlw	111	;'o'
   734     0873  3472               	retlw	114	;'r'
   735     0874  3472               	retlw	114	;'r'
   736     0875  3465               	retlw	101	;'e'
   737     0876  3463               	retlw	99	;'c'
   738     0877  3474               	retlw	116	;'t'
   739     0878  3461               	retlw	97	;'a'
   740     0879  3400               	retlw	0
   741     087A                     STR_6:
   742     087A  344E               	retlw	78	;'N'
   743     087B  344F               	retlw	79	;'O'
   744     087C  3420               	retlw	32	;' '
   745     087D  3441               	retlw	65	;'A'
   746     087E  3455               	retlw	85	;'U'
   747     087F  3454               	retlw	84	;'T'
   748     0880  344F               	retlw	79	;'O'
   749     0881  3452               	retlw	82	;'R'
   750     0882  3449               	retlw	73	;'I'
   751     0883  345A               	retlw	90	;'Z'
   752     0884  3441               	retlw	65	;'A'
   753     0885  3444               	retlw	68	;'D'
   754     0886  344F               	retlw	79	;'O'
   755     0887  3421               	retlw	33	;'!'
   756     0888  3421               	retlw	33	;'!'
   757     0889  3400               	retlw	0
   758     088A                     STR_7:
   759     088A  3454               	retlw	84	;'T'
   760     088B  3465               	retlw	101	;'e'
   761     088C  346D               	retlw	109	;'m'
   762     088D  3470               	retlw	112	;'p'
   763     088E  3465               	retlw	101	;'e'
   764     088F  3472               	retlw	114	;'r'
   765     0890  3461               	retlw	97	;'a'
   766     0891  3474               	retlw	116	;'t'
   767     0892  3475               	retlw	117	;'u'
   768     0893  3472               	retlw	114	;'r'
   769     0894  3461               	retlw	97	;'a'
   770     0895  3420               	retlw	32	;' '
   771     0896  3441               	retlw	65	;'A'
   772     0897  346D               	retlw	109	;'m'
   773     0898  3462               	retlw	98	;'b'
   774     0899  3400               	retlw	0
   775     089A                     STR_3:
   776     089A  3443               	retlw	67	;'C'
   777     089B  346C               	retlw	108	;'l'
   778     089C  3461               	retlw	97	;'a'
   779     089D  3476               	retlw	118	;'v'
   780     089E  3465               	retlw	101	;'e'
   781     089F  3420               	retlw	32	;' '
   782     08A0  3443               	retlw	67	;'C'
   783     08A1  346F               	retlw	111	;'o'
   784     08A2  3472               	retlw	114	;'r'
   785     08A3  3472               	retlw	114	;'r'
   786     08A4  3465               	retlw	101	;'e'
   787     08A5  3463               	retlw	99	;'c'
   788     08A6  3474               	retlw	116	;'t'
   789     08A7  3461               	retlw	97	;'a'
   790     08A8  3400               	retlw	0
   791     08A9                     STR_5:
   792     08A9  3442               	retlw	66	;'B'
   793     08AA  346C               	retlw	108	;'l'
   794     08AB  346F               	retlw	111	;'o'
   795     08AC  3463               	retlw	99	;'c'
   796     08AD  346B               	retlw	107	;'k'
   797     08AE  3420               	retlw	32	;' '
   798     08AF  3453               	retlw	83	;'S'
   799     08B0  3479               	retlw	121	;'y'
   800     08B1  3473               	retlw	115	;'s'
   801     08B2  3474               	retlw	116	;'t'
   802     08B3  3465               	retlw	101	;'e'
   803     08B4  346D               	retlw	109	;'m'
   804     08B5  3400               	retlw	0
   805     08B6                     STR_2:
   806     08B6  3450               	retlw	80	;'P'
   807     08B7  3472               	retlw	114	;'r'
   808     08B8  3465               	retlw	101	;'e'
   809     08B9  3473               	retlw	115	;'s'
   810     08BA  3473               	retlw	115	;'s'
   811     08BB  3420               	retlw	32	;' '
   812     08BC  3461               	retlw	97	;'a'
   813     08BD  3420               	retlw	32	;' '
   814     08BE  344B               	retlw	75	;'K'
   815     08BF  3465               	retlw	101	;'e'
   816     08C0  3479               	retlw	121	;'y'
   817     08C1  3400               	retlw	0
   818     08C2                     STR_8:
   819     08C2  3454               	retlw	84	;'T'
   820     08C3  3453               	retlw	83	;'S'
   821     08C4  3420               	retlw	32	;' '
   822     08C5  3425               	retlw	37	;'%'
   823     08C6  3464               	retlw	100	;'d'
   824     08C7  3400               	retlw	0
   825                           
   826                           	psect	cinit
   827     07DC                     start_initialization:	
   828                           ; #config settings
   829                           
   830     07DC                     __initialization:
   831                           
   832                           ; Initialize objects allocated to BANK3
   833     07DC  1783               	bsf	3,7	;select IRP bank2
   834     07DD  30B1               	movlw	low (__pdataBANK3+16)
   835     07DE  00FD               	movwf	btemp+-1
   836     07DF  3012               	movlw	high __pidataBANK3
   837     07E0  00FE               	movwf	btemp
   838     07E1  308E               	movlw	low __pidataBANK3
   839     07E2  00FF               	movwf	btemp+1
   840     07E3  30A1               	movlw	low __pdataBANK3
   841     07E4  0084               	movwf	4
   842     07E5  160A  118A  22A2  120A  118A  	fcall	init_ram0
   843                           
   844                           ; Clear objects allocated to BANK3
   845     07EA  3090               	movlw	low __pbssBANK3
   846     07EB  0084               	movwf	4
   847     07EC  30A1               	movlw	low (__pbssBANK3+17)
   848     07ED  160A  118A  225B  120A  118A  	fcall	clear_ram0
   849                           
   850                           ; Clear objects allocated to BANK1
   851     07F2  1383               	bcf	3,7	;select IRP bank0
   852     07F3  30D3               	movlw	low __pbssBANK1
   853     07F4  0084               	movwf	4
   854     07F5  30E0               	movlw	low (__pbssBANK1+13)
   855     07F6  160A  118A  225B  120A  118A  	fcall	clear_ram0
   856                           
   857                           ; Clear objects allocated to BANK0
   858     07FB  01EF               	clrf	__pbssBANK0& (0+127)
   859     07FC                     end_of_initialization:	
   860                           ;End of C runtime variable initialization code
   861                           
   862     07FC                     __end_of__initialization:
   863     07FC  0183               	clrf	3
   864     07FD  120A  118A  2806   	ljmp	_main	;jump to C main() function
   865                           
   866                           	psect	bssBANK0
   867     006F                     __pbssBANK0:
   868     006F                     _Estado:
   869     006F                     	ds	1
   870                           
   871                           	psect	bssBANK1
   872     00D3                     __pbssBANK1:
   873     00D3                     _errno:
   874     00D3                     	ds	2
   875     00D5                     _system_lock:
   876     00D5                     	ds	1
   877     00D6                     _idx:
   878     00D6                     	ds	1
   879     00D7                     _intend:
   880     00D7                     	ds	1
   881     00D8                     _var_sensor_metal:
   882     00D8                     	ds	1
   883     00D9                     _var_sensor_hall:
   884     00D9                     	ds	1
   885     00DA                     _var_sensor_ir:
   886     00DA                     	ds	1
   887     00DB                     _pass_user:
   888     00DB                     	ds	5
   889                           
   890                           	psect	bssBANK3
   891     0190                     __pbssBANK3:
   892     0190                     _buffer:
   893     0190                     	ds	17
   894                           
   895                           	psect	dataBANK3
   896     01A1                     __pdataBANK3:
   897     01A1                     keypad_getkey@F1268:
   898     01A1                     	ds	16
   899                           
   900                           	psect	inittext
   901     129E                     init_fetch0:	
   902                           ;	Called with low address in FSR and high address in W
   903                           
   904     129E  087E               	movf	btemp,w
   905     129F  008A               	movwf	10
   906     12A0  087F               	movf	btemp+1,w
   907     12A1  0082               	movwf	2
   908     12A2                     init_ram0:	
   909                           ;Called with:
   910                           ;	high address of idata address in btemp 
   911                           ;	low address of idata address in btemp+1 
   912                           ;	low address of data in FSR
   913                           ;	high address + 1 of data in btemp-1
   914                           
   915     12A2  160A  118A  229E  160A  118A  	fcall	init_fetch0
   916     12A7  0080               	movwf	0
   917     12A8  0A84               	incf	4,f
   918     12A9  0804               	movf	4,w
   919     12AA  067D               	xorwf	btemp+-1,w
   920     12AB  1903               	btfsc	3,2
   921     12AC  3400               	retlw	0
   922     12AD  0AFF               	incf	btemp+1,f
   923     12AE  1903               	btfsc	3,2
   924     12AF  0AFE               	incf	btemp,f
   925     12B0  2AA2               	goto	init_ram0
   926                           
   927                           	psect	clrtext
   928     125B                     clear_ram0:	
   929                           ;	Called with FSR containing the base address, and
   930                           ;	W with the last address+1
   931                           
   932     125B  0064               	clrwdt	;clear the watchdog before getting into this loop
   933     125C                     clrloop0:
   934     125C  0180               	clrf	0	;clear RAM location pointed to by FSR
   935     125D  0A84               	incf	4,f	;increment pointer
   936     125E  0604               	xorwf	4,w	;XOR with final address
   937     125F  1903               	btfsc	3,2	;have we reached the end yet?
   938     1260  3400               	retlw	0	;all done for this memory range, return
   939     1261  0604               	xorwf	4,w	;XOR again to restore value
   940     1262  2A5C               	goto	clrloop0	;do the next byte
   941                           
   942                           	psect	cstackBANK1
   943     00A0                     __pcstackBANK1:
   944     00A0                     ?_eval_poly:
   945     00A0                     eval_poly@x:	
   946                           ; 4 bytes @ 0x0
   947                           
   948                           
   949                           ; 4 bytes @ 0x0
   950     00A0                     	ds	4
   951     00A4                     eval_poly@d:
   952                           
   953                           ; 1 bytes @ 0x4
   954     00A4                     	ds	1
   955     00A5                     eval_poly@n:
   956                           
   957                           ; 2 bytes @ 0x5
   958     00A5                     	ds	2
   959     00A7                     ??_eval_poly:
   960                           
   961                           ; 1 bytes @ 0x7
   962     00A7                     	ds	5
   963     00AC                     eval_poly@res:
   964                           
   965                           ; 4 bytes @ 0xC
   966     00AC                     	ds	4
   967     00B0                     ?_log:
   968     00B0                     log@x:	
   969                           ; 4 bytes @ 0x10
   970                           
   971                           
   972                           ; 4 bytes @ 0x10
   973     00B0                     	ds	4
   974     00B4                     ?_Calculus_Temperature:
   975     00B4                     Calculus_Temperature@temperature:	
   976                           ; 2 bytes @ 0x14
   977                           
   978                           
   979                           ; 2 bytes @ 0x14
   980     00B4                     	ds	2
   981     00B6                     ??_Calculus_Temperature:
   982                           
   983                           ; 1 bytes @ 0x16
   984     00B6                     	ds	2
   985     00B8                     Calculus_Temperature@a:
   986                           
   987                           ; 4 bytes @ 0x18
   988     00B8                     	ds	4
   989     00BC                     _Calculus_Temperature$1076:
   990                           
   991                           ; 4 bytes @ 0x1C
   992     00BC                     	ds	4
   993     00C0                     _Calculus_Temperature$1077:
   994                           
   995                           ; 4 bytes @ 0x20
   996     00C0                     	ds	4
   997     00C4                     _Calculus_Temperature$1078:
   998                           
   999                           ; 4 bytes @ 0x24
  1000     00C4                     	ds	4
  1001     00C8                     Calculus_Temperature@tempC:
  1002                           
  1003                           ; 4 bytes @ 0x28
  1004     00C8                     	ds	4
  1005     00CC                     ??_function_Environment:
  1006                           
  1007                           ; 1 bytes @ 0x2C
  1008     00CC                     	ds	3
  1009     00CF                     function_Environment@value_temperature:
  1010                           
  1011                           ; 2 bytes @ 0x2F
  1012     00CF                     	ds	2
  1013     00D1                     function_Environment@temperature_celsius:
  1014                           
  1015                           ; 2 bytes @ 0x31
  1016     00D1                     	ds	2
  1017                           
  1018                           	psect	cstackCOMMON
  1019     0070                     __pcstackCOMMON:
  1020     0070                     ?___fleq:
  1021     0070                     ?___flge:	
  1022                           ; 1 bit 
  1023                           
  1024     0070                     ?_ADC_Init:	
  1025                           ; 1 bit 
  1026                           
  1027     0070                     ??_ADC_Init:	
  1028                           ; 1 bytes @ 0x0
  1029                           
  1030     0070                     ?_LCD_Init:	
  1031                           ; 1 bytes @ 0x0
  1032                           
  1033     0070                     ?_keypad_init:	
  1034                           ; 1 bytes @ 0x0
  1035                           
  1036     0070                     ??_keypad_init:	
  1037                           ; 1 bytes @ 0x0
  1038                           
  1039     0070                     ?_function_Security:	
  1040                           ; 1 bytes @ 0x0
  1041                           
  1042     0070                     ?_function_Monitoring:	
  1043                           ; 1 bytes @ 0x0
  1044                           
  1045     0070                     ?_function_Locked:	
  1046                           ; 1 bytes @ 0x0
  1047                           
  1048     0070                     ?_function_Alarm:	
  1049                           ; 1 bytes @ 0x0
  1050                           
  1051     0070                     ?_function_Environment_alarm:	
  1052                           ; 1 bytes @ 0x0
  1053                           
  1054     0070                     ?_function_Environment:	
  1055                           ; 1 bytes @ 0x0
  1056                           
  1057     0070                     ?_LCD_Command:	
  1058                           ; 1 bytes @ 0x0
  1059                           
  1060     0070                     ??_LCD_Command:	
  1061                           ; 1 bytes @ 0x0
  1062                           
  1063     0070                     ?_Sensors_IHM:	
  1064                           ; 1 bytes @ 0x0
  1065                           
  1066     0070                     ??_Sensors_IHM:	
  1067                           ; 1 bytes @ 0x0
  1068                           
  1069     0070                     ?_main:	
  1070                           ; 1 bytes @ 0x0
  1071                           
  1072     0070                     ?_keypad_getkey:	
  1073                           ; 1 bytes @ 0x0
  1074                           
  1075     0070                     ??_keypad_getkey:	
  1076                           ; 1 bytes @ 0x0
  1077                           
  1078     0070                     ?_LCD_Char:	
  1079                           ; 1 bytes @ 0x0
  1080                           
  1081     0070                     ??_LCD_Char:	
  1082                           ; 1 bytes @ 0x0
  1083                           
  1084     0070                     ?_LCD_Clear:	
  1085                           ; 1 bytes @ 0x0
  1086                           
  1087     0070                     ?_strncmp:	
  1088                           ; 1 bytes @ 0x0
  1089                           
  1090     0070                     ?_Use_Channel:	
  1091                           ; 2 bytes @ 0x0
  1092                           
  1093     0070                     ?__Umul8_16:	
  1094                           ; 2 bytes @ 0x0
  1095                           
  1096     0070                     ?___lwdiv:	
  1097                           ; 2 bytes @ 0x0
  1098                           
  1099     0070                     ?___fltol:	
  1100                           ; 2 bytes @ 0x0
  1101                           
  1102     0070                     ?___xxtofl:	
  1103                           ; 4 bytes @ 0x0
  1104                           
  1105     0070                     Sensors_IHM@alarm_activate:	
  1106                           ; 4 bytes @ 0x0
  1107                           
  1108     0070                     __Umul8_16@multiplicand:	
  1109                           ; 1 bytes @ 0x0
  1110                           
  1111     0070                     strncmp@s2:	
  1112                           ; 1 bytes @ 0x0
  1113                           
  1114     0070                     Use_Channel@select:	
  1115                           ; 1 bytes @ 0x0
  1116                           
  1117     0070                     ___lwdiv@divisor:	
  1118                           ; 2 bytes @ 0x0
  1119                           
  1120     0070                     ___fleq@ff1:	
  1121                           ; 2 bytes @ 0x0
  1122                           
  1123     0070                     ___flge@ff1:	
  1124                           ; 4 bytes @ 0x0
  1125                           
  1126     0070                     ___fltol@f1:	
  1127                           ; 4 bytes @ 0x0
  1128                           
  1129     0070                     ___xxtofl@val:	
  1130                           ; 4 bytes @ 0x0
  1131                           
  1132                           
  1133                           ; 4 bytes @ 0x0
  1134     0070                     	ds	1
  1135     0071                     strncmp@len:
  1136                           
  1137                           ; 2 bytes @ 0x1
  1138     0071                     	ds	1
  1139     0072                     ??_Use_Channel:
  1140     0072                     ??__Umul8_16:	
  1141                           ; 1 bytes @ 0x2
  1142                           
  1143     0072                     LCD_Command@cmd:	
  1144                           ; 1 bytes @ 0x2
  1145                           
  1146     0072                     LCD_Char@dat:	
  1147                           ; 1 bytes @ 0x2
  1148                           
  1149     0072                     ___lwdiv@dividend:	
  1150                           ; 1 bytes @ 0x2
  1151                           
  1152                           
  1153                           ; 2 bytes @ 0x2
  1154     0072                     	ds	1
  1155     0073                     ??_LCD_Init:
  1156     0073                     ??_strncmp:	
  1157                           ; 1 bytes @ 0x3
  1158                           
  1159     0073                     ?_LCD_String:	
  1160                           ; 1 bytes @ 0x3
  1161                           
  1162     0073                     ??_LCD_Clear:	
  1163                           ; 1 bytes @ 0x3
  1164                           
  1165     0073                     LCD_String@msg:	
  1166                           ; 1 bytes @ 0x3
  1167                           
  1168                           
  1169                           ; 2 bytes @ 0x3
  1170     0073                     	ds	1
  1171     0074                     ??___fltol:
  1172     0074                     ??___lwdiv:	
  1173                           ; 1 bytes @ 0x4
  1174                           
  1175     0074                     ??___xxtofl:	
  1176                           ; 1 bytes @ 0x4
  1177                           
  1178     0074                     ___lwdiv@quotient:	
  1179                           ; 1 bytes @ 0x4
  1180                           
  1181     0074                     __Umul8_16@product:	
  1182                           ; 2 bytes @ 0x4
  1183                           
  1184     0074                     ___fleq@ff2:	
  1185                           ; 2 bytes @ 0x4
  1186                           
  1187     0074                     ___flge@ff2:	
  1188                           ; 4 bytes @ 0x4
  1189                           
  1190                           
  1191                           ; 4 bytes @ 0x4
  1192     0074                     	ds	1
  1193     0075                     ??_LCD_String:
  1194     0075                     ?_LCD_String_xy:	
  1195                           ; 1 bytes @ 0x5
  1196                           
  1197     0075                     LCD_String_xy@pos:	
  1198                           ; 1 bytes @ 0x5
  1199                           
  1200     0075                     strncmp@s1:	
  1201                           ; 1 bytes @ 0x5
  1202                           
  1203                           
  1204                           ; 1 bytes @ 0x5
  1205     0075                     	ds	1
  1206     0076                     ___lwdiv@counter:
  1207     0076                     LCD_String_xy@msg:	
  1208                           ; 1 bytes @ 0x6
  1209                           
  1210     0076                     __Umul8_16@word_mpld:	
  1211                           ; 2 bytes @ 0x6
  1212                           
  1213                           
  1214                           ; 2 bytes @ 0x6
  1215     0076                     	ds	1
  1216     0077                     ?___lwmod:
  1217     0077                     ___lwmod@divisor:	
  1218                           ; 2 bytes @ 0x7
  1219                           
  1220                           
  1221                           ; 2 bytes @ 0x7
  1222     0077                     	ds	1
  1223     0078                     ??_LCD_String_xy:
  1224     0078                     ??___fleq:	
  1225                           ; 1 bytes @ 0x8
  1226                           
  1227     0078                     ??___flge:	
  1228                           ; 1 bytes @ 0x8
  1229                           
  1230     0078                     LCD_String_xy@row:	
  1231                           ; 1 bytes @ 0x8
  1232                           
  1233     0078                     ___fltol@sign1:	
  1234                           ; 1 bytes @ 0x8
  1235                           
  1236     0078                     __Umul8_16@multiplier:	
  1237                           ; 1 bytes @ 0x8
  1238                           
  1239     0078                     ___xxtofl@sign:	
  1240                           ; 1 bytes @ 0x8
  1241                           
  1242                           
  1243                           ; 1 bytes @ 0x8
  1244     0078                     	ds	1
  1245     0079                     LCD_String_xy@location:
  1246     0079                     ___fltol@exp1:	
  1247                           ; 1 bytes @ 0x9
  1248                           
  1249     0079                     ___xxtofl@exp:	
  1250                           ; 1 bytes @ 0x9
  1251                           
  1252     0079                     ___lwmod@dividend:	
  1253                           ; 1 bytes @ 0x9
  1254                           
  1255                           
  1256                           ; 2 bytes @ 0x9
  1257     0079                     	ds	1
  1258     007A                     ??_function_Security:
  1259     007A                     ??_function_Locked:	
  1260                           ; 1 bytes @ 0xA
  1261                           
  1262     007A                     ??_function_Alarm:	
  1263                           ; 1 bytes @ 0xA
  1264                           
  1265     007A                     ??_function_Environment_alarm:	
  1266                           ; 1 bytes @ 0xA
  1267                           
  1268     007A                     ___xxtofl@arg:	
  1269                           ; 1 bytes @ 0xA
  1270                           
  1271                           
  1272                           ; 4 bytes @ 0xA
  1273     007A                     	ds	1
  1274     007B                     ??___lwmod:
  1275     007B                     ___lwmod@counter:	
  1276                           ; 1 bytes @ 0xB
  1277                           
  1278                           
  1279                           ; 1 bytes @ 0xB
  1280     007B                     	ds	1
  1281     007C                     ??_frexp:
  1282                           
  1283                           ; 1 bytes @ 0xC
  1284     007C                     	ds	1
  1285     007D                     function_Security@key:
  1286     007D                     function_Alarm@time:	
  1287                           ; 1 bytes @ 0xD
  1288                           
  1289     007D                     function_Environment_alarm@time2:	
  1290                           ; 1 bytes @ 0xD
  1291                           
  1292                           
  1293                           ; 1 bytes @ 0xD
  1294     007D                     	ds	1
  1295     007E                     ??_log:
  1296     007E                     ??_main:	
  1297                           ; 1 bytes @ 0xE
  1298                           
  1299                           
  1300                           	psect	cstackBANK0
  1301     0020                     __pcstackBANK0:	
  1302                           ; 1 bytes @ 0xE
  1303                           
  1304     0020                     ?_sprintf:
  1305     0020                     ?_frexp:	
  1306                           ; 2 bytes @ 0x0
  1307                           
  1308     0020                     sprintf@f:	
  1309                           ; 4 bytes @ 0x0
  1310                           
  1311     0020                     frexp@value:	
  1312                           ; 1 bytes @ 0x0
  1313                           
  1314     0020                     keypad_getkey@letters:	
  1315                           ; 4 bytes @ 0x0
  1316                           
  1317                           
  1318                           ; 16 bytes @ 0x0
  1319     0020                     	ds	4
  1320     0024                     frexp@eptr:
  1321                           
  1322                           ; 1 bytes @ 0x4
  1323     0024                     	ds	1
  1324     0025                     ?___flmul:
  1325     0025                     ___flmul@b:	
  1326                           ; 4 bytes @ 0x5
  1327                           
  1328                           
  1329                           ; 4 bytes @ 0x5
  1330     0025                     	ds	2
  1331     0027                     ??_sprintf:
  1332                           
  1333                           ; 1 bytes @ 0x7
  1334     0027                     	ds	2
  1335     0029                     ___flmul@a:
  1336                           
  1337                           ; 4 bytes @ 0x9
  1338     0029                     	ds	1
  1339     002A                     sprintf@ap:
  1340                           
  1341                           ; 1 bytes @ 0xA
  1342     002A                     	ds	1
  1343     002B                     sprintf@flag:
  1344                           
  1345                           ; 1 bytes @ 0xB
  1346     002B                     	ds	1
  1347     002C                     sprintf@ccnt:
  1348                           
  1349                           ; 2 bytes @ 0xC
  1350     002C                     	ds	1
  1351     002D                     ??___flmul:
  1352                           
  1353                           ; 1 bytes @ 0xD
  1354     002D                     	ds	1
  1355     002E                     sprintf@prec:
  1356                           
  1357                           ; 1 bytes @ 0xE
  1358     002E                     	ds	1
  1359     002F                     sprintf@val:
  1360                           
  1361                           ; 2 bytes @ 0xF
  1362     002F                     	ds	1
  1363     0030                     keypad_getkey@value:
  1364                           
  1365                           ; 1 bytes @ 0x10
  1366     0030                     	ds	1
  1367     0031                     sprintf@sp:
  1368     0031                     keypad_getkey@i:	
  1369                           ; 1 bytes @ 0x11
  1370                           
  1371                           
  1372                           ; 2 bytes @ 0x11
  1373     0031                     	ds	1
  1374     0032                     sprintf@c:
  1375     0032                     ___flmul@sign:	
  1376                           ; 1 bytes @ 0x12
  1377                           
  1378                           
  1379                           ; 1 bytes @ 0x12
  1380     0032                     	ds	1
  1381     0033                     ??_function_Monitoring:
  1382     0033                     ___flmul@aexp:	
  1383                           ; 1 bytes @ 0x13
  1384                           
  1385                           
  1386                           ; 1 bytes @ 0x13
  1387     0033                     	ds	1
  1388     0034                     ___flmul@grs:
  1389                           
  1390                           ; 4 bytes @ 0x14
  1391     0034                     	ds	4
  1392     0038                     ___flmul@bexp:
  1393                           
  1394                           ; 1 bytes @ 0x18
  1395     0038                     	ds	1
  1396     0039                     ___flmul@prod:
  1397                           
  1398                           ; 4 bytes @ 0x19
  1399     0039                     	ds	4
  1400     003D                     ___flmul@temp:
  1401                           
  1402                           ; 2 bytes @ 0x1D
  1403     003D                     	ds	2
  1404     003F                     ?___fldiv:
  1405     003F                     ___fldiv@a:	
  1406                           ; 4 bytes @ 0x1F
  1407                           
  1408                           
  1409                           ; 4 bytes @ 0x1F
  1410     003F                     	ds	4
  1411     0043                     ___fldiv@b:
  1412                           
  1413                           ; 4 bytes @ 0x23
  1414     0043                     	ds	4
  1415     0047                     ??___fldiv:
  1416                           
  1417                           ; 1 bytes @ 0x27
  1418     0047                     	ds	5
  1419     004C                     ___fldiv@rem:
  1420                           
  1421                           ; 4 bytes @ 0x2C
  1422     004C                     	ds	4
  1423     0050                     ___fldiv@sign:
  1424                           
  1425                           ; 1 bytes @ 0x30
  1426     0050                     	ds	1
  1427     0051                     ___fldiv@new_exp:
  1428                           
  1429                           ; 2 bytes @ 0x31
  1430     0051                     	ds	2
  1431     0053                     ___fldiv@grs:
  1432                           
  1433                           ; 4 bytes @ 0x33
  1434     0053                     	ds	4
  1435     0057                     ___fldiv@bexp:
  1436                           
  1437                           ; 1 bytes @ 0x37
  1438     0057                     	ds	1
  1439     0058                     ___fldiv@aexp:
  1440                           
  1441                           ; 1 bytes @ 0x38
  1442     0058                     	ds	1
  1443     0059                     ?___fladd:
  1444     0059                     ___fladd@b:	
  1445                           ; 4 bytes @ 0x39
  1446                           
  1447                           
  1448                           ; 4 bytes @ 0x39
  1449     0059                     	ds	4
  1450     005D                     ___fladd@a:
  1451                           
  1452                           ; 4 bytes @ 0x3D
  1453     005D                     	ds	4
  1454     0061                     ??___fladd:
  1455                           
  1456                           ; 1 bytes @ 0x41
  1457     0061                     	ds	8
  1458     0069                     ___fladd@signs:
  1459                           
  1460                           ; 1 bytes @ 0x49
  1461     0069                     	ds	1
  1462     006A                     ___fladd@aexp:
  1463                           
  1464                           ; 1 bytes @ 0x4A
  1465     006A                     	ds	1
  1466     006B                     ___fladd@bexp:
  1467                           
  1468                           ; 1 bytes @ 0x4B
  1469     006B                     	ds	1
  1470     006C                     ___fladd@grs:
  1471                           
  1472                           ; 1 bytes @ 0x4C
  1473     006C                     	ds	1
  1474     006D                     log@exponent:
  1475                           
  1476                           ; 2 bytes @ 0x4D
  1477     006D                     	ds	2
  1478                           
  1479                           	psect	maintext
  1480     0006                     __pmaintext:	
  1481 ;;
  1482 ;;Main: autosize = 0, tempsize = 0, incstack = 0, save=0
  1483 ;;
  1484 ;; *************** function _main *****************
  1485 ;; Defined at:
  1486 ;;		line 38 in file "Main_Seguridad.c"
  1487 ;; Parameters:    Size  Location     Type
  1488 ;;		None
  1489 ;; Auto vars:     Size  Location     Type
  1490 ;;		None
  1491 ;; Return value:  Size  Location     Type
  1492 ;;                  1    wreg      void 
  1493 ;; Registers used:
  1494 ;;		wreg, fsr0l, fsr0h, status,2, status,0, btemp+1, pclath, cstack
  1495 ;; Tracked objects:
  1496 ;;		On entry : B00/0
  1497 ;;		On exit  : 0/0
  1498 ;;		Unchanged: 0/0
  1499 ;; Data sizes:     COMMON   BANK0   BANK1   BANK3   BANK2
  1500 ;;      Params:         0       0       0       0       0
  1501 ;;      Locals:         0       0       0       0       0
  1502 ;;      Temps:          0       0       0       0       0
  1503 ;;      Totals:         0       0       0       0       0
  1504 ;;Total ram usage:        0 bytes
  1505 ;; Hardware stack levels required when called: 6
  1506 ;; This function calls:
  1507 ;;		_ADC_Init
  1508 ;;		_LCD_Init
  1509 ;;		_function_Alarm
  1510 ;;		_function_Environment
  1511 ;;		_function_Environment_alarm
  1512 ;;		_function_Locked
  1513 ;;		_function_Monitoring
  1514 ;;		_function_Security
  1515 ;;		_keypad_init
  1516 ;; This function is called by:
  1517 ;;		Startup code after reset
  1518 ;; This function uses a non-reentrant model
  1519 ;;
  1520                           
  1521     0006                     _main:	
  1522                           ;psect for function _main
  1523                           
  1524     0006                     l4040:	
  1525                           ;incstack = 0
  1526                           ; Regs used in _main: [wreg-fsr0h+status,2+status,0+btemp+1+pclath+cstack]
  1527                           
  1528                           
  1529                           ;Main_Seguridad.c: 40:     OSCCON = 0x71;
  1530     0006  3071               	movlw	113
  1531     0007  1683               	bsf	3,5	;RP0=1, select bank1
  1532     0008  1303               	bcf	3,6	;RP1=0, select bank1
  1533     0009  008F               	movwf	15	;volatile
  1534     000A                     l4042:
  1535                           
  1536                           ;Main_Seguridad.c: 41:     TRISE = 0;
  1537     000A  0189               	clrf	9	;volatile
  1538     000B                     l4044:
  1539                           
  1540                           ;Main_Seguridad.c: 42:     PORTE = 0;
  1541     000B  1283               	bcf	3,5	;RP0=0, select bank0
  1542     000C  1303               	bcf	3,6	;RP1=0, select bank0
  1543     000D  0189               	clrf	9	;volatile
  1544     000E                     l4046:
  1545                           
  1546                           ;Main_Seguridad.c: 43:     TRISD = 0x00;
  1547     000E  1683               	bsf	3,5	;RP0=1, select bank1
  1548     000F  1303               	bcf	3,6	;RP1=0, select bank1
  1549     0010  0188               	clrf	8	;volatile
  1550     0011                     l4048:
  1551                           
  1552                           ;Main_Seguridad.c: 44:     TRISC = 0x07;
  1553     0011  3007               	movlw	7
  1554     0012  0087               	movwf	7	;volatile
  1555     0013                     l4050:
  1556                           
  1557                           ;Main_Seguridad.c: 45:     TRISA = 0b00010011;
  1558     0013  3013               	movlw	19
  1559     0014  0085               	movwf	5	;volatile
  1560     0015                     l4052:
  1561                           
  1562                           ;Main_Seguridad.c: 46:     ANSEL = 0b00010011;
  1563     0015  3013               	movlw	19
  1564     0016  1683               	bsf	3,5	;RP0=1, select bank3
  1565     0017  1703               	bsf	3,6	;RP1=1, select bank3
  1566     0018  0088               	movwf	8	;volatile
  1567     0019                     l4054:
  1568                           
  1569                           ;Main_Seguridad.c: 48:     ADC_Init();
  1570     0019  160A  118A  2263  120A  118A  	fcall	_ADC_Init
  1571     001E                     l4056:
  1572                           
  1573                           ;Main_Seguridad.c: 49:     LCD_Init();
  1574     001E  160A  118A  235C  120A  118A  	fcall	_LCD_Init
  1575     0023                     l4058:
  1576                           
  1577                           ;Main_Seguridad.c: 50:     keypad_init();
  1578     0023  160A  118A  226F  120A  118A  	fcall	_keypad_init
  1579     0028                     l4060:
  1580                           
  1581                           ;Main_Seguridad.c: 52:     Estado = security;
  1582     0028  1283               	bcf	3,5	;RP0=0, select bank0
  1583     0029  1303               	bcf	3,6	;RP1=0, select bank0
  1584     002A  01EF               	clrf	_Estado
  1585     002B                     l4062:
  1586                           
  1587                           ;Main_Seguridad.c: 56:         if (Estado == security) {
  1588     002B  1283               	bcf	3,5	;RP0=0, select bank0
  1589     002C  1303               	bcf	3,6	;RP1=0, select bank0
  1590     002D  086F               	movf	_Estado,w
  1591     002E  1D03               	btfss	3,2
  1592     002F  2831               	goto	u5601
  1593     0030  2832               	goto	u5600
  1594     0031                     u5601:
  1595     0031  2838               	goto	l4066
  1596     0032                     u5600:
  1597     0032                     l4064:
  1598                           
  1599                           ;Main_Seguridad.c: 57:             function_Security();
  1600     0032  160A  118A  2754  120A  118A  	fcall	_function_Security
  1601                           
  1602                           ;Main_Seguridad.c: 58:         } else if (Estado == monitoring) {
  1603     0037  282B               	goto	l4062
  1604     0038                     l4066:
  1605     0038  036F               	decf	_Estado,w
  1606     0039  1D03               	btfss	3,2
  1607     003A  283C               	goto	u5611
  1608     003B  283D               	goto	u5610
  1609     003C                     u5611:
  1610     003C  2843               	goto	l4070
  1611     003D                     u5610:
  1612     003D                     l4068:
  1613                           
  1614                           ;Main_Seguridad.c: 59:             function_Monitoring();
  1615     003D  160A  118A  2635  120A  118A  	fcall	_function_Monitoring
  1616                           
  1617                           ;Main_Seguridad.c: 60:         } else if (Estado == locked) {
  1618     0042  282B               	goto	l4062
  1619     0043                     l4070:
  1620     0043  3002               	movlw	2
  1621     0044  066F               	xorwf	_Estado,w
  1622     0045  1D03               	btfss	3,2
  1623     0046  2848               	goto	u5621
  1624     0047  2849               	goto	u5620
  1625     0048                     u5621:
  1626     0048  284F               	goto	l4074
  1627     0049                     u5620:
  1628     0049                     l4072:
  1629                           
  1630                           ;Main_Seguridad.c: 61:             function_Locked();
  1631     0049  160A  118A  2386  120A  118A  	fcall	_function_Locked
  1632                           
  1633                           ;Main_Seguridad.c: 62:         } else if (Estado == alarm) {
  1634     004E  282B               	goto	l4062
  1635     004F                     l4074:
  1636     004F  3003               	movlw	3
  1637     0050  066F               	xorwf	_Estado,w
  1638     0051  1D03               	btfss	3,2
  1639     0052  2854               	goto	u5631
  1640     0053  2855               	goto	u5630
  1641     0054                     u5631:
  1642     0054  285B               	goto	l4078
  1643     0055                     u5630:
  1644     0055                     l4076:
  1645                           
  1646                           ;Main_Seguridad.c: 63:             function_Alarm();
  1647     0055  160A  118A  2457  120A  118A  	fcall	_function_Alarm
  1648                           
  1649                           ;Main_Seguridad.c: 64:         } else if (Estado == alarm_environment) {
  1650     005A  282B               	goto	l4062
  1651     005B                     l4078:
  1652     005B  3005               	movlw	5
  1653     005C  066F               	xorwf	_Estado,w
  1654     005D  1D03               	btfss	3,2
  1655     005E  2860               	goto	u5641
  1656     005F  2861               	goto	u5640
  1657     0060                     u5641:
  1658     0060  2867               	goto	l4082
  1659     0061                     u5640:
  1660     0061                     l4080:
  1661                           
  1662                           ;Main_Seguridad.c: 65:             function_Environment_alarm();
  1663     0061  160A  118A  2498  120A  118A  	fcall	_function_Environment_alarm
  1664                           
  1665                           ;Main_Seguridad.c: 66:         } else {
  1666     0066  282B               	goto	l4062
  1667     0067                     l4082:
  1668                           
  1669                           ;Main_Seguridad.c: 67:             function_Environment();
  1670     0067  120A  158A  2116  120A  118A  	fcall	_function_Environment
  1671     006C  282B               	goto	l4062
  1672     006D  120A  118A  2800   	ljmp	start
  1673     0070                     __end_of_main:
  1674                           
  1675                           	psect	text1
  1676     126F                     __ptext1:	
  1677 ;; *************** function _keypad_init *****************
  1678 ;; Defined at:
  1679 ;;		line 36 in file "keypad.c"
  1680 ;; Parameters:    Size  Location     Type
  1681 ;;		None
  1682 ;; Auto vars:     Size  Location     Type
  1683 ;;		None
  1684 ;; Return value:  Size  Location     Type
  1685 ;;                  1    wreg      void 
  1686 ;; Registers used:
  1687 ;;		wreg, status,2, status,0, btemp+1
  1688 ;; Tracked objects:
  1689 ;;		On entry : 0/0
  1690 ;;		On exit  : 0/0
  1691 ;;		Unchanged: 0/0
  1692 ;; Data sizes:     COMMON   BANK0   BANK1   BANK3   BANK2
  1693 ;;      Params:         0       0       0       0       0
  1694 ;;      Locals:         0       0       0       0       0
  1695 ;;      Temps:          0       0       0       0       0
  1696 ;;      Totals:         0       0       0       0       0
  1697 ;;Total ram usage:        0 bytes
  1698 ;; Hardware stack levels used: 1
  1699 ;; This function calls:
  1700 ;;		Nothing
  1701 ;; This function is called by:
  1702 ;;		_main
  1703 ;; This function uses a non-reentrant model
  1704 ;;
  1705                           
  1706     126F                     _keypad_init:	
  1707                           ;psect for function _keypad_init
  1708                           
  1709     126F                     l3290:	
  1710                           ;incstack = 0
  1711                           ; Regs used in _keypad_init: [wreg+status,2+status,0+btemp+1]
  1712                           
  1713                           
  1714                           ;keypad.c: 38:     TRISB &= ~(1<<0) & ~(1<<1) & ~(1<<2) & ~(1<<3);
  1715     126F  30F0               	movlw	240
  1716     1270  00FF               	movwf	btemp+1
  1717     1271  087F               	movf	btemp+1,w
  1718     1272  1683               	bsf	3,5	;RP0=1, select bank1
  1719     1273  1303               	bcf	3,6	;RP1=0, select bank1
  1720     1274  0586               	andwf	6,f	;volatile
  1721                           
  1722                           ;keypad.c: 39:     TRISB |= (1<<4) | (1<<5) | (1<<6) | (1<<7);
  1723     1275  30F0               	movlw	240
  1724     1276  00FF               	movwf	btemp+1
  1725     1277  087F               	movf	btemp+1,w
  1726     1278  0486               	iorwf	6,f	;volatile
  1727     1279                     l3292:
  1728                           
  1729                           ;keypad.c: 40:     OPTION_REGbits.nRBPU = 0;
  1730     1279  1381               	bcf	1,7	;volatile
  1731     127A                     l3294:
  1732                           
  1733                           ;keypad.c: 41:     ANSELH = 0;
  1734     127A  1683               	bsf	3,5	;RP0=1, select bank3
  1735     127B  1703               	bsf	3,6	;RP1=1, select bank3
  1736     127C  0189               	clrf	9	;volatile
  1737     127D                     l83:
  1738     127D  0008               	return
  1739     127E                     __end_of_keypad_init:
  1740                           
  1741                           	psect	text2
  1742     1754                     __ptext2:	
  1743 ;; *************** function _function_Security *****************
  1744 ;; Defined at:
  1745 ;;		line 57 in file "Funciones_Estado.c"
  1746 ;; Parameters:    Size  Location     Type
  1747 ;;		None
  1748 ;; Auto vars:     Size  Location     Type
  1749 ;;  key             1   13[COMMON] unsigned char 
  1750 ;; Return value:  Size  Location     Type
  1751 ;;                  1    wreg      void 
  1752 ;; Registers used:
  1753 ;;		wreg, fsr0l, fsr0h, status,2, status,0, btemp+1, pclath, cstack
  1754 ;; Tracked objects:
  1755 ;;		On entry : 0/0
  1756 ;;		On exit  : 0/0
  1757 ;;		Unchanged: 0/0
  1758 ;; Data sizes:     COMMON   BANK0   BANK1   BANK3   BANK2
  1759 ;;      Params:         0       0       0       0       0
  1760 ;;      Locals:         1       0       0       0       0
  1761 ;;      Temps:          3       0       0       0       0
  1762 ;;      Totals:         4       0       0       0       0
  1763 ;;Total ram usage:        4 bytes
  1764 ;; Hardware stack levels used: 1
  1765 ;; Hardware stack levels required when called: 3
  1766 ;; This function calls:
  1767 ;;		_LCD_Char
  1768 ;;		_LCD_Clear
  1769 ;;		_LCD_Command
  1770 ;;		_LCD_String_xy
  1771 ;;		_keypad_getkey
  1772 ;;		_strncmp
  1773 ;; This function is called by:
  1774 ;;		_main
  1775 ;; This function uses a non-reentrant model
  1776 ;;
  1777                           
  1778     1754                     _function_Security:	
  1779                           ;psect for function _function_Security
  1780                           
  1781     1754                     l3296:	
  1782                           ;incstack = 0
  1783                           ; Regs used in _function_Security: [wreg-fsr0h+status,2+status,0+btemp+1+pclath+cstack]
  1784                           
  1785     1754                     l3298:
  1786                           
  1787                           ;Funciones_Estado.c: 59:     LCD_Clear();
  1788     1754  160A  118A  227E  160A  118A  	fcall	_LCD_Clear
  1789     1759                     l3300:
  1790                           
  1791                           ;Funciones_Estado.c: 60:     LCD_String_xy(0, 0, "Press a Key");
  1792     1759  01F5               	clrf	LCD_String_xy@pos
  1793     175A  30A7               	movlw	(low ((STR_2-__stringbase)| (0+32768)))& (0+255)
  1794     175B  00F6               	movwf	LCD_String_xy@msg
  1795     175C  3080               	movlw	128
  1796     175D  00F7               	movwf	LCD_String_xy@msg+1
  1797     175E  3000               	movlw	0
  1798     175F  160A  118A  230F  160A  118A  	fcall	_LCD_String_xy
  1799     1764                     l3302:
  1800                           
  1801                           ;Funciones_Estado.c: 61:     LCD_Command(0xC0);
  1802     1764  30C0               	movlw	192
  1803     1765  160A  118A  23B1  160A  118A  	fcall	_LCD_Command
  1804     176A                     l3304:
  1805                           
  1806                           ;Funciones_Estado.c: 64:         key = keypad_getkey();
  1807     176A  120A  158A  235B  160A  118A  	fcall	_keypad_getkey
  1808     176F  00FD               	movwf	function_Security@key
  1809     1770                     l3306:
  1810                           
  1811                           ;Funciones_Estado.c: 65:         if (key != 0) {
  1812     1770  087D               	movf	function_Security@key,w
  1813     1771  1903               	btfsc	3,2
  1814     1772  2F74               	goto	u4301
  1815     1773  2F75               	goto	u4300
  1816     1774                     u4301:
  1817     1774  2F87               	goto	l3314
  1818     1775                     u4300:
  1819     1775                     l3308:
  1820                           
  1821                           ;Funciones_Estado.c: 66:             LCD_Char('*');
  1822     1775  302A               	movlw	42
  1823     1776  160A  118A  23E7  160A  118A  	fcall	_LCD_Char
  1824     177B                     l3310:
  1825                           
  1826                           ;Funciones_Estado.c: 68:             pass_user[idx++] = key;
  1827     177B  1683               	bsf	3,5	;RP0=1, select bank1
  1828     177C  1303               	bcf	3,6	;RP1=0, select bank1
  1829     177D  0856               	movf	_idx^(0+128),w
  1830     177E  3EDB               	addlw	(low (_pass_user| 0))& (0+255)
  1831     177F  0084               	movwf	4
  1832     1780  087D               	movf	function_Security@key,w
  1833     1781  1383               	bcf	3,7	;select IRP bank1
  1834     1782  0080               	movwf	0
  1835     1783                     l3312:
  1836     1783  3001               	movlw	1
  1837     1784  00FF               	movwf	btemp+1
  1838     1785  087F               	movf	btemp+1,w
  1839     1786  07D6               	addwf	_idx^(0+128),f
  1840     1787                     l3314:
  1841                           
  1842                           ;Funciones_Estado.c: 70:     } while (idx < 5);
  1843     1787  3005               	movlw	5
  1844     1788  1683               	bsf	3,5	;RP0=1, select bank1
  1845     1789  1303               	bcf	3,6	;RP1=0, select bank1
  1846     178A  0256               	subwf	_idx^(0+128),w
  1847     178B  1C03               	skipc
  1848     178C  2F8E               	goto	u4311
  1849     178D  2F8F               	goto	u4310
  1850     178E                     u4311:
  1851     178E  2F6A               	goto	l3304
  1852     178F                     u4310:
  1853     178F                     l3316:
  1854                           
  1855                           ;Funciones_Estado.c: 72:     if (strncmp(pass_user, password, 4) == 0) {
  1856     178F  302F               	movlw	(low ((_password-__stringbase)| (0+32768)))& (0+255)
  1857     1790  00F0               	movwf	strncmp@s2
  1858     1791  3004               	movlw	4
  1859     1792  00F1               	movwf	strncmp@len
  1860     1793  3000               	movlw	0
  1861     1794  00F2               	movwf	strncmp@len+1
  1862     1795  30DB               	movlw	(low (_pass_user| 0))& (0+255)
  1863     1796  160A  118A  251D  160A  118A  	fcall	_strncmp
  1864     179B  0870               	movf	?_strncmp,w
  1865     179C  0471               	iorwf	?_strncmp+1,w
  1866     179D  1D03               	btfss	3,2
  1867     179E  2FA0               	goto	u4321
  1868     179F  2FA1               	goto	u4320
  1869     17A0                     u4321:
  1870     17A0  2FC7               	goto	l3330
  1871     17A1                     u4320:
  1872     17A1                     l3318:
  1873                           
  1874                           ;Funciones_Estado.c: 73:         LCD_Clear();
  1875     17A1  160A  118A  227E  160A  118A  	fcall	_LCD_Clear
  1876     17A6                     l3320:
  1877                           
  1878                           ;Funciones_Estado.c: 74:         LCD_String_xy(0, 0, "Clave Correcta");
  1879     17A6  01F5               	clrf	LCD_String_xy@pos
  1880     17A7  308B               	movlw	(low ((STR_3-__stringbase)| (0+32768)))& (0+255)
  1881     17A8  00F6               	movwf	LCD_String_xy@msg
  1882     17A9  3080               	movlw	128
  1883     17AA  00F7               	movwf	LCD_String_xy@msg+1
  1884     17AB  3000               	movlw	0
  1885     17AC  160A  118A  230F  160A  118A  	fcall	_LCD_String_xy
  1886     17B1                     l3322:
  1887                           
  1888                           ;Funciones_Estado.c: 75:         RE1 = 1;
  1889     17B1  1283               	bcf	3,5	;RP0=0, select bank0
  1890     17B2  1303               	bcf	3,6	;RP1=0, select bank0
  1891     17B3  1489               	bsf	9,1	;volatile
  1892     17B4                     l3324:
  1893                           
  1894                           ;Funciones_Estado.c: 76:         _delay((unsigned long)((2000)*(8000000/4000.0)));
  1895     17B4  3015               	movlw	21
  1896     17B5  00FC               	movwf	??_function_Security+2
  1897     17B6  304B               	movlw	75
  1898     17B7  00FB               	movwf	??_function_Security+1
  1899     17B8  30BE               	movlw	190
  1900     17B9  00FA               	movwf	??_function_Security
  1901     17BA                     u5657:
  1902     17BA  0BFA               	decfsz	??_function_Security,f
  1903     17BB  2FBA               	goto	u5657
  1904     17BC  0BFB               	decfsz	??_function_Security+1,f
  1905     17BD  2FBA               	goto	u5657
  1906     17BE  0BFC               	decfsz	??_function_Security+2,f
  1907     17BF  2FBA               	goto	u5657
  1908     17C0  0000               	nop
  1909     17C1                     l3326:
  1910                           
  1911                           ;Funciones_Estado.c: 77:         RE1 = 0;
  1912     17C1  1283               	bcf	3,5	;RP0=0, select bank0
  1913     17C2  1303               	bcf	3,6	;RP1=0, select bank0
  1914     17C3  1089               	bcf	9,1	;volatile
  1915     17C4                     l3328:
  1916                           
  1917                           ;Funciones_Estado.c: 78:         Estado = monitoring;
  1918     17C4  01EF               	clrf	_Estado
  1919     17C5  0AEF               	incf	_Estado,f
  1920                           
  1921                           ;Funciones_Estado.c: 79:     } else {
  1922     17C6  2FF1               	goto	l3344
  1923     17C7                     l3330:
  1924                           
  1925                           ;Funciones_Estado.c: 80:         LCD_Clear();
  1926     17C7  160A  118A  227E  160A  118A  	fcall	_LCD_Clear
  1927     17CC                     l3332:
  1928                           
  1929                           ;Funciones_Estado.c: 81:         LCD_String_xy(0, 0, "Clave Incorrecta");
  1930     17CC  01F5               	clrf	LCD_String_xy@pos
  1931     17CD  305A               	movlw	(low ((STR_4-__stringbase)| (0+32768)))& (0+255)
  1932     17CE  00F6               	movwf	LCD_String_xy@msg
  1933     17CF  3080               	movlw	128
  1934     17D0  00F7               	movwf	LCD_String_xy@msg+1
  1935     17D1  3000               	movlw	0
  1936     17D2  160A  118A  230F  160A  118A  	fcall	_LCD_String_xy
  1937     17D7                     l3334:
  1938                           
  1939                           ;Funciones_Estado.c: 82:         RE2 = 1;
  1940     17D7  1283               	bcf	3,5	;RP0=0, select bank0
  1941     17D8  1303               	bcf	3,6	;RP1=0, select bank0
  1942     17D9  1509               	bsf	9,2	;volatile
  1943     17DA                     l3336:
  1944                           
  1945                           ;Funciones_Estado.c: 83:         _delay((unsigned long)((1000)*(8000000/4000.0)));
  1946     17DA  300B               	movlw	11
  1947     17DB  00FC               	movwf	??_function_Security+2
  1948     17DC  3026               	movlw	38
  1949     17DD  00FB               	movwf	??_function_Security+1
  1950     17DE  305D               	movlw	93
  1951     17DF  00FA               	movwf	??_function_Security
  1952     17E0                     u5667:
  1953     17E0  0BFA               	decfsz	??_function_Security,f
  1954     17E1  2FE0               	goto	u5667
  1955     17E2  0BFB               	decfsz	??_function_Security+1,f
  1956     17E3  2FE0               	goto	u5667
  1957     17E4  0BFC               	decfsz	??_function_Security+2,f
  1958     17E5  2FE0               	goto	u5667
  1959     17E6  2FE7               	nop2
  1960     17E7                     l3338:
  1961                           
  1962                           ;Funciones_Estado.c: 84:         RE2 = 0;
  1963     17E7  1283               	bcf	3,5	;RP0=0, select bank0
  1964     17E8  1303               	bcf	3,6	;RP1=0, select bank0
  1965     17E9  1109               	bcf	9,2	;volatile
  1966     17EA                     l3340:
  1967                           
  1968                           ;Funciones_Estado.c: 85:         intend++;
  1969     17EA  3001               	movlw	1
  1970     17EB  00FF               	movwf	btemp+1
  1971     17EC  087F               	movf	btemp+1,w
  1972     17ED  1683               	bsf	3,5	;RP0=1, select bank1
  1973     17EE  1303               	bcf	3,6	;RP1=0, select bank1
  1974     17EF  07D7               	addwf	_intend^(0+128),f
  1975     17F0                     l3342:
  1976                           
  1977                           ;Funciones_Estado.c: 86:         idx = 0;
  1978     17F0  01D6               	clrf	_idx^(0+128)
  1979     17F1                     l3344:
  1980                           
  1981                           ;Funciones_Estado.c: 89:     if (intend > 3) {
  1982     17F1  3004               	movlw	4
  1983     17F2  1683               	bsf	3,5	;RP0=1, select bank1
  1984     17F3  1303               	bcf	3,6	;RP1=0, select bank1
  1985     17F4  0257               	subwf	_intend^(0+128),w
  1986     17F5  1C03               	skipc
  1987     17F6  2FF8               	goto	u4331
  1988     17F7  2FF9               	goto	u4330
  1989     17F8                     u4331:
  1990     17F8  2FFF               	goto	l245
  1991     17F9                     u4330:
  1992     17F9                     l3346:
  1993                           
  1994                           ;Funciones_Estado.c: 90:         intend = 0;
  1995     17F9  01D7               	clrf	_intend^(0+128)
  1996                           
  1997                           ;Funciones_Estado.c: 91:         idx = 0;
  1998     17FA  01D6               	clrf	_idx^(0+128)
  1999     17FB                     l3348:
  2000                           
  2001                           ;Funciones_Estado.c: 92:         Estado = locked;
  2002     17FB  3002               	movlw	2
  2003     17FC  1283               	bcf	3,5	;RP0=0, select bank0
  2004     17FD  1303               	bcf	3,6	;RP1=0, select bank0
  2005     17FE  00EF               	movwf	_Estado
  2006     17FF                     l245:
  2007     17FF  0008               	return
  2008     1800                     __end_of_function_Security:
  2009                           
  2010                           	psect	text3
  2011     151D                     __ptext3:	
  2012 ;; *************** function _strncmp *****************
  2013 ;; Defined at:
  2014 ;;		line 4 in file "C:\Program Files\Microchip\xc8\v2.41\pic\sources\c90\common\strncmp.c"
  2015 ;; Parameters:    Size  Location     Type
  2016 ;;  s1              1    wreg     PTR const unsigned char 
  2017 ;;		 -> pass_user(5), 
  2018 ;;  s2              1    0[COMMON] PTR const unsigned char 
  2019 ;;		 -> password(5), 
  2020 ;;  len             2    1[COMMON] unsigned int 
  2021 ;; Auto vars:     Size  Location     Type
  2022 ;;  s1              1    5[COMMON] PTR const unsigned char 
  2023 ;;		 -> pass_user(5), 
  2024 ;; Return value:  Size  Location     Type
  2025 ;;                  2    0[COMMON] int 
  2026 ;; Registers used:
  2027 ;;		wreg, fsr0l, fsr0h, status,2, status,0, btemp+1, pclath
  2028 ;; Tracked objects:
  2029 ;;		On entry : 0/0
  2030 ;;		On exit  : 0/0
  2031 ;;		Unchanged: 0/0
  2032 ;; Data sizes:     COMMON   BANK0   BANK1   BANK3   BANK2
  2033 ;;      Params:         3       0       0       0       0
  2034 ;;      Locals:         1       0       0       0       0
  2035 ;;      Temps:          2       0       0       0       0
  2036 ;;      Totals:         6       0       0       0       0
  2037 ;;Total ram usage:        6 bytes
  2038 ;; Hardware stack levels used: 2
  2039 ;; This function calls:
  2040 ;;		Nothing
  2041 ;; This function is called by:
  2042 ;;		_function_Security
  2043 ;; This function uses a non-reentrant model
  2044 ;;
  2045                           
  2046     151D                     _strncmp:	
  2047                           ;psect for function _strncmp
  2048                           
  2049                           
  2050                           ;incstack = 0
  2051                           ; Regs used in _strncmp: [wreg-fsr0h+status,2+status,0+btemp+1+pclath]
  2052                           ;strncmp@s1 stored from wreg
  2053     151D  00F5               	movwf	strncmp@s1
  2054     151E                     l3226:
  2055     151E  2D52               	goto	l3238
  2056     151F                     l3228:
  2057     151F  0875               	movf	strncmp@s1,w
  2058     1520  0084               	movwf	4
  2059     1521  1383               	bcf	3,7	;select IRP bank0
  2060     1522  0800               	movf	0,w
  2061     1523  1903               	btfsc	3,2
  2062     1524  2D26               	goto	u4261
  2063     1525  2D27               	goto	u4260
  2064     1526                     u4261:
  2065     1526  2D37               	goto	l3232
  2066     1527                     u4260:
  2067     1527                     l3230:
  2068     1527  0870               	movf	strncmp@s2,w
  2069     1528  0084               	movwf	4
  2070     1529  120A  158A  200A  160A  118A  	fcall	stringdir
  2071     152E  00F3               	movwf	??_strncmp
  2072     152F  0875               	movf	strncmp@s1,w
  2073     1530  0084               	movwf	4
  2074     1531  0800               	movf	0,w
  2075     1532  0673               	xorwf	??_strncmp,w
  2076     1533  1903               	skipnz
  2077     1534  2D36               	goto	u4271
  2078     1535  2D37               	goto	u4270
  2079     1536                     u4271:
  2080     1536  2D4A               	goto	l3236
  2081     1537                     u4270:
  2082     1537                     l3232:
  2083     1537  0870               	movf	strncmp@s2,w
  2084     1538  0084               	movwf	4
  2085     1539  120A  158A  200A  160A  118A  	fcall	stringdir
  2086     153E  00F3               	movwf	??_strncmp
  2087     153F  0875               	movf	strncmp@s1,w
  2088     1540  0084               	movwf	4
  2089     1541  0800               	movf	0,w
  2090     1542  00F4               	movwf	??_strncmp+1
  2091     1543  0873               	movf	??_strncmp,w
  2092     1544  0274               	subwf	??_strncmp+1,w
  2093     1545  00F0               	movwf	?_strncmp
  2094     1546  01F1               	clrf	?_strncmp+1
  2095     1547  1C03               	skipc
  2096     1548  03F1               	decf	?_strncmp+1,f
  2097     1549  2D62               	goto	l911
  2098     154A                     l3236:
  2099     154A  3001               	movlw	1
  2100     154B  00FF               	movwf	btemp+1
  2101     154C  087F               	movf	btemp+1,w
  2102     154D  07F5               	addwf	strncmp@s1,f
  2103     154E  3001               	movlw	1
  2104     154F  00FF               	movwf	btemp+1
  2105     1550  087F               	movf	btemp+1,w
  2106     1551  07F0               	addwf	strncmp@s2,f
  2107     1552                     l3238:
  2108     1552  3001               	movlw	1
  2109     1553  02F1               	subwf	strncmp@len,f
  2110     1554  3000               	movlw	0
  2111     1555  1C03               	skipc
  2112     1556  03F2               	decf	strncmp@len+1,f
  2113     1557  02F2               	subwf	strncmp@len+1,f
  2114     1558  0A71               	incf	strncmp@len,w
  2115     1559  1D03               	skipz
  2116     155A  2D5F               	goto	u4281
  2117     155B  0A72               	incf	strncmp@len+1,w
  2118     155C  1D03               	btfss	3,2
  2119     155D  2D5F               	goto	u4281
  2120     155E  2D60               	goto	u4280
  2121     155F                     u4281:
  2122     155F  2D1F               	goto	l3228
  2123     1560                     u4280:
  2124     1560                     l3240:
  2125     1560  01F0               	clrf	?_strncmp
  2126     1561  01F1               	clrf	?_strncmp+1
  2127     1562                     l911:
  2128     1562  0008               	return
  2129     1563                     __end_of_strncmp:
  2130                           
  2131                           	psect	text4
  2132     0B5B                     __ptext4:	
  2133 ;; *************** function _keypad_getkey *****************
  2134 ;; Defined at:
  2135 ;;		line 53 in file "keypad.c"
  2136 ;; Parameters:    Size  Location     Type
  2137 ;;		None
  2138 ;; Auto vars:     Size  Location     Type
  2139 ;;  letters        16    0[BANK0 ] unsigned char [4][4]
  2140 ;;  i               2   17[BANK0 ] int 
  2141 ;;  value           1   16[BANK0 ] unsigned char 
  2142 ;; Return value:  Size  Location     Type
  2143 ;;                  1    wreg      unsigned char 
  2144 ;; Registers used:
  2145 ;;		wreg, fsr0l, fsr0h, status,2, status,0, btemp+1
  2146 ;; Tracked objects:
  2147 ;;		On entry : 0/0
  2148 ;;		On exit  : 0/0
  2149 ;;		Unchanged: 0/0
  2150 ;; Data sizes:     COMMON   BANK0   BANK1   BANK3   BANK2
  2151 ;;      Params:         0       0       0       0       0
  2152 ;;      Locals:         0      19       0       0       0
  2153 ;;      Temps:          4       0       0       0       0
  2154 ;;      Totals:         4      19       0       0       0
  2155 ;;Total ram usage:       23 bytes
  2156 ;; Hardware stack levels used: 1
  2157 ;; This function calls:
  2158 ;;		Nothing
  2159 ;; This function is called by:
  2160 ;;		_function_Security
  2161 ;; This function uses a non-reentrant model
  2162 ;;
  2163                           
  2164     0B5B                     _keypad_getkey:	
  2165                           ;psect for function _keypad_getkey
  2166                           
  2167     0B5B                     l3020:	
  2168                           ;incstack = 0
  2169                           ; Regs used in _keypad_getkey: [wreg-fsr0h+status,2+status,0+btemp+1]
  2170                           
  2171                           
  2172                           ;keypad.c: 55: char letters[4][4]={ {'1','2','3','A'},
  2173     0B5B  3020               	movlw	keypad_getkey@letters& (0+255)
  2174     0B5C  0084               	movwf	4
  2175     0B5D  30A1               	movlw	low keypad_getkey@F1268
  2176     0B5E  00F0               	movwf	??_keypad_getkey
  2177     0B5F  0804               	movf	4,w
  2178     0B60  00F1               	movwf	??_keypad_getkey+1
  2179     0B61  3010               	movlw	16
  2180     0B62  00F2               	movwf	??_keypad_getkey+2
  2181     0B63                     u3930:
  2182     0B63  0870               	movf	??_keypad_getkey,w
  2183     0B64  0084               	movwf	4
  2184     0B65  1783               	bsf	3,7	;select IRP bank3
  2185     0B66  0800               	movf	0,w
  2186     0B67  00F3               	movwf	??_keypad_getkey+3
  2187     0B68  0AF0               	incf	??_keypad_getkey,f
  2188     0B69  0871               	movf	??_keypad_getkey+1,w
  2189     0B6A  0084               	movwf	4
  2190     0B6B  1383               	bcf	3,7	;select IRP bank0
  2191     0B6C  0873               	movf	??_keypad_getkey+3,w
  2192     0B6D  0080               	movwf	0
  2193     0B6E  0AF1               	incf	??_keypad_getkey+1,f
  2194     0B6F  0BF2               	decfsz	??_keypad_getkey+2,f
  2195     0B70  2B63               	goto	u3930
  2196     0B71                     l3022:
  2197     0B71                     l3024:
  2198                           
  2199                           ;keypad.c: 60: char value=0;
  2200     0B71  1283               	bcf	3,5	;RP0=0, select bank0
  2201     0B72  1303               	bcf	3,6	;RP1=0, select bank0
  2202     0B73  01B0               	clrf	keypad_getkey@value
  2203     0B74                     l3026:
  2204                           
  2205                           ;keypad.c: 62: for(i=0;i<4;i++){
  2206     0B74  01B1               	clrf	keypad_getkey@i
  2207     0B75  01B2               	clrf	keypad_getkey@i+1
  2208     0B76                     l3032:
  2209                           
  2210                           ;keypad.c: 64:    if(i==0){
  2211     0B76  1283               	bcf	3,5	;RP0=0, select bank0
  2212     0B77  1303               	bcf	3,6	;RP1=0, select bank0
  2213     0B78  0831               	movf	keypad_getkey@i,w
  2214     0B79  0432               	iorwf	keypad_getkey@i+1,w
  2215     0B7A  1D03               	btfss	3,2
  2216     0B7B  2B7D               	goto	u3941
  2217     0B7C  2B7E               	goto	u3940
  2218     0B7D                     u3941:
  2219     0B7D  2BA3               	goto	l3052
  2220     0B7E                     u3940:
  2221     0B7E                     l3034:
  2222                           
  2223                           ;keypad.c: 66:       PORTB = (1<<7)|(1<<6)|(1<<5)|(1<<4)|(1<<3)|(1<<2)|(1<<1)|(0<<0);
  2224     0B7E  30FE               	movlw	254
  2225     0B7F  0086               	movwf	6	;volatile
  2226                           
  2227                           ;keypad.c: 67:       _delay((unsigned long)((100)*(8000000/4000000.0)));
  2228     0B80  3042               	movlw	66
  2229     0B81  00F0               	movwf	??_keypad_getkey
  2230     0B82                     u5677:
  2231     0B82  0BF0               	decfsz	??_keypad_getkey,f
  2232     0B83  2B82               	goto	u5677
  2233     0B84  0000               	nop
  2234                           
  2235                           ;keypad.c: 68:       while (!(PORTB & (1<<4))){value=letters[0][0];}
  2236     0B85  2B88               	goto	l3038
  2237     0B86                     l3036:
  2238     0B86  0820               	movf	keypad_getkey@letters,w
  2239     0B87  00B0               	movwf	keypad_getkey@value
  2240     0B88                     l3038:
  2241     0B88  1283               	bcf	3,5	;RP0=0, select bank0
  2242     0B89  1303               	bcf	3,6	;RP1=0, select bank0
  2243     0B8A  1E06               	btfss	6,4	;volatile
  2244     0B8B  2B8D               	goto	u3951
  2245     0B8C  2B8E               	goto	u3950
  2246     0B8D                     u3951:
  2247     0B8D  2B86               	goto	l3036
  2248     0B8E                     u3950:
  2249     0B8E  2B91               	goto	l3042
  2250     0B8F                     l3040:
  2251     0B8F  0821               	movf	keypad_getkey@letters+1,w
  2252     0B90  00B0               	movwf	keypad_getkey@value
  2253     0B91                     l3042:
  2254     0B91  1E86               	btfss	6,5	;volatile
  2255     0B92  2B94               	goto	u3961
  2256     0B93  2B95               	goto	u3960
  2257     0B94                     u3961:
  2258     0B94  2B8F               	goto	l3040
  2259     0B95                     u3960:
  2260     0B95  2B98               	goto	l3046
  2261     0B96                     l3044:
  2262     0B96  0822               	movf	keypad_getkey@letters+2,w
  2263     0B97  00B0               	movwf	keypad_getkey@value
  2264     0B98                     l3046:
  2265     0B98  1F06               	btfss	6,6	;volatile
  2266     0B99  2B9B               	goto	u3971
  2267     0B9A  2B9C               	goto	u3970
  2268     0B9B                     u3971:
  2269     0B9B  2B96               	goto	l3044
  2270     0B9C                     u3970:
  2271     0B9C  2B9F               	goto	l3050
  2272     0B9D                     l3048:
  2273     0B9D  0823               	movf	keypad_getkey@letters+3,w
  2274     0B9E  00B0               	movwf	keypad_getkey@value
  2275     0B9F                     l3050:
  2276     0B9F  1F86               	btfss	6,7	;volatile
  2277     0BA0  2BA2               	goto	u3981
  2278     0BA1  2BA3               	goto	u3980
  2279     0BA2                     u3981:
  2280     0BA2  2B9D               	goto	l3048
  2281     0BA3                     u3980:
  2282     0BA3                     l3052:
  2283                           
  2284                           ;keypad.c: 74:    if(i==1){
  2285     0BA3  0331               	decf	keypad_getkey@i,w
  2286     0BA4  0432               	iorwf	keypad_getkey@i+1,w
  2287     0BA5  1D03               	btfss	3,2
  2288     0BA6  2BA8               	goto	u3991
  2289     0BA7  2BA9               	goto	u3990
  2290     0BA8                     u3991:
  2291     0BA8  2BCE               	goto	l3072
  2292     0BA9                     u3990:
  2293     0BA9                     l3054:
  2294                           
  2295                           ;keypad.c: 75:       PORTB = (1<<7)|(1<<6)|(1<<5)|(1<<4)|(1<<3)|(1<<2)|(0<<1)|(1<<0);
  2296     0BA9  30FD               	movlw	253
  2297     0BAA  0086               	movwf	6	;volatile
  2298                           
  2299                           ;keypad.c: 76:       _delay((unsigned long)((100)*(8000000/4000000.0)));
  2300     0BAB  3042               	movlw	66
  2301     0BAC  00F0               	movwf	??_keypad_getkey
  2302     0BAD                     u5687:
  2303     0BAD  0BF0               	decfsz	??_keypad_getkey,f
  2304     0BAE  2BAD               	goto	u5687
  2305     0BAF  0000               	nop
  2306                           
  2307                           ;keypad.c: 77:       while (!(PORTB & (1<<4))){value=letters[1][0];}
  2308     0BB0  2BB3               	goto	l3058
  2309     0BB1                     l3056:
  2310     0BB1  0824               	movf	keypad_getkey@letters+4,w
  2311     0BB2  00B0               	movwf	keypad_getkey@value
  2312     0BB3                     l3058:
  2313     0BB3  1283               	bcf	3,5	;RP0=0, select bank0
  2314     0BB4  1303               	bcf	3,6	;RP1=0, select bank0
  2315     0BB5  1E06               	btfss	6,4	;volatile
  2316     0BB6  2BB8               	goto	u4001
  2317     0BB7  2BB9               	goto	u4000
  2318     0BB8                     u4001:
  2319     0BB8  2BB1               	goto	l3056
  2320     0BB9                     u4000:
  2321     0BB9  2BBC               	goto	l3062
  2322     0BBA                     l3060:
  2323     0BBA  0825               	movf	keypad_getkey@letters+5,w
  2324     0BBB  00B0               	movwf	keypad_getkey@value
  2325     0BBC                     l3062:
  2326     0BBC  1E86               	btfss	6,5	;volatile
  2327     0BBD  2BBF               	goto	u4011
  2328     0BBE  2BC0               	goto	u4010
  2329     0BBF                     u4011:
  2330     0BBF  2BBA               	goto	l3060
  2331     0BC0                     u4010:
  2332     0BC0  2BC3               	goto	l3066
  2333     0BC1                     l3064:
  2334     0BC1  0826               	movf	keypad_getkey@letters+6,w
  2335     0BC2  00B0               	movwf	keypad_getkey@value
  2336     0BC3                     l3066:
  2337     0BC3  1F06               	btfss	6,6	;volatile
  2338     0BC4  2BC6               	goto	u4021
  2339     0BC5  2BC7               	goto	u4020
  2340     0BC6                     u4021:
  2341     0BC6  2BC1               	goto	l3064
  2342     0BC7                     u4020:
  2343     0BC7  2BCA               	goto	l3070
  2344     0BC8                     l3068:
  2345     0BC8  0827               	movf	keypad_getkey@letters+7,w
  2346     0BC9  00B0               	movwf	keypad_getkey@value
  2347     0BCA                     l3070:
  2348     0BCA  1F86               	btfss	6,7	;volatile
  2349     0BCB  2BCD               	goto	u4031
  2350     0BCC  2BCE               	goto	u4030
  2351     0BCD                     u4031:
  2352     0BCD  2BC8               	goto	l3068
  2353     0BCE                     u4030:
  2354     0BCE                     l3072:
  2355                           
  2356                           ;keypad.c: 83:    if(i==2){
  2357     0BCE  3002               	movlw	2
  2358     0BCF  0631               	xorwf	keypad_getkey@i,w
  2359     0BD0  0432               	iorwf	keypad_getkey@i+1,w
  2360     0BD1  1D03               	btfss	3,2
  2361     0BD2  2BD4               	goto	u4041
  2362     0BD3  2BD5               	goto	u4040
  2363     0BD4                     u4041:
  2364     0BD4  2BFA               	goto	l3092
  2365     0BD5                     u4040:
  2366     0BD5                     l3074:
  2367                           
  2368                           ;keypad.c: 84:       PORTB = (1<<7)|(1<<6)|(1<<5)|(1<<4)|(1<<3)|(0<<2)|(1<<1)|(1<<0);
  2369     0BD5  30FB               	movlw	251
  2370     0BD6  0086               	movwf	6	;volatile
  2371                           
  2372                           ;keypad.c: 85:       _delay((unsigned long)((100)*(8000000/4000000.0)));
  2373     0BD7  3042               	movlw	66
  2374     0BD8  00F0               	movwf	??_keypad_getkey
  2375     0BD9                     u5697:
  2376     0BD9  0BF0               	decfsz	??_keypad_getkey,f
  2377     0BDA  2BD9               	goto	u5697
  2378     0BDB  0000               	nop
  2379                           
  2380                           ;keypad.c: 86:       while (!(PORTB & (1<<4))){value=letters[2][0];}
  2381     0BDC  2BDF               	goto	l3078
  2382     0BDD                     l3076:
  2383     0BDD  0828               	movf	keypad_getkey@letters+8,w
  2384     0BDE  00B0               	movwf	keypad_getkey@value
  2385     0BDF                     l3078:
  2386     0BDF  1283               	bcf	3,5	;RP0=0, select bank0
  2387     0BE0  1303               	bcf	3,6	;RP1=0, select bank0
  2388     0BE1  1E06               	btfss	6,4	;volatile
  2389     0BE2  2BE4               	goto	u4051
  2390     0BE3  2BE5               	goto	u4050
  2391     0BE4                     u4051:
  2392     0BE4  2BDD               	goto	l3076
  2393     0BE5                     u4050:
  2394     0BE5  2BE8               	goto	l3082
  2395     0BE6                     l3080:
  2396     0BE6  0829               	movf	keypad_getkey@letters+9,w
  2397     0BE7  00B0               	movwf	keypad_getkey@value
  2398     0BE8                     l3082:
  2399     0BE8  1E86               	btfss	6,5	;volatile
  2400     0BE9  2BEB               	goto	u4061
  2401     0BEA  2BEC               	goto	u4060
  2402     0BEB                     u4061:
  2403     0BEB  2BE6               	goto	l3080
  2404     0BEC                     u4060:
  2405     0BEC  2BEF               	goto	l3086
  2406     0BED                     l3084:
  2407     0BED  082A               	movf	keypad_getkey@letters+10,w
  2408     0BEE  00B0               	movwf	keypad_getkey@value
  2409     0BEF                     l3086:
  2410     0BEF  1F06               	btfss	6,6	;volatile
  2411     0BF0  2BF2               	goto	u4071
  2412     0BF1  2BF3               	goto	u4070
  2413     0BF2                     u4071:
  2414     0BF2  2BED               	goto	l3084
  2415     0BF3                     u4070:
  2416     0BF3  2BF6               	goto	l3090
  2417     0BF4                     l3088:
  2418     0BF4  082B               	movf	keypad_getkey@letters+11,w
  2419     0BF5  00B0               	movwf	keypad_getkey@value
  2420     0BF6                     l3090:
  2421     0BF6  1F86               	btfss	6,7	;volatile
  2422     0BF7  2BF9               	goto	u4081
  2423     0BF8  2BFA               	goto	u4080
  2424     0BF9                     u4081:
  2425     0BF9  2BF4               	goto	l3088
  2426     0BFA                     u4080:
  2427     0BFA                     l3092:
  2428                           
  2429                           ;keypad.c: 92:    if(i==3){
  2430     0BFA  3003               	movlw	3
  2431     0BFB  0631               	xorwf	keypad_getkey@i,w
  2432     0BFC  0432               	iorwf	keypad_getkey@i+1,w
  2433     0BFD  1D03               	btfss	3,2
  2434     0BFE  2C00               	goto	u4091
  2435     0BFF  2C01               	goto	u4090
  2436     0C00                     u4091:
  2437     0C00  2C26               	goto	l3112
  2438     0C01                     u4090:
  2439     0C01                     l3094:
  2440                           
  2441                           ;keypad.c: 93:       PORTB = (1<<7)|(1<<6)|(1<<5)|(1<<4)|(0<<3)|(1<<2)|(1<<1)|(1<<0);
  2442     0C01  30F7               	movlw	247
  2443     0C02  0086               	movwf	6	;volatile
  2444                           
  2445                           ;keypad.c: 94:       _delay((unsigned long)((100)*(8000000/4000000.0)));
  2446     0C03  3042               	movlw	66
  2447     0C04  00F0               	movwf	??_keypad_getkey
  2448     0C05                     u5707:
  2449     0C05  0BF0               	decfsz	??_keypad_getkey,f
  2450     0C06  2C05               	goto	u5707
  2451     0C07  0000               	nop
  2452                           
  2453                           ;keypad.c: 95:       while (!(PORTB & (1<<4))){value=letters[3][0];}
  2454     0C08  2C0B               	goto	l3098
  2455     0C09                     l3096:
  2456     0C09  082C               	movf	keypad_getkey@letters+12,w
  2457     0C0A  00B0               	movwf	keypad_getkey@value
  2458     0C0B                     l3098:
  2459     0C0B  1283               	bcf	3,5	;RP0=0, select bank0
  2460     0C0C  1303               	bcf	3,6	;RP1=0, select bank0
  2461     0C0D  1E06               	btfss	6,4	;volatile
  2462     0C0E  2C10               	goto	u4101
  2463     0C0F  2C11               	goto	u4100
  2464     0C10                     u4101:
  2465     0C10  2C09               	goto	l3096
  2466     0C11                     u4100:
  2467     0C11  2C14               	goto	l3102
  2468     0C12                     l3100:
  2469     0C12  082D               	movf	keypad_getkey@letters+13,w
  2470     0C13  00B0               	movwf	keypad_getkey@value
  2471     0C14                     l3102:
  2472     0C14  1E86               	btfss	6,5	;volatile
  2473     0C15  2C17               	goto	u4111
  2474     0C16  2C18               	goto	u4110
  2475     0C17                     u4111:
  2476     0C17  2C12               	goto	l3100
  2477     0C18                     u4110:
  2478     0C18  2C1B               	goto	l3106
  2479     0C19                     l3104:
  2480     0C19  082E               	movf	keypad_getkey@letters+14,w
  2481     0C1A  00B0               	movwf	keypad_getkey@value
  2482     0C1B                     l3106:
  2483     0C1B  1F06               	btfss	6,6	;volatile
  2484     0C1C  2C1E               	goto	u4121
  2485     0C1D  2C1F               	goto	u4120
  2486     0C1E                     u4121:
  2487     0C1E  2C19               	goto	l3104
  2488     0C1F                     u4120:
  2489     0C1F  2C22               	goto	l3110
  2490     0C20                     l3108:
  2491     0C20  082F               	movf	keypad_getkey@letters+15,w
  2492     0C21  00B0               	movwf	keypad_getkey@value
  2493     0C22                     l3110:
  2494     0C22  1F86               	btfss	6,7	;volatile
  2495     0C23  2C25               	goto	u4131
  2496     0C24  2C26               	goto	u4130
  2497     0C25                     u4131:
  2498     0C25  2C20               	goto	l3108
  2499     0C26                     u4130:
  2500     0C26                     l3112:
  2501                           
  2502                           ;keypad.c: 100:    }
  2503     0C26  3001               	movlw	1
  2504     0C27  07B1               	addwf	keypad_getkey@i,f
  2505     0C28  1803               	skipnc
  2506     0C29  0AB2               	incf	keypad_getkey@i+1,f
  2507     0C2A  3000               	movlw	0
  2508     0C2B  07B2               	addwf	keypad_getkey@i+1,f
  2509     0C2C                     l3114:
  2510     0C2C  0832               	movf	keypad_getkey@i+1,w
  2511     0C2D  3A80               	xorlw	128
  2512     0C2E  00FF               	movwf	btemp+1
  2513     0C2F  3080               	movlw	128
  2514     0C30  027F               	subwf	btemp+1,w
  2515     0C31  1D03               	skipz
  2516     0C32  2C35               	goto	u4145
  2517     0C33  3004               	movlw	4
  2518     0C34  0231               	subwf	keypad_getkey@i,w
  2519     0C35                     u4145:
  2520     0C35  1C03               	skipc
  2521     0C36  2C38               	goto	u4141
  2522     0C37  2C39               	goto	u4140
  2523     0C38                     u4141:
  2524     0C38  2B76               	goto	l3032
  2525     0C39                     u4140:
  2526     0C39                     l3116:
  2527                           
  2528                           ;keypad.c: 102:    return value;
  2529     0C39  1283               	bcf	3,5	;RP0=0, select bank0
  2530     0C3A  1303               	bcf	3,6	;RP1=0, select bank0
  2531     0C3B  0830               	movf	keypad_getkey@value,w
  2532     0C3C                     l142:
  2533     0C3C  0008               	return
  2534     0C3D                     __end_of_keypad_getkey:
  2535                           
  2536                           	psect	text5
  2537     1635                     __ptext5:	
  2538 ;; *************** function _function_Monitoring *****************
  2539 ;; Defined at:
  2540 ;;		line 32 in file "Funciones_Estado.c"
  2541 ;; Parameters:    Size  Location     Type
  2542 ;;		None
  2543 ;; Auto vars:     Size  Location     Type
  2544 ;;  n               2    0        int 
  2545 ;; Return value:  Size  Location     Type
  2546 ;;                  1    wreg      void 
  2547 ;; Registers used:
  2548 ;;		wreg, fsr0l, fsr0h, status,2, status,0, btemp+1, pclath, cstack
  2549 ;; Tracked objects:
  2550 ;;		On entry : 0/0
  2551 ;;		On exit  : 0/0
  2552 ;;		Unchanged: 0/0
  2553 ;; Data sizes:     COMMON   BANK0   BANK1   BANK3   BANK2
  2554 ;;      Params:         0       0       0       0       0
  2555 ;;      Locals:         0       0       0       0       0
  2556 ;;      Temps:          0       6       0       0       0
  2557 ;;      Totals:         0       6       0       0       0
  2558 ;;Total ram usage:        6 bytes
  2559 ;; Hardware stack levels used: 1
  2560 ;; Hardware stack levels required when called: 3
  2561 ;; This function calls:
  2562 ;;		_LCD_String_xy
  2563 ;;		_Sensors_IHM
  2564 ;;		_sprintf
  2565 ;; This function is called by:
  2566 ;;		_main
  2567 ;; This function uses a non-reentrant model
  2568 ;;
  2569                           
  2570     1635                     _function_Monitoring:	
  2571                           ;psect for function _function_Monitoring
  2572                           
  2573     1635                     l3350:	
  2574                           ;incstack = 0
  2575                           ; Regs used in _function_Monitoring: [wreg-fsr0h+status,2+status,0+btemp+1+pclath+cstack
      +                          ]
  2576                           
  2577                           
  2578                           ;Funciones_Estado.c: 33:     var_sensor_ir = RC1;
  2579     1635  3000               	movlw	0
  2580     1636  1283               	bcf	3,5	;RP0=0, select bank0
  2581     1637  1303               	bcf	3,6	;RP1=0, select bank0
  2582     1638  1887               	btfsc	7,1	;volatile
  2583     1639  3001               	movlw	1
  2584     163A  1683               	bsf	3,5	;RP0=1, select bank1
  2585     163B  1303               	bcf	3,6	;RP1=0, select bank1
  2586     163C  00DA               	movwf	_var_sensor_ir^(0+128)
  2587                           
  2588                           ;Funciones_Estado.c: 34:     var_sensor_hall = RC0;
  2589     163D  3000               	movlw	0
  2590     163E  1283               	bcf	3,5	;RP0=0, select bank0
  2591     163F  1303               	bcf	3,6	;RP1=0, select bank0
  2592     1640  1807               	btfsc	7,0	;volatile
  2593     1641  3001               	movlw	1
  2594     1642  1683               	bsf	3,5	;RP0=1, select bank1
  2595     1643  1303               	bcf	3,6	;RP1=0, select bank1
  2596     1644  00D9               	movwf	_var_sensor_hall^(0+128)
  2597                           
  2598                           ;Funciones_Estado.c: 35:     var_sensor_metal = RC2;
  2599     1645  3000               	movlw	0
  2600     1646  1283               	bcf	3,5	;RP0=0, select bank0
  2601     1647  1303               	bcf	3,6	;RP1=0, select bank0
  2602     1648  1907               	btfsc	7,2	;volatile
  2603     1649  3001               	movlw	1
  2604     164A  1683               	bsf	3,5	;RP0=1, select bank1
  2605     164B  1303               	bcf	3,6	;RP1=0, select bank1
  2606     164C  00D8               	movwf	_var_sensor_metal^(0+128)
  2607     164D                     l3352:
  2608                           
  2609                           ;Funciones_Estado.c: 37:     if (Sensors_IHM() == 1) {
  2610     164D  160A  118A  22B1  160A  118A  	fcall	_Sensors_IHM
  2611     1652  3A01               	xorlw	1
  2612     1653  1D03               	skipz
  2613     1654  2E56               	goto	u4341
  2614     1655  2E57               	goto	u4340
  2615     1656                     u4341:
  2616     1656  2E9E               	goto	l3360
  2617     1657                     u4340:
  2618     1657                     l3354:
  2619                           
  2620                           ;Funciones_Estado.c: 38:         Estado = alarm;
  2621     1657  3003               	movlw	3
  2622     1658  1283               	bcf	3,5	;RP0=0, select bank0
  2623     1659  1303               	bcf	3,6	;RP1=0, select bank0
  2624     165A  00EF               	movwf	_Estado
  2625     165B                     l3356:
  2626     165B  3047               	movlw	(low ((STR_1-__stringbase)| (0+32768)))& (0+255)
  2627     165C  00A0               	movwf	sprintf@f
  2628     165D  1683               	bsf	3,5	;RP0=1, select bank1
  2629     165E  1303               	bcf	3,6	;RP1=0, select bank1
  2630     165F  085A               	movf	_var_sensor_ir^(0+128),w
  2631     1660  1283               	bcf	3,5	;RP0=0, select bank0
  2632     1661  1303               	bcf	3,6	;RP1=0, select bank0
  2633     1662  00B3               	movwf	??_function_Monitoring
  2634     1663  01B4               	clrf	??_function_Monitoring+1
  2635     1664  0833               	movf	??_function_Monitoring,w
  2636     1665  00A1               	movwf	?_sprintf+1
  2637     1666  0834               	movf	??_function_Monitoring+1,w
  2638     1667  00A2               	movwf	?_sprintf+2
  2639     1668  1683               	bsf	3,5	;RP0=1, select bank1
  2640     1669  1303               	bcf	3,6	;RP1=0, select bank1
  2641     166A  0859               	movf	_var_sensor_hall^(0+128),w
  2642     166B  1283               	bcf	3,5	;RP0=0, select bank0
  2643     166C  1303               	bcf	3,6	;RP1=0, select bank0
  2644     166D  00B5               	movwf	??_function_Monitoring+2
  2645     166E  01B6               	clrf	??_function_Monitoring+3
  2646     166F  0835               	movf	??_function_Monitoring+2,w
  2647     1670  00A3               	movwf	?_sprintf+3
  2648     1671  0836               	movf	??_function_Monitoring+3,w
  2649     1672  00A4               	movwf	?_sprintf+4
  2650     1673  1683               	bsf	3,5	;RP0=1, select bank1
  2651     1674  1303               	bcf	3,6	;RP1=0, select bank1
  2652     1675  0858               	movf	_var_sensor_metal^(0+128),w
  2653     1676  1283               	bcf	3,5	;RP0=0, select bank0
  2654     1677  1303               	bcf	3,6	;RP1=0, select bank0
  2655     1678  00B7               	movwf	??_function_Monitoring+4
  2656     1679  01B8               	clrf	??_function_Monitoring+5
  2657     167A  0837               	movf	??_function_Monitoring+4,w
  2658     167B  00A5               	movwf	?_sprintf+5
  2659     167C  0838               	movf	??_function_Monitoring+5,w
  2660     167D  00A6               	movwf	?_sprintf+6
  2661     167E  3090               	movlw	(low (_buffer| (0+256)))& (0+255)
  2662     167F  120A  158A  243D  160A  118A  	fcall	_sprintf
  2663     1684                     l3358:
  2664                           
  2665                           ;Funciones_Estado.c: 40:         LCD_String_xy(0, 0, buffer);
  2666     1684  01F5               	clrf	LCD_String_xy@pos
  2667     1685  3090               	movlw	(low (_buffer| (0+256)))& (0+255)
  2668     1686  00F6               	movwf	LCD_String_xy@msg
  2669     1687  3001               	movlw	1
  2670     1688  00F7               	movwf	LCD_String_xy@msg+1
  2671     1689  3000               	movlw	0
  2672     168A  160A  118A  230F  160A  118A  	fcall	_LCD_String_xy
  2673                           
  2674                           ;Funciones_Estado.c: 41:         _delay((unsigned long)((1000)*(8000000/4000.0)));
  2675     168F  300B               	movlw	11
  2676     1690  1283               	bcf	3,5	;RP0=0, select bank0
  2677     1691  1303               	bcf	3,6	;RP1=0, select bank0
  2678     1692  00B5               	movwf	??_function_Monitoring+2
  2679     1693  3026               	movlw	38
  2680     1694  00B4               	movwf	??_function_Monitoring+1
  2681     1695  305D               	movlw	93
  2682     1696  00B3               	movwf	??_function_Monitoring
  2683     1697                     u5717:
  2684     1697  0BB3               	decfsz	??_function_Monitoring,f
  2685     1698  2E97               	goto	u5717
  2686     1699  0BB4               	decfsz	??_function_Monitoring+1,f
  2687     169A  2E97               	goto	u5717
  2688     169B  0BB5               	decfsz	??_function_Monitoring+2,f
  2689     169C  2E97               	goto	u5717
  2690                           
  2691                           ;Funciones_Estado.c: 42:     } else {
  2692     169D  2EB1               	goto	l236
  2693     169E                     l3360:
  2694                           
  2695                           ;Funciones_Estado.c: 43:         _delay((unsigned long)((2000)*(8000000/4000.0)));
  2696     169E  3015               	movlw	21
  2697     169F  1283               	bcf	3,5	;RP0=0, select bank0
  2698     16A0  1303               	bcf	3,6	;RP1=0, select bank0
  2699     16A1  00B5               	movwf	??_function_Monitoring+2
  2700     16A2  304B               	movlw	75
  2701     16A3  00B4               	movwf	??_function_Monitoring+1
  2702     16A4  30BD               	movlw	189
  2703     16A5  00B3               	movwf	??_function_Monitoring
  2704     16A6                     u5727:
  2705     16A6  0BB3               	decfsz	??_function_Monitoring,f
  2706     16A7  2EA6               	goto	u5727
  2707     16A8  0BB4               	decfsz	??_function_Monitoring+1,f
  2708     16A9  2EA6               	goto	u5727
  2709     16AA  0BB5               	decfsz	??_function_Monitoring+2,f
  2710     16AB  2EA6               	goto	u5727
  2711     16AC  2EAD               	nop2
  2712                           
  2713                           ;Funciones_Estado.c: 44:         Estado = environment;
  2714     16AD  3004               	movlw	4
  2715     16AE  1283               	bcf	3,5	;RP0=0, select bank0
  2716     16AF  1303               	bcf	3,6	;RP1=0, select bank0
  2717     16B0  00EF               	movwf	_Estado
  2718     16B1                     l236:
  2719     16B1  0008               	return
  2720     16B2                     __end_of_function_Monitoring:
  2721                           
  2722                           	psect	text6
  2723     12B1                     __ptext6:	
  2724 ;; *************** function _Sensors_IHM *****************
  2725 ;; Defined at:
  2726 ;;		line 92 in file "Sensors_Control.c"
  2727 ;; Parameters:    Size  Location     Type
  2728 ;;		None
  2729 ;; Auto vars:     Size  Location     Type
  2730 ;;  alarm_activa    1    0[COMMON] unsigned char 
  2731 ;; Return value:  Size  Location     Type
  2732 ;;                  1    wreg      unsigned char 
  2733 ;; Registers used:
  2734 ;;		wreg, status,2
  2735 ;; Tracked objects:
  2736 ;;		On entry : 0/0
  2737 ;;		On exit  : 0/0
  2738 ;;		Unchanged: 0/0
  2739 ;; Data sizes:     COMMON   BANK0   BANK1   BANK3   BANK2
  2740 ;;      Params:         0       0       0       0       0
  2741 ;;      Locals:         1       0       0       0       0
  2742 ;;      Temps:          0       0       0       0       0
  2743 ;;      Totals:         1       0       0       0       0
  2744 ;;Total ram usage:        1 bytes
  2745 ;; Hardware stack levels used: 1
  2746 ;; This function calls:
  2747 ;;		Nothing
  2748 ;; This function is called by:
  2749 ;;		_function_Monitoring
  2750 ;; This function uses a non-reentrant model
  2751 ;;
  2752                           
  2753     12B1                     _Sensors_IHM:	
  2754                           ;psect for function _Sensors_IHM
  2755                           
  2756     12B1                     l3138:	
  2757                           ;incstack = 0
  2758                           ; Regs used in _Sensors_IHM: [wreg+status,2]
  2759                           
  2760                           
  2761                           ;Sensors_Control.c: 93:     unsigned char alarm_activate = 0;
  2762     12B1  01F0               	clrf	Sensors_IHM@alarm_activate
  2763     12B2                     l3140:
  2764                           
  2765                           ;Sensors_Control.c: 95:     if (RC1 == 0) {
  2766     12B2  1283               	bcf	3,5	;RP0=0, select bank0
  2767     12B3  1303               	bcf	3,6	;RP1=0, select bank0
  2768     12B4  1887               	btfsc	7,1	;volatile
  2769     12B5  2AB7               	goto	u4161
  2770     12B6  2AB8               	goto	u4160
  2771     12B7                     u4161:
  2772     12B7  2ABA               	goto	l298
  2773     12B8                     u4160:
  2774     12B8                     l3142:
  2775                           
  2776                           ;Sensors_Control.c: 96:         alarm_activate = 1;
  2777     12B8  01F0               	clrf	Sensors_IHM@alarm_activate
  2778     12B9  0AF0               	incf	Sensors_IHM@alarm_activate,f
  2779     12BA                     l298:	
  2780                           ;Sensors_Control.c: 97:     }
  2781                           
  2782                           
  2783                           ;Sensors_Control.c: 99:     if (RC0 == 1) {
  2784     12BA  1C07               	btfss	7,0	;volatile
  2785     12BB  2ABD               	goto	u4171
  2786     12BC  2ABE               	goto	u4170
  2787     12BD                     u4171:
  2788     12BD  2AC0               	goto	l299
  2789     12BE                     u4170:
  2790     12BE                     l3144:
  2791                           
  2792                           ;Sensors_Control.c: 100:         alarm_activate = 1;
  2793     12BE  01F0               	clrf	Sensors_IHM@alarm_activate
  2794     12BF  0AF0               	incf	Sensors_IHM@alarm_activate,f
  2795     12C0                     l299:	
  2796                           ;Sensors_Control.c: 101:     }
  2797                           
  2798                           
  2799                           ;Sensors_Control.c: 103:     if (RC2 == 1) {
  2800     12C0  1D07               	btfss	7,2	;volatile
  2801     12C1  2AC3               	goto	u4181
  2802     12C2  2AC4               	goto	u4180
  2803     12C3                     u4181:
  2804     12C3  2AC6               	goto	l3148
  2805     12C4                     u4180:
  2806     12C4                     l3146:
  2807                           
  2808                           ;Sensors_Control.c: 104:         alarm_activate = 1;
  2809     12C4  01F0               	clrf	Sensors_IHM@alarm_activate
  2810     12C5  0AF0               	incf	Sensors_IHM@alarm_activate,f
  2811     12C6                     l3148:
  2812                           
  2813                           ;Sensors_Control.c: 107:     return alarm_activate;
  2814     12C6  0870               	movf	Sensors_IHM@alarm_activate,w
  2815     12C7                     l301:
  2816     12C7  0008               	return
  2817     12C8                     __end_of_Sensors_IHM:
  2818                           
  2819                           	psect	text7
  2820     1386                     __ptext7:	
  2821 ;; *************** function _function_Locked *****************
  2822 ;; Defined at:
  2823 ;;		line 105 in file "Funciones_Estado.c"
  2824 ;; Parameters:    Size  Location     Type
  2825 ;;		None
  2826 ;; Auto vars:     Size  Location     Type
  2827 ;;		None
  2828 ;; Return value:  Size  Location     Type
  2829 ;;                  1    wreg      void 
  2830 ;; Registers used:
  2831 ;;		wreg, fsr0l, fsr0h, status,2, status,0, btemp+1, pclath, cstack
  2832 ;; Tracked objects:
  2833 ;;		On entry : 0/0
  2834 ;;		On exit  : 0/0
  2835 ;;		Unchanged: 0/0
  2836 ;; Data sizes:     COMMON   BANK0   BANK1   BANK3   BANK2
  2837 ;;      Params:         0       0       0       0       0
  2838 ;;      Locals:         0       0       0       0       0
  2839 ;;      Temps:          3       0       0       0       0
  2840 ;;      Totals:         3       0       0       0       0
  2841 ;;Total ram usage:        3 bytes
  2842 ;; Hardware stack levels used: 1
  2843 ;; Hardware stack levels required when called: 3
  2844 ;; This function calls:
  2845 ;;		_LCD_Clear
  2846 ;;		_LCD_String_xy
  2847 ;; This function is called by:
  2848 ;;		_main
  2849 ;; This function uses a non-reentrant model
  2850 ;;
  2851                           
  2852     1386                     _function_Locked:	
  2853                           ;psect for function _function_Locked
  2854                           
  2855     1386                     l3362:	
  2856                           ;incstack = 0
  2857                           ; Regs used in _function_Locked: [wreg-fsr0h+status,2+status,0+btemp+1+pclath+cstack]
  2858                           
  2859                           
  2860                           ;Funciones_Estado.c: 106:     LCD_Clear();
  2861     1386  160A  118A  227E  160A  118A  	fcall	_LCD_Clear
  2862     138B                     l3364:
  2863                           
  2864                           ;Funciones_Estado.c: 107:     LCD_String_xy(0, 0, "Block System");
  2865     138B  01F5               	clrf	LCD_String_xy@pos
  2866     138C  309A               	movlw	(low ((STR_5-__stringbase)| (0+32768)))& (0+255)
  2867     138D  00F6               	movwf	LCD_String_xy@msg
  2868     138E  3080               	movlw	128
  2869     138F  00F7               	movwf	LCD_String_xy@msg+1
  2870     1390  3000               	movlw	0
  2871     1391  160A  118A  230F  160A  118A  	fcall	_LCD_String_xy
  2872     1396                     l3366:
  2873                           
  2874                           ;Funciones_Estado.c: 108:     RE0 = 1;
  2875     1396  1283               	bcf	3,5	;RP0=0, select bank0
  2876     1397  1303               	bcf	3,6	;RP1=0, select bank0
  2877     1398  1409               	bsf	9,0	;volatile
  2878     1399                     l3368:
  2879                           
  2880                           ;Funciones_Estado.c: 109:     _delay((unsigned long)((10000)*(8000000/4000.0)));
  2881     1399  3066               	movlw	102
  2882     139A  00FC               	movwf	??_function_Locked+2
  2883     139B  3076               	movlw	118
  2884     139C  00FB               	movwf	??_function_Locked+1
  2885     139D  30C1               	movlw	193
  2886     139E  00FA               	movwf	??_function_Locked
  2887     139F                     u5737:
  2888     139F  0BFA               	decfsz	??_function_Locked,f
  2889     13A0  2B9F               	goto	u5737
  2890     13A1  0BFB               	decfsz	??_function_Locked+1,f
  2891     13A2  2B9F               	goto	u5737
  2892     13A3  0BFC               	decfsz	??_function_Locked+2,f
  2893     13A4  2B9F               	goto	u5737
  2894     13A5                     l3370:
  2895                           
  2896                           ;Funciones_Estado.c: 110:     RE0 = 0;
  2897     13A5  1283               	bcf	3,5	;RP0=0, select bank0
  2898     13A6  1303               	bcf	3,6	;RP1=0, select bank0
  2899     13A7  1009               	bcf	9,0	;volatile
  2900     13A8                     l3372:
  2901                           
  2902                           ;Funciones_Estado.c: 111:     LCD_Clear();
  2903     13A8  160A  118A  227E  160A  118A  	fcall	_LCD_Clear
  2904     13AD                     l3374:
  2905                           
  2906                           ;Funciones_Estado.c: 112:     Estado = security;
  2907     13AD  1283               	bcf	3,5	;RP0=0, select bank0
  2908     13AE  1303               	bcf	3,6	;RP1=0, select bank0
  2909     13AF  01EF               	clrf	_Estado
  2910     13B0                     l248:
  2911     13B0  0008               	return
  2912     13B1                     __end_of_function_Locked:
  2913                           
  2914                           	psect	text8
  2915     1498                     __ptext8:	
  2916 ;; *************** function _function_Environment_alarm *****************
  2917 ;; Defined at:
  2918 ;;		line 182 in file "Funciones_Estado.c"
  2919 ;; Parameters:    Size  Location     Type
  2920 ;;		None
  2921 ;; Auto vars:     Size  Location     Type
  2922 ;;  time2           1   13[COMMON] unsigned char 
  2923 ;; Return value:  Size  Location     Type
  2924 ;;                  1    wreg      void 
  2925 ;; Registers used:
  2926 ;;		wreg, fsr0l, fsr0h, status,2, status,0, btemp+1, pclath, cstack
  2927 ;; Tracked objects:
  2928 ;;		On entry : 0/0
  2929 ;;		On exit  : 0/0
  2930 ;;		Unchanged: 0/0
  2931 ;; Data sizes:     COMMON   BANK0   BANK1   BANK3   BANK2
  2932 ;;      Params:         0       0       0       0       0
  2933 ;;      Locals:         1       0       0       0       0
  2934 ;;      Temps:          3       0       0       0       0
  2935 ;;      Totals:         4       0       0       0       0
  2936 ;;Total ram usage:        4 bytes
  2937 ;; Hardware stack levels used: 1
  2938 ;; Hardware stack levels required when called: 3
  2939 ;; This function calls:
  2940 ;;		_LCD_Clear
  2941 ;;		_LCD_String_xy
  2942 ;; This function is called by:
  2943 ;;		_main
  2944 ;; This function uses a non-reentrant model
  2945 ;;
  2946                           
  2947     1498                     _function_Environment_alarm:	
  2948                           ;psect for function _function_Environment_alarm
  2949                           
  2950     1498                     l3390:	
  2951                           ;incstack = 0
  2952                           ; Regs used in _function_Environment_alarm: [wreg-fsr0h+status,2+status,0+btemp+1+pclath
      +                          +cstack]
  2953                           
  2954                           
  2955                           ;Funciones_Estado.c: 183:     unsigned char time2 = 0;
  2956     1498  01FD               	clrf	function_Environment_alarm@time2
  2957     1499                     l3392:
  2958                           
  2959                           ;Funciones_Estado.c: 184:     LCD_Clear();
  2960     1499  160A  118A  227E  160A  118A  	fcall	_LCD_Clear
  2961     149E                     l3394:
  2962                           
  2963                           ;Funciones_Estado.c: 185:     LCD_String_xy(0, 0, "Temperature > 25 C");
  2964     149E  01F5               	clrf	LCD_String_xy@pos
  2965     149F  3034               	movlw	(low ((STR_9-__stringbase)| (0+32768)))& (0+255)
  2966     14A0  00F6               	movwf	LCD_String_xy@msg
  2967     14A1  3080               	movlw	128
  2968     14A2  00F7               	movwf	LCD_String_xy@msg+1
  2969     14A3  3000               	movlw	0
  2970     14A4  160A  118A  230F  160A  118A  	fcall	_LCD_String_xy
  2971                           
  2972                           ;Funciones_Estado.c: 186:     while (time2 < 5) {
  2973     14A9  2CCE               	goto	l3402
  2974     14AA                     l263:
  2975                           
  2976                           ;Funciones_Estado.c: 187:         RE2 = 1;
  2977     14AA  1283               	bcf	3,5	;RP0=0, select bank0
  2978     14AB  1303               	bcf	3,6	;RP1=0, select bank0
  2979     14AC  1509               	bsf	9,2	;volatile
  2980     14AD                     l3396:
  2981                           
  2982                           ;Funciones_Estado.c: 188:         _delay((unsigned long)((500)*(8000000/4000.0)));
  2983     14AD  3006               	movlw	6
  2984     14AE  00FC               	movwf	??_function_Environment_alarm+2
  2985     14AF  3013               	movlw	19
  2986     14B0  00FB               	movwf	??_function_Environment_alarm+1
  2987     14B1  30AD               	movlw	173
  2988     14B2  00FA               	movwf	??_function_Environment_alarm
  2989     14B3                     u5747:
  2990     14B3  0BFA               	decfsz	??_function_Environment_alarm,f
  2991     14B4  2CB3               	goto	u5747
  2992     14B5  0BFB               	decfsz	??_function_Environment_alarm+1,f
  2993     14B6  2CB3               	goto	u5747
  2994     14B7  0BFC               	decfsz	??_function_Environment_alarm+2,f
  2995     14B8  2CB3               	goto	u5747
  2996     14B9  2CBA               	nop2
  2997     14BA                     l3398:
  2998                           
  2999                           ;Funciones_Estado.c: 189:         RE2 = 0;
  3000     14BA  1283               	bcf	3,5	;RP0=0, select bank0
  3001     14BB  1303               	bcf	3,6	;RP1=0, select bank0
  3002     14BC  1109               	bcf	9,2	;volatile
  3003                           
  3004                           ;Funciones_Estado.c: 190:         _delay((unsigned long)((500)*(8000000/4000.0)));
  3005     14BD  3006               	movlw	6
  3006     14BE  00FC               	movwf	??_function_Environment_alarm+2
  3007     14BF  3013               	movlw	19
  3008     14C0  00FB               	movwf	??_function_Environment_alarm+1
  3009     14C1  30AD               	movlw	173
  3010     14C2  00FA               	movwf	??_function_Environment_alarm
  3011     14C3                     u5757:
  3012     14C3  0BFA               	decfsz	??_function_Environment_alarm,f
  3013     14C4  2CC3               	goto	u5757
  3014     14C5  0BFB               	decfsz	??_function_Environment_alarm+1,f
  3015     14C6  2CC3               	goto	u5757
  3016     14C7  0BFC               	decfsz	??_function_Environment_alarm+2,f
  3017     14C8  2CC3               	goto	u5757
  3018     14C9  2CCA               	nop2
  3019     14CA                     l3400:
  3020                           
  3021                           ;Funciones_Estado.c: 191:         time2++;
  3022     14CA  3001               	movlw	1
  3023     14CB  00FF               	movwf	btemp+1
  3024     14CC  087F               	movf	btemp+1,w
  3025     14CD  07FD               	addwf	function_Environment_alarm@time2,f
  3026     14CE                     l3402:
  3027                           
  3028                           ;Funciones_Estado.c: 186:     while (time2 < 5) {
  3029     14CE  3005               	movlw	5
  3030     14CF  027D               	subwf	function_Environment_alarm@time2,w
  3031     14D0  1C03               	skipc
  3032     14D1  2CD3               	goto	u4361
  3033     14D2  2CD4               	goto	u4360
  3034     14D3                     u4361:
  3035     14D3  2CAA               	goto	l263
  3036     14D4                     u4360:
  3037     14D4                     l264:
  3038                           
  3039                           ;Funciones_Estado.c: 194:     Estado = monitoring;
  3040     14D4  1283               	bcf	3,5	;RP0=0, select bank0
  3041     14D5  1303               	bcf	3,6	;RP1=0, select bank0
  3042     14D6  01EF               	clrf	_Estado
  3043     14D7  0AEF               	incf	_Estado,f
  3044     14D8                     l265:
  3045     14D8  0008               	return
  3046     14D9                     __end_of_function_Environment_alarm:
  3047                           
  3048                           	psect	text9
  3049     0916                     __ptext9:	
  3050 ;; *************** function _function_Environment *****************
  3051 ;; Defined at:
  3052 ;;		line 148 in file "Funciones_Estado.c"
  3053 ;; Parameters:    Size  Location     Type
  3054 ;;		None
  3055 ;; Auto vars:     Size  Location     Type
  3056 ;;  temperature_    2   49[BANK1 ] int 
  3057 ;;  value_temper    2   47[BANK1 ] int 
  3058 ;;  n               2    0        int 
  3059 ;;  value_fotoce    2    0        int 
  3060 ;;  value_potenc    2    0        int 
  3061 ;; Return value:  Size  Location     Type
  3062 ;;                  1    wreg      void 
  3063 ;; Registers used:
  3064 ;;		wreg, fsr0l, fsr0h, status,2, status,0, btemp+1, pclath, cstack
  3065 ;; Tracked objects:
  3066 ;;		On entry : 0/0
  3067 ;;		On exit  : 0/0
  3068 ;;		Unchanged: 0/0
  3069 ;; Data sizes:     COMMON   BANK0   BANK1   BANK3   BANK2
  3070 ;;      Params:         0       0       0       0       0
  3071 ;;      Locals:         0       0       4       0       0
  3072 ;;      Temps:          0       0       3       0       0
  3073 ;;      Totals:         0       0       7       0       0
  3074 ;;Total ram usage:        7 bytes
  3075 ;; Hardware stack levels used: 1
  3076 ;; Hardware stack levels required when called: 5
  3077 ;; This function calls:
  3078 ;;		_Calculus_Temperature
  3079 ;;		_LCD_Clear
  3080 ;;		_LCD_String_xy
  3081 ;;		_Use_Channel
  3082 ;;		_sprintf
  3083 ;; This function is called by:
  3084 ;;		_main
  3085 ;; This function uses a non-reentrant model
  3086 ;;
  3087                           
  3088     0916                     _function_Environment:	
  3089                           ;psect for function _function_Environment
  3090                           
  3091     0916                     l4010:	
  3092                           ;incstack = 0
  3093                           ; Regs used in _function_Environment: [wreg-fsr0h+status,2+status,0+btemp+1+pclath+cstac
      +                          k]
  3094                           
  3095                           
  3096                           ;Funciones_Estado.c: 149:     LCD_Clear();
  3097     0916  160A  118A  227E  120A  158A  	fcall	_LCD_Clear
  3098     091B                     l4012:
  3099                           
  3100                           ;Funciones_Estado.c: 150:     LCD_String_xy(0, 0, "Temperatura Amb");
  3101     091B  01F5               	clrf	LCD_String_xy@pos
  3102     091C  307B               	movlw	(low ((STR_7-__stringbase)| (0+32768)))& (0+255)
  3103     091D  00F6               	movwf	LCD_String_xy@msg
  3104     091E  3080               	movlw	128
  3105     091F  00F7               	movwf	LCD_String_xy@msg+1
  3106     0920  3000               	movlw	0
  3107     0921  160A  118A  230F  120A  158A  	fcall	_LCD_String_xy
  3108     0926                     l4014:
  3109     0926  3001               	movlw	1
  3110     0927  00F0               	movwf	Use_Channel@select
  3111     0928  3000               	movlw	0
  3112     0929  00F1               	movwf	Use_Channel@select+1
  3113     092A  160A  118A  22C8  120A  158A  	fcall	_Use_Channel
  3114     092F                     l4016:
  3115                           
  3116                           ;Funciones_Estado.c: 152:     int value_temperature = Use_Channel(0);
  3117     092F  3000               	movlw	0
  3118     0930  00F0               	movwf	Use_Channel@select
  3119     0931  00F1               	movwf	Use_Channel@select+1
  3120     0932  160A  118A  22C8  120A  158A  	fcall	_Use_Channel
  3121     0937  0871               	movf	?_Use_Channel+1,w
  3122     0938  1683               	bsf	3,5	;RP0=1, select bank1
  3123     0939  1303               	bcf	3,6	;RP1=0, select bank1
  3124     093A  00D0               	movwf	(function_Environment@value_temperature+1)^(0+128)
  3125     093B  0870               	movf	?_Use_Channel,w
  3126     093C  00CF               	movwf	function_Environment@value_temperature^(0+128)
  3127     093D                     l4018:
  3128                           
  3129                           ;Funciones_Estado.c: 153:     int temperature_celsius = Calculus_Temperature(value_tempe
      +                          rature);
  3130     093D  0850               	movf	(function_Environment@value_temperature+1)^(0+128),w
  3131     093E  00B5               	movwf	(Calculus_Temperature@temperature+1)^(0+128)
  3132     093F  084F               	movf	function_Environment@value_temperature^(0+128),w
  3133     0940  00B4               	movwf	Calculus_Temperature@temperature^(0+128)
  3134     0941  120A  158A  2675  120A  158A  	fcall	_Calculus_Temperature
  3135     0946  1683               	bsf	3,5	;RP0=1, select bank1
  3136     0947  1303               	bcf	3,6	;RP1=0, select bank1
  3137     0948  0835               	movf	(?_Calculus_Temperature+1)^(0+128),w
  3138     0949  00D2               	movwf	(function_Environment@temperature_celsius+1)^(0+128)
  3139     094A  0834               	movf	?_Calculus_Temperature^(0+128),w
  3140     094B  00D1               	movwf	function_Environment@temperature_celsius^(0+128)
  3141     094C  3004               	movlw	4
  3142     094D  00F0               	movwf	Use_Channel@select
  3143     094E  3000               	movlw	0
  3144     094F  00F1               	movwf	Use_Channel@select+1
  3145     0950  160A  118A  22C8  120A  158A  	fcall	_Use_Channel
  3146     0955                     l4020:
  3147                           
  3148                           ;Funciones_Estado.c: 155:     _delay((unsigned long)((500)*(8000000/4000.0)));
  3149     0955  3006               	movlw	6
  3150     0956  1683               	bsf	3,5	;RP0=1, select bank1
  3151     0957  1303               	bcf	3,6	;RP1=0, select bank1
  3152     0958  00CE               	movwf	(??_function_Environment^(0+128)+2)
  3153     0959  3013               	movlw	19
  3154     095A  00CD               	movwf	(??_function_Environment^(0+128)+1)
  3155     095B  30AD               	movlw	173
  3156     095C  00CC               	movwf	??_function_Environment^(0+128)
  3157     095D                     u5767:
  3158     095D  0BCC               	decfsz	??_function_Environment^(0+128),f
  3159     095E  295D               	goto	u5767
  3160     095F  0BCD               	decfsz	(??_function_Environment^(0+128)+1),f
  3161     0960  295D               	goto	u5767
  3162     0961  0BCE               	decfsz	(??_function_Environment^(0+128)+2),f
  3163     0962  295D               	goto	u5767
  3164     0963                     l4022:
  3165                           
  3166                           ;Funciones_Estado.c: 156:     LCD_Clear();
  3167     0963  160A  118A  227E  120A  158A  	fcall	_LCD_Clear
  3168     0968                     l4024:
  3169     0968  30B3               	movlw	(low ((STR_8-__stringbase)| (0+32768)))& (0+255)
  3170     0969  1283               	bcf	3,5	;RP0=0, select bank0
  3171     096A  1303               	bcf	3,6	;RP1=0, select bank0
  3172     096B  00A0               	movwf	sprintf@f
  3173     096C  1683               	bsf	3,5	;RP0=1, select bank1
  3174     096D  1303               	bcf	3,6	;RP1=0, select bank1
  3175     096E  0852               	movf	(function_Environment@temperature_celsius+1)^(0+128),w
  3176     096F  1283               	bcf	3,5	;RP0=0, select bank0
  3177     0970  1303               	bcf	3,6	;RP1=0, select bank0
  3178     0971  00A2               	movwf	?_sprintf+2
  3179     0972  1683               	bsf	3,5	;RP0=1, select bank1
  3180     0973  1303               	bcf	3,6	;RP1=0, select bank1
  3181     0974  0851               	movf	function_Environment@temperature_celsius^(0+128),w
  3182     0975  1283               	bcf	3,5	;RP0=0, select bank0
  3183     0976  1303               	bcf	3,6	;RP1=0, select bank0
  3184     0977  00A1               	movwf	?_sprintf+1
  3185     0978  3090               	movlw	(low (_buffer| (0+256)))& (0+255)
  3186     0979  120A  158A  243D  120A  158A  	fcall	_sprintf
  3187     097E                     l4026:
  3188                           
  3189                           ;Funciones_Estado.c: 158:     LCD_String_xy(0, 0, buffer);
  3190     097E  01F5               	clrf	LCD_String_xy@pos
  3191     097F  3090               	movlw	(low (_buffer| (0+256)))& (0+255)
  3192     0980  00F6               	movwf	LCD_String_xy@msg
  3193     0981  3001               	movlw	1
  3194     0982  00F7               	movwf	LCD_String_xy@msg+1
  3195     0983  3000               	movlw	0
  3196     0984  160A  118A  230F  120A  158A  	fcall	_LCD_String_xy
  3197                           
  3198                           ;Funciones_Estado.c: 159:     _delay((unsigned long)((2000)*(8000000/4000.0)));
  3199     0989  3015               	movlw	21
  3200     098A  1683               	bsf	3,5	;RP0=1, select bank1
  3201     098B  1303               	bcf	3,6	;RP1=0, select bank1
  3202     098C  00CE               	movwf	(??_function_Environment^(0+128)+2)
  3203     098D  304B               	movlw	75
  3204     098E  00CD               	movwf	(??_function_Environment^(0+128)+1)
  3205     098F  30BD               	movlw	189
  3206     0990  00CC               	movwf	??_function_Environment^(0+128)
  3207     0991                     u5777:
  3208     0991  0BCC               	decfsz	??_function_Environment^(0+128),f
  3209     0992  2991               	goto	u5777
  3210     0993  0BCD               	decfsz	(??_function_Environment^(0+128)+1),f
  3211     0994  2991               	goto	u5777
  3212     0995  0BCE               	decfsz	(??_function_Environment^(0+128)+2),f
  3213     0996  2991               	goto	u5777
  3214     0997  2998               	nop2
  3215     0998                     l4028:
  3216                           
  3217                           ;Funciones_Estado.c: 161:     if (temperature_celsius > 25) {
  3218     0998  1683               	bsf	3,5	;RP0=1, select bank1
  3219     0999  1303               	bcf	3,6	;RP1=0, select bank1
  3220     099A  0852               	movf	(function_Environment@temperature_celsius+1)^(0+128),w
  3221     099B  3A80               	xorlw	128
  3222     099C  00FF               	movwf	btemp+1
  3223     099D  3080               	movlw	128
  3224     099E  027F               	subwf	btemp+1,w
  3225     099F  1D03               	skipz
  3226     09A0  29A3               	goto	u5595
  3227     09A1  301A               	movlw	26
  3228     09A2  0251               	subwf	function_Environment@temperature_celsius^(0+128),w
  3229     09A3                     u5595:
  3230     09A3  1C03               	skipc
  3231     09A4  29A6               	goto	u5591
  3232     09A5  29A7               	goto	u5590
  3233     09A6                     u5591:
  3234     09A6  29AC               	goto	l4032
  3235     09A7                     u5590:
  3236     09A7                     l4030:
  3237                           
  3238                           ;Funciones_Estado.c: 162:         Estado = alarm_environment;
  3239     09A7  3005               	movlw	5
  3240     09A8  1283               	bcf	3,5	;RP0=0, select bank0
  3241     09A9  1303               	bcf	3,6	;RP1=0, select bank0
  3242     09AA  00EF               	movwf	_Estado
  3243                           
  3244                           ;Funciones_Estado.c: 163:     } else {
  3245     09AB  29B0               	goto	l4034
  3246     09AC                     l4032:
  3247                           
  3248                           ;Funciones_Estado.c: 164:         Estado = environment;
  3249     09AC  3004               	movlw	4
  3250     09AD  1283               	bcf	3,5	;RP0=0, select bank0
  3251     09AE  1303               	bcf	3,6	;RP1=0, select bank0
  3252     09AF  00EF               	movwf	_Estado
  3253     09B0                     l4034:
  3254                           
  3255                           ;Funciones_Estado.c: 167:     LCD_Clear();
  3256     09B0  160A  118A  227E  120A  158A  	fcall	_LCD_Clear
  3257     09B5                     l4036:
  3258                           
  3259                           ;Funciones_Estado.c: 168:     _delay((unsigned long)((3000)*(8000000/4000.0)));
  3260     09B5  301F               	movlw	31
  3261     09B6  1683               	bsf	3,5	;RP0=1, select bank1
  3262     09B7  1303               	bcf	3,6	;RP1=0, select bank1
  3263     09B8  00CE               	movwf	(??_function_Environment^(0+128)+2)
  3264     09B9  3071               	movlw	113
  3265     09BA  00CD               	movwf	(??_function_Environment^(0+128)+1)
  3266     09BB  301D               	movlw	29
  3267     09BC  00CC               	movwf	??_function_Environment^(0+128)
  3268     09BD                     u5787:
  3269     09BD  0BCC               	decfsz	??_function_Environment^(0+128),f
  3270     09BE  29BD               	goto	u5787
  3271     09BF  0BCD               	decfsz	(??_function_Environment^(0+128)+1),f
  3272     09C0  29BD               	goto	u5787
  3273     09C1  0BCE               	decfsz	(??_function_Environment^(0+128)+2),f
  3274     09C2  29BD               	goto	u5787
  3275     09C3  29C4               	nop2
  3276     09C4                     l4038:
  3277                           
  3278                           ;Funciones_Estado.c: 169:     Estado = monitoring;
  3279     09C4  1283               	bcf	3,5	;RP0=0, select bank0
  3280     09C5  1303               	bcf	3,6	;RP1=0, select bank0
  3281     09C6  01EF               	clrf	_Estado
  3282     09C7  0AEF               	incf	_Estado,f
  3283     09C8                     l259:
  3284     09C8  0008               	return
  3285     09C9                     __end_of_function_Environment:
  3286                           
  3287                           	psect	text10
  3288     0C3D                     __ptext10:	
  3289 ;; *************** function _sprintf *****************
  3290 ;; Defined at:
  3291 ;;		line 505 in file "C:\Program Files\Microchip\xc8\v2.41\pic\sources\c90\common\doprnt.c"
  3292 ;; Parameters:    Size  Location     Type
  3293 ;;  sp              1    wreg     PTR unsigned char 
  3294 ;;		 -> buffer(17), 
  3295 ;;  f               1    0[BANK0 ] PTR const unsigned char 
  3296 ;;		 -> STR_8(6), STR_1(19), 
  3297 ;; Auto vars:     Size  Location     Type
  3298 ;;  sp              1   17[BANK0 ] PTR unsigned char 
  3299 ;;		 -> buffer(17), 
  3300 ;;  tmpval          4    0        struct .
  3301 ;;  val             2   15[BANK0 ] unsigned int 
  3302 ;;  ccnt            2   12[BANK0 ] int 
  3303 ;;  cp              2    0        PTR const unsigned char 
  3304 ;;  len             2    0        unsigned int 
  3305 ;;  c               1   18[BANK0 ] unsigned char 
  3306 ;;  prec            1   14[BANK0 ] char 
  3307 ;;  flag            1   11[BANK0 ] unsigned char 
  3308 ;;  ap              1   10[BANK0 ] PTR void [1]
  3309 ;;		 -> ?_sprintf(2), 
  3310 ;; Return value:  Size  Location     Type
  3311 ;;                  2    0[BANK0 ] int 
  3312 ;; Registers used:
  3313 ;;		wreg, fsr0l, fsr0h, status,2, status,0, btemp+1, pclath, cstack
  3314 ;; Tracked objects:
  3315 ;;		On entry : 0/0
  3316 ;;		On exit  : 0/0
  3317 ;;		Unchanged: 0/0
  3318 ;; Data sizes:     COMMON   BANK0   BANK1   BANK3   BANK2
  3319 ;;      Params:         0       7       0       0       0
  3320 ;;      Locals:         0       9       0       0       0
  3321 ;;      Temps:          0       3       0       0       0
  3322 ;;      Totals:         0      19       0       0       0
  3323 ;;Total ram usage:       19 bytes
  3324 ;; Hardware stack levels used: 1
  3325 ;; Hardware stack levels required when called: 1
  3326 ;; This function calls:
  3327 ;;		___lwdiv
  3328 ;;		___lwmod
  3329 ;; This function is called by:
  3330 ;;		_function_Monitoring
  3331 ;;		_function_Environment
  3332 ;; This function uses a non-reentrant model
  3333 ;;
  3334                           
  3335     0C3D                     _sprintf:	
  3336                           ;psect for function _sprintf
  3337                           
  3338                           
  3339                           ;incstack = 0
  3340                           ; Regs used in _sprintf: [wreg-fsr0h+status,2+status,0+btemp+1+pclath+cstack]
  3341                           ;sprintf@sp stored from wreg
  3342     0C3D  1283               	bcf	3,5	;RP0=0, select bank0
  3343     0C3E  1303               	bcf	3,6	;RP1=0, select bank0
  3344     0C3F  00B1               	movwf	sprintf@sp
  3345     0C40                     l3152:
  3346                           
  3347                           ;C:\Program Files\Microchip\xc8\v2.41\pic\sources\c90\common\doprnt.c: 505: sprintf(char
      +                           * sp, const char * f, ...);C:\Program Files\Microchip\xc8\v2.41\pic\sources\c90\common\
      +                          doprnt.c: 506: {;C:\Program Files\Microchip\xc8\v2.41\pic\sources\c90\common\doprnt.c: 5
      +                          07:  va_list ap;;C:\Program Files\Microchip\xc8\v2.41\pic\sources\c90\common\doprnt.c: 5
      +                          12:  char c;;C:\Program Files\Microchip\xc8\v2.41\pic\sources\c90\common\doprnt.c: 521: 
      +                           signed char prec;;C:\Program Files\Microchip\xc8\v2.41\pic\sources\c90\common\doprnt.c:
      +                           525:  unsigned char flag;
  3348     0C40  01AC               	clrf	sprintf@ccnt
  3349     0C41  01AD               	clrf	sprintf@ccnt+1
  3350     0C42                     l3154:
  3351                           
  3352                           ;C:\Program Files\Microchip\xc8\v2.41\pic\sources\c90\common\doprnt.c: 543:  } tmpval;;C
      +                          :\Program Files\Microchip\xc8\v2.41\pic\sources\c90\common\doprnt.c: 545:  unsigned int 
      +                          val;;C:\Program Files\Microchip\xc8\v2.41\pic\sources\c90\common\doprnt.c: 546:  unsigne
      +                          d len;;C:\Program Files\Microchip\xc8\v2.41\pic\sources\c90\common\doprnt.c: 547:  const
      +                           char * cp;;C:\Program Files\Microchip\xc8\v2.41\pic\sources\c90\common\doprnt.c: 550:  
      +                          *ap = __va_start();
  3353     0C42  3021               	movlw	(low ((?_sprintf| 0+1)))& (0+255)
  3354     0C43  00AA               	movwf	sprintf@ap
  3355                           
  3356                           ;C:\Program Files\Microchip\xc8\v2.41\pic\sources\c90\common\doprnt.c: 553:  while((c = 
      +                          *f++)) {
  3357     0C44  2D16               	goto	l3214
  3358     0C45                     l3156:
  3359                           
  3360                           ;C:\Program Files\Microchip\xc8\v2.41\pic\sources\c90\common\doprnt.c: 555:   if(c != '%
      +                          ')
  3361     0C45  3025               	movlw	37
  3362     0C46  0632               	xorwf	sprintf@c,w
  3363     0C47  1903               	btfsc	3,2
  3364     0C48  2C4A               	goto	u4191
  3365     0C49  2C4B               	goto	u4190
  3366     0C4A                     u4191:
  3367     0C4A  2C5B               	goto	l3164
  3368     0C4B                     u4190:
  3369     0C4B                     l3158:
  3370                           
  3371                           ;C:\Program Files\Microchip\xc8\v2.41\pic\sources\c90\common\doprnt.c: 557:   {;C:\Progr
      +                          am Files\Microchip\xc8\v2.41\pic\sources\c90\common\doprnt.c: 558:    ((*sp++ = (c)),(++
      +                          ccnt));
  3372     0C4B  0831               	movf	sprintf@sp,w
  3373     0C4C  0084               	movwf	4
  3374     0C4D  0832               	movf	sprintf@c,w
  3375     0C4E  1783               	bsf	3,7	;select IRP bank2
  3376     0C4F  0080               	movwf	0
  3377     0C50                     l3160:
  3378     0C50  3001               	movlw	1
  3379     0C51  00FF               	movwf	btemp+1
  3380     0C52  087F               	movf	btemp+1,w
  3381     0C53  07B1               	addwf	sprintf@sp,f
  3382     0C54                     l3162:
  3383     0C54  3001               	movlw	1
  3384     0C55  07AC               	addwf	sprintf@ccnt,f
  3385     0C56  1803               	skipnc
  3386     0C57  0AAD               	incf	sprintf@ccnt+1,f
  3387     0C58  3000               	movlw	0
  3388     0C59  07AD               	addwf	sprintf@ccnt+1,f
  3389                           
  3390                           ;C:\Program Files\Microchip\xc8\v2.41\pic\sources\c90\common\doprnt.c: 559:    continue;
  3391     0C5A  2D16               	goto	l3214
  3392     0C5B                     l3164:
  3393                           
  3394                           ;C:\Program Files\Microchip\xc8\v2.41\pic\sources\c90\common\doprnt.c: 565:   flag = 0;
  3395     0C5B  01AB               	clrf	sprintf@flag
  3396     0C5C                     l3168:	
  3397                           ;C:\Program Files\Microchip\xc8\v2.41\pic\sources\c90\common\doprnt.c: 661:   switch(c =
      +                           *f++) {
  3398                           
  3399     0C5C  3001               	movlw	1
  3400     0C5D  07A0               	addwf	sprintf@f,f
  3401     0C5E  30FF               	movlw	-1
  3402     0C5F  0720               	addwf	sprintf@f,w
  3403     0C60  0084               	movwf	4
  3404     0C61  120A  158A  200A  120A  158A  	fcall	stringdir
  3405     0C66  00B2               	movwf	sprintf@c
  3406     0C67  00A7               	movwf	??_sprintf
  3407     0C68  01A8               	clrf	??_sprintf+1
  3408                           
  3409                           ; Switch on 2 bytes has been partitioned into a top level switch of size 1, and 1 sub-sw
      +                          itches
  3410                           ; Switch size 1, requested type "simple"
  3411                           ; Number of cases is 1, Range of values is 0 to 0
  3412                           ; switch strategies available:
  3413                           ; Name         Instructions Cycles
  3414                           ; simple_byte            4     3 (average)
  3415                           ; direct_byte           11     8 (fixed)
  3416                           ; jumptable            260     6 (fixed)
  3417                           ;	Chosen strategy is simple_byte
  3418     0C69  0828               	movf	??_sprintf+1,w
  3419     0C6A  3A00               	xorlw	0	; case 0
  3420     0C6B  1903               	skipnz
  3421     0C6C  2C6E               	goto	l4104
  3422     0C6D  2D16               	goto	l3214
  3423     0C6E                     l4104:
  3424                           
  3425                           ; Switch size 1, requested type "simple"
  3426                           ; Number of cases is 3, Range of values is 0 to 105
  3427                           ; switch strategies available:
  3428                           ; Name         Instructions Cycles
  3429                           ; simple_byte           10     6 (average)
  3430                           ; jumptable            260     6 (fixed)
  3431                           ;	Chosen strategy is simple_byte
  3432     0C6E  0827               	movf	??_sprintf,w
  3433     0C6F  3A00               	xorlw	0	; case 0
  3434     0C70  1903               	skipnz
  3435     0C71  2D26               	goto	l3216
  3436     0C72  3A64               	xorlw	100	; case 100
  3437     0C73  1903               	skipnz
  3438     0C74  2C79               	goto	l3170
  3439     0C75  3A0D               	xorlw	13	; case 105
  3440     0C76  1903               	skipnz
  3441     0C77  2C79               	goto	l3170
  3442     0C78  2D16               	goto	l3214
  3443     0C79                     l3170:
  3444                           
  3445                           ;C:\Program Files\Microchip\xc8\v2.41\pic\sources\c90\common\doprnt.c: 1279:   {;C:\Prog
      +                          ram Files\Microchip\xc8\v2.41\pic\sources\c90\common\doprnt.c: 1285:     val = (unsigned
      +                           int)(*(int *)__va_arg((*(int **)ap), (int)0));
  3446     0C79  082A               	movf	sprintf@ap,w
  3447     0C7A  0084               	movwf	4
  3448     0C7B  1383               	bcf	3,7	;select IRP bank0
  3449     0C7C  0800               	movf	0,w
  3450     0C7D  00AF               	movwf	sprintf@val
  3451     0C7E  0A84               	incf	4,f
  3452     0C7F  0800               	movf	0,w
  3453     0C80  00B0               	movwf	sprintf@val+1
  3454     0C81                     l3172:
  3455     0C81  3002               	movlw	2
  3456     0C82  00FF               	movwf	btemp+1
  3457     0C83  087F               	movf	btemp+1,w
  3458     0C84  07AA               	addwf	sprintf@ap,f
  3459     0C85                     l3174:
  3460                           
  3461                           ;C:\Program Files\Microchip\xc8\v2.41\pic\sources\c90\common\doprnt.c: 1287:    if((int)
      +                          val < 0) {
  3462     0C85  1FB0               	btfss	sprintf@val+1,7
  3463     0C86  2C88               	goto	u4201
  3464     0C87  2C89               	goto	u4200
  3465     0C88                     u4201:
  3466     0C88  2C92               	goto	l3180
  3467     0C89                     u4200:
  3468     0C89                     l3176:
  3469                           
  3470                           ;C:\Program Files\Microchip\xc8\v2.41\pic\sources\c90\common\doprnt.c: 1288:     flag |=
      +                           0x03;
  3471     0C89  3003               	movlw	3
  3472     0C8A  00FF               	movwf	btemp+1
  3473     0C8B  087F               	movf	btemp+1,w
  3474     0C8C  04AB               	iorwf	sprintf@flag,f
  3475     0C8D                     l3178:
  3476                           
  3477                           ;C:\Program Files\Microchip\xc8\v2.41\pic\sources\c90\common\doprnt.c: 1289:     val = -
      +                          val;
  3478     0C8D  09AF               	comf	sprintf@val,f
  3479     0C8E  09B0               	comf	sprintf@val+1,f
  3480     0C8F  0AAF               	incf	sprintf@val,f
  3481     0C90  1903               	skipnz
  3482     0C91  0AB0               	incf	sprintf@val+1,f
  3483     0C92                     l3180:
  3484                           
  3485                           ;C:\Program Files\Microchip\xc8\v2.41\pic\sources\c90\common\doprnt.c: 1292:   };C:\Prog
      +                          ram Files\Microchip\xc8\v2.41\pic\sources\c90\common\doprnt.c: 1331:    for(c = 1 ; c !=
      +                           sizeof dpowers/sizeof dpowers[0] ; c++)
  3486     0C92  01B2               	clrf	sprintf@c
  3487     0C93  0AB2               	incf	sprintf@c,f
  3488     0C94                     l3186:
  3489                           
  3490                           ;C:\Program Files\Microchip\xc8\v2.41\pic\sources\c90\common\doprnt.c: 1332:     if(val 
      +                          < dpowers[c])
  3491     0C94  0832               	movf	sprintf@c,w
  3492     0C95  00A7               	movwf	??_sprintf
  3493     0C96  0727               	addwf	??_sprintf,w
  3494     0C97  3E01               	addlw	low ((_dpowers-__stringbase)| (0+32768))
  3495     0C98  0084               	movwf	4
  3496     0C99  120A  158A  200A  120A  158A  	fcall	stringdir
  3497     0C9E  00A8               	movwf	??_sprintf+1
  3498     0C9F  120A  158A  200A  120A  158A  	fcall	stringdir
  3499     0CA4  00A9               	movwf	??_sprintf+2
  3500     0CA5  0829               	movf	??_sprintf+2,w
  3501     0CA6  0230               	subwf	sprintf@val+1,w
  3502     0CA7  1D03               	skipz
  3503     0CA8  2CAB               	goto	u4215
  3504     0CA9  0828               	movf	??_sprintf+1,w
  3505     0CAA  022F               	subwf	sprintf@val,w
  3506     0CAB                     u4215:
  3507     0CAB  1803               	skipnc
  3508     0CAC  2CAE               	goto	u4211
  3509     0CAD  2CAF               	goto	u4210
  3510     0CAE                     u4211:
  3511     0CAE  2CB0               	goto	l3190
  3512     0CAF                     u4210:
  3513     0CAF  2CBA               	goto	l3194
  3514     0CB0                     l3190:
  3515     0CB0  3001               	movlw	1
  3516     0CB1  00FF               	movwf	btemp+1
  3517     0CB2  087F               	movf	btemp+1,w
  3518     0CB3  07B2               	addwf	sprintf@c,f
  3519     0CB4                     l3192:
  3520     0CB4  3005               	movlw	5
  3521     0CB5  0632               	xorwf	sprintf@c,w
  3522     0CB6  1D03               	btfss	3,2
  3523     0CB7  2CB9               	goto	u4221
  3524     0CB8  2CBA               	goto	u4220
  3525     0CB9                     u4221:
  3526     0CB9  2C94               	goto	l3186
  3527     0CBA                     u4220:
  3528     0CBA                     l3194:
  3529                           
  3530                           ;C:\Program Files\Microchip\xc8\v2.41\pic\sources\c90\common\doprnt.c: 1448:   {;C:\Prog
      +                          ram Files\Microchip\xc8\v2.41\pic\sources\c90\common\doprnt.c: 1464:    if(flag & 0x03)
  3531     0CBA  082B               	movf	sprintf@flag,w
  3532     0CBB  3903               	andlw	3
  3533     0CBC  1903               	btfsc	3,2
  3534     0CBD  2CBF               	goto	u4231
  3535     0CBE  2CC0               	goto	u4230
  3536     0CBF                     u4231:
  3537     0CBF  2CCF               	goto	l3202
  3538     0CC0                     u4230:
  3539     0CC0                     l3196:
  3540                           
  3541                           ;C:\Program Files\Microchip\xc8\v2.41\pic\sources\c90\common\doprnt.c: 1465:     ((*sp++
      +                           = ('-')),(++ccnt));
  3542     0CC0  0831               	movf	sprintf@sp,w
  3543     0CC1  0084               	movwf	4
  3544     0CC2  302D               	movlw	45
  3545     0CC3  1783               	bsf	3,7	;select IRP bank2
  3546     0CC4  0080               	movwf	0
  3547     0CC5                     l3198:
  3548     0CC5  3001               	movlw	1
  3549     0CC6  00FF               	movwf	btemp+1
  3550     0CC7  087F               	movf	btemp+1,w
  3551     0CC8  07B1               	addwf	sprintf@sp,f
  3552     0CC9                     l3200:
  3553     0CC9  3001               	movlw	1
  3554     0CCA  07AC               	addwf	sprintf@ccnt,f
  3555     0CCB  1803               	skipnc
  3556     0CCC  0AAD               	incf	sprintf@ccnt+1,f
  3557     0CCD  3000               	movlw	0
  3558     0CCE  07AD               	addwf	sprintf@ccnt+1,f
  3559     0CCF                     l3202:
  3560                           
  3561                           ;C:\Program Files\Microchip\xc8\v2.41\pic\sources\c90\common\doprnt.c: 1495:   };C:\Prog
      +                          ram Files\Microchip\xc8\v2.41\pic\sources\c90\common\doprnt.c: 1498:   prec = c;
  3562     0CCF  0832               	movf	sprintf@c,w
  3563     0CD0  00AE               	movwf	sprintf@prec
  3564                           
  3565                           ;C:\Program Files\Microchip\xc8\v2.41\pic\sources\c90\common\doprnt.c: 1500:   while(pre
      +                          c--) {
  3566     0CD1  2D0D               	goto	l3212
  3567     0CD2                     l3204:
  3568                           
  3569                           ;C:\Program Files\Microchip\xc8\v2.41\pic\sources\c90\common\doprnt.c: 1504:    {;C:\Pro
      +                          gram Files\Microchip\xc8\v2.41\pic\sources\c90\common\doprnt.c: 1515:     c = (val / dpo
      +                          wers[(unsigned char)prec]) % 10 + '0';
  3570     0CD2  300A               	movlw	10
  3571     0CD3  00F7               	movwf	___lwmod@divisor
  3572     0CD4  3000               	movlw	0
  3573     0CD5  00F8               	movwf	___lwmod@divisor+1
  3574     0CD6  082E               	movf	sprintf@prec,w
  3575     0CD7  00A7               	movwf	??_sprintf
  3576     0CD8  0727               	addwf	??_sprintf,w
  3577     0CD9  3E01               	addlw	low ((_dpowers-__stringbase)| (0+32768))
  3578     0CDA  0084               	movwf	4
  3579     0CDB  120A  158A  200A  120A  158A  	fcall	stringdir
  3580     0CE0  00F0               	movwf	___lwdiv@divisor
  3581     0CE1  120A  158A  200A  120A  158A  	fcall	stringdir
  3582     0CE6  00F1               	movwf	___lwdiv@divisor+1
  3583     0CE7  0830               	movf	sprintf@val+1,w
  3584     0CE8  00F3               	movwf	___lwdiv@dividend+1
  3585     0CE9  082F               	movf	sprintf@val,w
  3586     0CEA  00F2               	movwf	___lwdiv@dividend
  3587     0CEB  160A  118A  24D9  120A  158A  	fcall	___lwdiv
  3588     0CF0  0871               	movf	?___lwdiv+1,w
  3589     0CF1  00FA               	movwf	___lwmod@dividend+1
  3590     0CF2  0870               	movf	?___lwdiv,w
  3591     0CF3  00F9               	movwf	___lwmod@dividend
  3592     0CF4  160A  118A  241D  120A  158A  	fcall	___lwmod
  3593     0CF9  0877               	movf	?___lwmod,w
  3594     0CFA  3E30               	addlw	48
  3595     0CFB  1283               	bcf	3,5	;RP0=0, select bank0
  3596     0CFC  1303               	bcf	3,6	;RP1=0, select bank0
  3597     0CFD  00B2               	movwf	sprintf@c
  3598     0CFE                     l3206:
  3599                           
  3600                           ;C:\Program Files\Microchip\xc8\v2.41\pic\sources\c90\common\doprnt.c: 1549:    };C:\Pro
      +                          gram Files\Microchip\xc8\v2.41\pic\sources\c90\common\doprnt.c: 1550:    ((*sp++ = (c)),
      +                          (++ccnt));
  3601     0CFE  0831               	movf	sprintf@sp,w
  3602     0CFF  0084               	movwf	4
  3603     0D00  0832               	movf	sprintf@c,w
  3604     0D01  1783               	bsf	3,7	;select IRP bank2
  3605     0D02  0080               	movwf	0
  3606     0D03                     l3208:
  3607     0D03  3001               	movlw	1
  3608     0D04  00FF               	movwf	btemp+1
  3609     0D05  087F               	movf	btemp+1,w
  3610     0D06  07B1               	addwf	sprintf@sp,f
  3611     0D07                     l3210:
  3612     0D07  3001               	movlw	1
  3613     0D08  07AC               	addwf	sprintf@ccnt,f
  3614     0D09  1803               	skipnc
  3615     0D0A  0AAD               	incf	sprintf@ccnt+1,f
  3616     0D0B  3000               	movlw	0
  3617     0D0C  07AD               	addwf	sprintf@ccnt+1,f
  3618     0D0D                     l3212:
  3619                           
  3620                           ;C:\Program Files\Microchip\xc8\v2.41\pic\sources\c90\common\doprnt.c: 1500:   while(pre
      +                          c--) {
  3621     0D0D  30FF               	movlw	255
  3622     0D0E  00FF               	movwf	btemp+1
  3623     0D0F  087F               	movf	btemp+1,w
  3624     0D10  07AE               	addwf	sprintf@prec,f
  3625     0D11  0A2E               	incf	sprintf@prec,w
  3626     0D12  1D03               	btfss	3,2
  3627     0D13  2D15               	goto	u4241
  3628     0D14  2D16               	goto	u4240
  3629     0D15                     u4241:
  3630     0D15  2CD2               	goto	l3204
  3631     0D16                     u4240:
  3632     0D16                     l3214:
  3633                           
  3634                           ;C:\Program Files\Microchip\xc8\v2.41\pic\sources\c90\common\doprnt.c: 553:  while((c = 
      +                          *f++)) {
  3635     0D16  3001               	movlw	1
  3636     0D17  07A0               	addwf	sprintf@f,f
  3637     0D18  30FF               	movlw	-1
  3638     0D19  0720               	addwf	sprintf@f,w
  3639     0D1A  0084               	movwf	4
  3640     0D1B  120A  158A  200A  120A  158A  	fcall	stringdir
  3641     0D20  00B2               	movwf	sprintf@c
  3642     0D21  0832               	movf	sprintf@c,w
  3643     0D22  1D03               	btfss	3,2
  3644     0D23  2D25               	goto	u4251
  3645     0D24  2D26               	goto	u4250
  3646     0D25                     u4251:
  3647     0D25  2C45               	goto	l3156
  3648     0D26                     u4250:
  3649     0D26                     l3216:
  3650                           
  3651                           ;C:\Program Files\Microchip\xc8\v2.41\pic\sources\c90\common\doprnt.c: 1564:  *sp = 0;
  3652     0D26  0831               	movf	sprintf@sp,w
  3653     0D27  0084               	movwf	4
  3654     0D28  1783               	bsf	3,7	;select IRP bank2
  3655     0D29  0180               	clrf	0
  3656     0D2A                     l3218:
  3657                           
  3658                           ;C:\Program Files\Microchip\xc8\v2.41\pic\sources\c90\common\doprnt.c: 1566:  return ccn
      +                          t;
  3659     0D2A  082D               	movf	sprintf@ccnt+1,w
  3660     0D2B  00A1               	movwf	?_sprintf+1
  3661     0D2C  082C               	movf	sprintf@ccnt,w
  3662     0D2D  00A0               	movwf	?_sprintf
  3663     0D2E                     l411:
  3664     0D2E  0008               	return
  3665     0D2F                     __end_of_sprintf:
  3666                           
  3667                           	psect	text11
  3668     141D                     __ptext11:	
  3669 ;; *************** function ___lwmod *****************
  3670 ;; Defined at:
  3671 ;;		line 5 in file "C:\Program Files\Microchip\xc8\v2.41\pic\sources\c90\common\lwmod.c"
  3672 ;; Parameters:    Size  Location     Type
  3673 ;;  divisor         2    7[COMMON] unsigned int 
  3674 ;;  dividend        2    9[COMMON] unsigned int 
  3675 ;; Auto vars:     Size  Location     Type
  3676 ;;  counter         1   11[COMMON] unsigned char 
  3677 ;; Return value:  Size  Location     Type
  3678 ;;                  2    7[COMMON] unsigned int 
  3679 ;; Registers used:
  3680 ;;		wreg, status,2, status,0, btemp+1
  3681 ;; Tracked objects:
  3682 ;;		On entry : 0/0
  3683 ;;		On exit  : 0/0
  3684 ;;		Unchanged: 0/0
  3685 ;; Data sizes:     COMMON   BANK0   BANK1   BANK3   BANK2
  3686 ;;      Params:         4       0       0       0       0
  3687 ;;      Locals:         1       0       0       0       0
  3688 ;;      Temps:          0       0       0       0       0
  3689 ;;      Totals:         5       0       0       0       0
  3690 ;;Total ram usage:        5 bytes
  3691 ;; Hardware stack levels used: 1
  3692 ;; This function calls:
  3693 ;;		Nothing
  3694 ;; This function is called by:
  3695 ;;		_sprintf
  3696 ;; This function uses a non-reentrant model
  3697 ;;
  3698                           
  3699     141D                     ___lwmod:	
  3700                           ;psect for function ___lwmod
  3701                           
  3702     141D                     l2852:	
  3703                           ;incstack = 0
  3704                           ; Regs used in ___lwmod: [wreg+status,2+status,0+btemp+1]
  3705                           
  3706     141D  0877               	movf	___lwmod@divisor,w
  3707     141E  0478               	iorwf	___lwmod@divisor+1,w
  3708     141F  1903               	btfsc	3,2
  3709     1420  2C22               	goto	u3581
  3710     1421  2C23               	goto	u3580
  3711     1422                     u3581:
  3712     1422  2C52               	goto	l2870
  3713     1423                     u3580:
  3714     1423                     l2854:
  3715     1423  01FB               	clrf	___lwmod@counter
  3716     1424  0AFB               	incf	___lwmod@counter,f
  3717     1425  2C31               	goto	l2860
  3718     1426                     l2856:
  3719     1426  3001               	movlw	1
  3720     1427                     u3595:
  3721     1427  1003               	clrc
  3722     1428  0DF7               	rlf	___lwmod@divisor,f
  3723     1429  0DF8               	rlf	___lwmod@divisor+1,f
  3724     142A  3EFF               	addlw	-1
  3725     142B  1D03               	skipz
  3726     142C  2C27               	goto	u3595
  3727     142D                     l2858:
  3728     142D  3001               	movlw	1
  3729     142E  00FF               	movwf	btemp+1
  3730     142F  087F               	movf	btemp+1,w
  3731     1430  07FB               	addwf	___lwmod@counter,f
  3732     1431                     l2860:
  3733     1431  1FF8               	btfss	___lwmod@divisor+1,7
  3734     1432  2C34               	goto	u3601
  3735     1433  2C35               	goto	u3600
  3736     1434                     u3601:
  3737     1434  2C26               	goto	l2856
  3738     1435                     u3600:
  3739     1435                     l2862:
  3740     1435  0878               	movf	___lwmod@divisor+1,w
  3741     1436  027A               	subwf	___lwmod@dividend+1,w
  3742     1437  1D03               	skipz
  3743     1438  2C3B               	goto	u3615
  3744     1439  0877               	movf	___lwmod@divisor,w
  3745     143A  0279               	subwf	___lwmod@dividend,w
  3746     143B                     u3615:
  3747     143B  1C03               	skipc
  3748     143C  2C3E               	goto	u3611
  3749     143D  2C3F               	goto	u3610
  3750     143E                     u3611:
  3751     143E  2C45               	goto	l2866
  3752     143F                     u3610:
  3753     143F                     l2864:
  3754     143F  0877               	movf	___lwmod@divisor,w
  3755     1440  02F9               	subwf	___lwmod@dividend,f
  3756     1441  0878               	movf	___lwmod@divisor+1,w
  3757     1442  1C03               	skipc
  3758     1443  03FA               	decf	___lwmod@dividend+1,f
  3759     1444  02FA               	subwf	___lwmod@dividend+1,f
  3760     1445                     l2866:
  3761     1445  3001               	movlw	1
  3762     1446                     u3625:
  3763     1446  1003               	clrc
  3764     1447  0CF8               	rrf	___lwmod@divisor+1,f
  3765     1448  0CF7               	rrf	___lwmod@divisor,f
  3766     1449  3EFF               	addlw	-1
  3767     144A  1D03               	skipz
  3768     144B  2C46               	goto	u3625
  3769     144C                     l2868:
  3770     144C  3001               	movlw	1
  3771     144D  02FB               	subwf	___lwmod@counter,f
  3772     144E  1D03               	btfss	3,2
  3773     144F  2C51               	goto	u3631
  3774     1450  2C52               	goto	u3630
  3775     1451                     u3631:
  3776     1451  2C35               	goto	l2862
  3777     1452                     u3630:
  3778     1452                     l2870:
  3779     1452  087A               	movf	___lwmod@dividend+1,w
  3780     1453  00F8               	movwf	?___lwmod+1
  3781     1454  0879               	movf	___lwmod@dividend,w
  3782     1455  00F7               	movwf	?___lwmod
  3783     1456                     l697:
  3784     1456  0008               	return
  3785     1457                     __end_of___lwmod:
  3786                           
  3787                           	psect	text12
  3788     14D9                     __ptext12:	
  3789 ;; *************** function ___lwdiv *****************
  3790 ;; Defined at:
  3791 ;;		line 5 in file "C:\Program Files\Microchip\xc8\v2.41\pic\sources\c90\common\lwdiv.c"
  3792 ;; Parameters:    Size  Location     Type
  3793 ;;  divisor         2    0[COMMON] unsigned int 
  3794 ;;  dividend        2    2[COMMON] unsigned int 
  3795 ;; Auto vars:     Size  Location     Type
  3796 ;;  quotient        2    4[COMMON] unsigned int 
  3797 ;;  counter         1    6[COMMON] unsigned char 
  3798 ;; Return value:  Size  Location     Type
  3799 ;;                  2    0[COMMON] unsigned int 
  3800 ;; Registers used:
  3801 ;;		wreg, status,2, status,0, btemp+1
  3802 ;; Tracked objects:
  3803 ;;		On entry : 0/0
  3804 ;;		On exit  : 0/0
  3805 ;;		Unchanged: 0/0
  3806 ;; Data sizes:     COMMON   BANK0   BANK1   BANK3   BANK2
  3807 ;;      Params:         4       0       0       0       0
  3808 ;;      Locals:         3       0       0       0       0
  3809 ;;      Temps:          0       0       0       0       0
  3810 ;;      Totals:         7       0       0       0       0
  3811 ;;Total ram usage:        7 bytes
  3812 ;; Hardware stack levels used: 1
  3813 ;; This function calls:
  3814 ;;		Nothing
  3815 ;; This function is called by:
  3816 ;;		_sprintf
  3817 ;; This function uses a non-reentrant model
  3818 ;;
  3819                           
  3820     14D9                     ___lwdiv:	
  3821                           ;psect for function ___lwdiv
  3822                           
  3823     14D9                     l2826:	
  3824                           ;incstack = 0
  3825                           ; Regs used in ___lwdiv: [wreg+status,2+status,0+btemp+1]
  3826                           
  3827     14D9  01F4               	clrf	___lwdiv@quotient
  3828     14DA  01F5               	clrf	___lwdiv@quotient+1
  3829     14DB                     l2828:
  3830     14DB  0870               	movf	___lwdiv@divisor,w
  3831     14DC  0471               	iorwf	___lwdiv@divisor+1,w
  3832     14DD  1903               	btfsc	3,2
  3833     14DE  2CE0               	goto	u3511
  3834     14DF  2CE1               	goto	u3510
  3835     14E0                     u3511:
  3836     14E0  2D18               	goto	l2848
  3837     14E1                     u3510:
  3838     14E1                     l2830:
  3839     14E1  01F6               	clrf	___lwdiv@counter
  3840     14E2  0AF6               	incf	___lwdiv@counter,f
  3841     14E3  2CEF               	goto	l2836
  3842     14E4                     l2832:
  3843     14E4  3001               	movlw	1
  3844     14E5                     u3525:
  3845     14E5  1003               	clrc
  3846     14E6  0DF0               	rlf	___lwdiv@divisor,f
  3847     14E7  0DF1               	rlf	___lwdiv@divisor+1,f
  3848     14E8  3EFF               	addlw	-1
  3849     14E9  1D03               	skipz
  3850     14EA  2CE5               	goto	u3525
  3851     14EB                     l2834:
  3852     14EB  3001               	movlw	1
  3853     14EC  00FF               	movwf	btemp+1
  3854     14ED  087F               	movf	btemp+1,w
  3855     14EE  07F6               	addwf	___lwdiv@counter,f
  3856     14EF                     l2836:
  3857     14EF  1FF1               	btfss	___lwdiv@divisor+1,7
  3858     14F0  2CF2               	goto	u3531
  3859     14F1  2CF3               	goto	u3530
  3860     14F2                     u3531:
  3861     14F2  2CE4               	goto	l2832
  3862     14F3                     u3530:
  3863     14F3                     l2838:
  3864     14F3  3001               	movlw	1
  3865     14F4                     u3545:
  3866     14F4  1003               	clrc
  3867     14F5  0DF4               	rlf	___lwdiv@quotient,f
  3868     14F6  0DF5               	rlf	___lwdiv@quotient+1,f
  3869     14F7  3EFF               	addlw	-1
  3870     14F8  1D03               	skipz
  3871     14F9  2CF4               	goto	u3545
  3872     14FA  0871               	movf	___lwdiv@divisor+1,w
  3873     14FB  0273               	subwf	___lwdiv@dividend+1,w
  3874     14FC  1D03               	skipz
  3875     14FD  2D00               	goto	u3555
  3876     14FE  0870               	movf	___lwdiv@divisor,w
  3877     14FF  0272               	subwf	___lwdiv@dividend,w
  3878     1500                     u3555:
  3879     1500  1C03               	skipc
  3880     1501  2D03               	goto	u3551
  3881     1502  2D04               	goto	u3550
  3882     1503                     u3551:
  3883     1503  2D0B               	goto	l2844
  3884     1504                     u3550:
  3885     1504                     l2840:
  3886     1504  0870               	movf	___lwdiv@divisor,w
  3887     1505  02F2               	subwf	___lwdiv@dividend,f
  3888     1506  0871               	movf	___lwdiv@divisor+1,w
  3889     1507  1C03               	skipc
  3890     1508  03F3               	decf	___lwdiv@dividend+1,f
  3891     1509  02F3               	subwf	___lwdiv@dividend+1,f
  3892     150A                     l2842:
  3893     150A  1474               	bsf	___lwdiv@quotient,0
  3894     150B                     l2844:
  3895     150B  3001               	movlw	1
  3896     150C                     u3565:
  3897     150C  1003               	clrc
  3898     150D  0CF1               	rrf	___lwdiv@divisor+1,f
  3899     150E  0CF0               	rrf	___lwdiv@divisor,f
  3900     150F  3EFF               	addlw	-1
  3901     1510  1D03               	skipz
  3902     1511  2D0C               	goto	u3565
  3903     1512                     l2846:
  3904     1512  3001               	movlw	1
  3905     1513  02F6               	subwf	___lwdiv@counter,f
  3906     1514  1D03               	btfss	3,2
  3907     1515  2D17               	goto	u3571
  3908     1516  2D18               	goto	u3570
  3909     1517                     u3571:
  3910     1517  2CF3               	goto	l2838
  3911     1518                     u3570:
  3912     1518                     l2848:
  3913     1518  0875               	movf	___lwdiv@quotient+1,w
  3914     1519  00F1               	movwf	?___lwdiv+1
  3915     151A  0874               	movf	___lwdiv@quotient,w
  3916     151B  00F0               	movwf	?___lwdiv
  3917     151C                     l687:
  3918     151C  0008               	return
  3919     151D                     __end_of___lwdiv:
  3920                           
  3921                           	psect	text13
  3922     12C8                     __ptext13:	
  3923 ;; *************** function _Use_Channel *****************
  3924 ;; Defined at:
  3925 ;;		line 54 in file "Sensors_Control.c"
  3926 ;; Parameters:    Size  Location     Type
  3927 ;;  select          2    0[COMMON] int 
  3928 ;; Auto vars:     Size  Location     Type
  3929 ;;		None
  3930 ;; Return value:  Size  Location     Type
  3931 ;;                  2    0[COMMON] int 
  3932 ;; Registers used:
  3933 ;;		wreg, status,2, status,0
  3934 ;; Tracked objects:
  3935 ;;		On entry : 0/0
  3936 ;;		On exit  : 0/0
  3937 ;;		Unchanged: 0/0
  3938 ;; Data sizes:     COMMON   BANK0   BANK1   BANK3   BANK2
  3939 ;;      Params:         2       0       0       0       0
  3940 ;;      Locals:         0       0       0       0       0
  3941 ;;      Temps:          1       0       0       0       0
  3942 ;;      Totals:         3       0       0       0       0
  3943 ;;Total ram usage:        3 bytes
  3944 ;; Hardware stack levels used: 1
  3945 ;; This function calls:
  3946 ;;		Nothing
  3947 ;; This function is called by:
  3948 ;;		_function_Environment
  3949 ;; This function uses a non-reentrant model
  3950 ;;
  3951                           
  3952     12C8                     _Use_Channel:	
  3953                           ;psect for function _Use_Channel
  3954                           
  3955     12C8                     l3244:	
  3956                           ;incstack = 0
  3957                           ; Regs used in _Use_Channel: [wreg+status,2+status,0]
  3958                           
  3959                           
  3960                           ;Sensors_Control.c: 55:     ADCON0bits.CHS = (0x0F & select);
  3961     12C8  0870               	movf	Use_Channel@select,w
  3962     12C9  390F               	andlw	15
  3963     12CA  00F2               	movwf	??_Use_Channel
  3964     12CB  0DF2               	rlf	??_Use_Channel,f
  3965     12CC  0DF2               	rlf	??_Use_Channel,f
  3966     12CD  1283               	bcf	3,5	;RP0=0, select bank0
  3967     12CE  1303               	bcf	3,6	;RP1=0, select bank0
  3968     12CF  081F               	movf	31,w	;volatile
  3969     12D0  0672               	xorwf	??_Use_Channel,w
  3970     12D1  39C3               	andlw	-61
  3971     12D2  0672               	xorwf	??_Use_Channel,w
  3972     12D3  009F               	movwf	31	;volatile
  3973     12D4                     l3246:
  3974                           
  3975                           ;Sensors_Control.c: 56:     ADCON0bits.ADON = 1;
  3976     12D4  141F               	bsf	31,0	;volatile
  3977     12D5                     l3248:
  3978                           
  3979                           ;Sensors_Control.c: 57:     _delay((unsigned long)((30)*(8000000/4000000.0)));
  3980     12D5  3013               	movlw	19
  3981     12D6  00F2               	movwf	??_Use_Channel
  3982     12D7                     u5797:
  3983     12D7  0BF2               	decfsz	??_Use_Channel,f
  3984     12D8  2AD7               	goto	u5797
  3985     12D9  2ADA               	nop2
  3986     12DA                     l3250:
  3987                           
  3988                           ;Sensors_Control.c: 58:     ADCON0bits.GO = 1;
  3989     12DA  1283               	bcf	3,5	;RP0=0, select bank0
  3990     12DB  1303               	bcf	3,6	;RP1=0, select bank0
  3991     12DC  149F               	bsf	31,1	;volatile
  3992     12DD                     l289:	
  3993                           ;Sensors_Control.c: 59:     while (ADCON0bits.GO);
  3994                           
  3995     12DD  189F               	btfsc	31,1	;volatile
  3996     12DE  2AE0               	goto	u4291
  3997     12DF  2AE1               	goto	u4290
  3998     12E0                     u4291:
  3999     12E0  2ADD               	goto	l289
  4000     12E1                     u4290:
  4001     12E1                     l291:
  4002                           
  4003                           ;Sensors_Control.c: 60:     ADCON0bits.ADON = 0;
  4004     12E1  101F               	bcf	31,0	;volatile
  4005     12E2                     l3252:
  4006                           
  4007                           ;Sensors_Control.c: 63:     return ((ADRESH << 8) | ADRESL);
  4008     12E2  081E               	movf	30,w	;volatile
  4009     12E3  00F1               	movwf	?_Use_Channel+1
  4010     12E4  1683               	bsf	3,5	;RP0=1, select bank1
  4011     12E5  1303               	bcf	3,6	;RP1=0, select bank1
  4012     12E6  081E               	movf	30,w	;volatile
  4013     12E7  00F0               	movwf	?_Use_Channel
  4014     12E8                     l292:
  4015     12E8  0008               	return
  4016     12E9                     __end_of_Use_Channel:
  4017                           
  4018                           	psect	text14
  4019     0E75                     __ptext14:	
  4020 ;; *************** function _Calculus_Temperature *****************
  4021 ;; Defined at:
  4022 ;;		line 75 in file "Sensors_Control.c"
  4023 ;; Parameters:    Size  Location     Type
  4024 ;;  temperature     2   20[BANK1 ] int 
  4025 ;; Auto vars:     Size  Location     Type
  4026 ;;  tempC           4   40[BANK1 ] float 
  4027 ;;  a               4   24[BANK1 ] long 
  4028 ;;  tempF           4    0        float 
  4029 ;; Return value:  Size  Location     Type
  4030 ;;                  2   20[BANK1 ] int 
  4031 ;; Registers used:
  4032 ;;		wreg, fsr0l, fsr0h, status,2, status,0, btemp+1, pclath, cstack
  4033 ;; Tracked objects:
  4034 ;;		On entry : 0/0
  4035 ;;		On exit  : 0/0
  4036 ;;		Unchanged: 0/0
  4037 ;; Data sizes:     COMMON   BANK0   BANK1   BANK3   BANK2
  4038 ;;      Params:         0       0       2       0       0
  4039 ;;      Locals:         0       0      20       0       0
  4040 ;;      Temps:          0       0       2       0       0
  4041 ;;      Totals:         0       0      24       0       0
  4042 ;;Total ram usage:       24 bytes
  4043 ;; Hardware stack levels used: 1
  4044 ;; Hardware stack levels required when called: 4
  4045 ;; This function calls:
  4046 ;;		___fladd
  4047 ;;		___fldiv
  4048 ;;		___fltol
  4049 ;;		___xxtofl
  4050 ;;		_log
  4051 ;; This function is called by:
  4052 ;;		_function_Environment
  4053 ;; This function uses a non-reentrant model
  4054 ;;
  4055                           
  4056     0E75                     _Calculus_Temperature:	
  4057                           ;psect for function _Calculus_Temperature
  4058                           
  4059     0E75                     l3994:	
  4060                           ;incstack = 0
  4061                           ; Regs used in _Calculus_Temperature: [wreg-fsr0h+status,2+status,0+btemp+1+pclath+cstac
      +                          k]
  4062                           
  4063                           
  4064                           ;Sensors_Control.c: 76:     long a = 1023 - temperature;
  4065     0E75  30FF               	movlw	255
  4066     0E76  1683               	bsf	3,5	;RP0=1, select bank1
  4067     0E77  1303               	bcf	3,6	;RP1=0, select bank1
  4068     0E78  00B6               	movwf	??_Calculus_Temperature^(0+128)
  4069     0E79  3003               	movlw	3
  4070     0E7A  00B7               	movwf	(??_Calculus_Temperature^(0+128)+1)
  4071     0E7B  0834               	movf	Calculus_Temperature@temperature^(0+128),w
  4072     0E7C  0236               	subwf	??_Calculus_Temperature^(0+128),w
  4073     0E7D  00B8               	movwf	Calculus_Temperature@a^(0+128)
  4074     0E7E  0835               	movf	(Calculus_Temperature@temperature+1)^(0+128),w
  4075     0E7F  1C03               	skipc
  4076     0E80  0A35               	incf	(Calculus_Temperature@temperature+1)^(0+128),w
  4077     0E81  0237               	subwf	(??_Calculus_Temperature+1)^(0+128),w
  4078     0E82  00B9               	movwf	(Calculus_Temperature@a+1)^(0+128)
  4079     0E83  01BA               	clrf	(Calculus_Temperature@a^(0+128)+2)
  4080     0E84  1BB9               	btfsc	(Calculus_Temperature@a^(0+128)+1),7
  4081     0E85  03BA               	decf	(Calculus_Temperature@a+2)^(0+128),f
  4082     0E86  083A               	movf	(Calculus_Temperature@a^(0+128)+2),w
  4083     0E87  00BB               	movwf	(Calculus_Temperature@a+3)^(0+128)
  4084     0E88                     l3996:
  4085                           
  4086                           ;Sensors_Control.c: 78:     float tempC = (float)(4090 / (log((1025.0 * 10 / a - 10) / 1
      +                          0) + 4090 / 298.0) - 273.0);
  4087     0E88  30C1               	movlw	193
  4088     0E89  1283               	bcf	3,5	;RP0=0, select bank0
  4089     0E8A  1303               	bcf	3,6	;RP1=0, select bank0
  4090     0E8B  00DC               	movwf	___fladd@b+3
  4091     0E8C  3020               	movlw	32
  4092     0E8D  00DB               	movwf	___fladd@b+2
  4093     0E8E  3000               	movlw	0
  4094     0E8F  00DA               	movwf	___fladd@b+1
  4095     0E90  3000               	movlw	0
  4096     0E91  00D9               	movwf	___fladd@b
  4097     0E92  1683               	bsf	3,5	;RP0=1, select bank1
  4098     0E93  1303               	bcf	3,6	;RP1=0, select bank1
  4099     0E94  083B               	movf	(Calculus_Temperature@a+3)^(0+128),w
  4100     0E95  00F3               	movwf	___xxtofl@val+3
  4101     0E96  083A               	movf	(Calculus_Temperature@a+2)^(0+128),w
  4102     0E97  00F2               	movwf	___xxtofl@val+2
  4103     0E98  0839               	movf	(Calculus_Temperature@a+1)^(0+128),w
  4104     0E99  00F1               	movwf	___xxtofl@val+1
  4105     0E9A  0838               	movf	Calculus_Temperature@a^(0+128),w
  4106     0E9B  00F0               	movwf	___xxtofl@val
  4107     0E9C  3001               	movlw	1
  4108     0E9D  120A  158A  21C9  120A  158A  	fcall	___xxtofl
  4109     0EA2  0873               	movf	?___xxtofl+3,w
  4110     0EA3  1283               	bcf	3,5	;RP0=0, select bank0
  4111     0EA4  1303               	bcf	3,6	;RP1=0, select bank0
  4112     0EA5  00C2               	movwf	___fldiv@a+3
  4113     0EA6  0872               	movf	?___xxtofl+2,w
  4114     0EA7  00C1               	movwf	___fldiv@a+2
  4115     0EA8  0871               	movf	?___xxtofl+1,w
  4116     0EA9  00C0               	movwf	___fldiv@a+1
  4117     0EAA  0870               	movf	?___xxtofl,w
  4118     0EAB  00BF               	movwf	___fldiv@a
  4119     0EAC  3046               	movlw	70
  4120     0EAD  00C6               	movwf	___fldiv@b+3
  4121     0EAE  3020               	movlw	32
  4122     0EAF  00C5               	movwf	___fldiv@b+2
  4123     0EB0  3028               	movlw	40
  4124     0EB1  00C4               	movwf	___fldiv@b+1
  4125     0EB2  3000               	movlw	0
  4126     0EB3  00C3               	movwf	___fldiv@b
  4127     0EB4  120A  118A  2070  120A  158A  	fcall	___fldiv
  4128     0EB9  1283               	bcf	3,5	;RP0=0, select bank0
  4129     0EBA  1303               	bcf	3,6	;RP1=0, select bank0
  4130     0EBB  0842               	movf	?___fldiv+3,w
  4131     0EBC  00E0               	movwf	___fladd@a+3
  4132     0EBD  0841               	movf	?___fldiv+2,w
  4133     0EBE  00DF               	movwf	___fladd@a+2
  4134     0EBF  0840               	movf	?___fldiv+1,w
  4135     0EC0  00DE               	movwf	___fladd@a+1
  4136     0EC1  083F               	movf	?___fldiv,w
  4137     0EC2  00DD               	movwf	___fladd@a
  4138     0EC3  120A  118A  223F  120A  158A  	fcall	___fladd
  4139     0EC8  1283               	bcf	3,5	;RP0=0, select bank0
  4140     0EC9  1303               	bcf	3,6	;RP1=0, select bank0
  4141     0ECA  085C               	movf	?___fladd+3,w
  4142     0ECB  1683               	bsf	3,5	;RP0=1, select bank1
  4143     0ECC  1303               	bcf	3,6	;RP1=0, select bank1
  4144     0ECD  00BF               	movwf	(_Calculus_Temperature$1076+3)^(0+128)
  4145     0ECE  1283               	bcf	3,5	;RP0=0, select bank0
  4146     0ECF  1303               	bcf	3,6	;RP1=0, select bank0
  4147     0ED0  085B               	movf	?___fladd+2,w
  4148     0ED1  1683               	bsf	3,5	;RP0=1, select bank1
  4149     0ED2  1303               	bcf	3,6	;RP1=0, select bank1
  4150     0ED3  00BE               	movwf	(_Calculus_Temperature$1076+2)^(0+128)
  4151     0ED4  1283               	bcf	3,5	;RP0=0, select bank0
  4152     0ED5  1303               	bcf	3,6	;RP1=0, select bank0
  4153     0ED6  085A               	movf	?___fladd+1,w
  4154     0ED7  1683               	bsf	3,5	;RP0=1, select bank1
  4155     0ED8  1303               	bcf	3,6	;RP1=0, select bank1
  4156     0ED9  00BD               	movwf	(_Calculus_Temperature$1076+1)^(0+128)
  4157     0EDA  1283               	bcf	3,5	;RP0=0, select bank0
  4158     0EDB  1303               	bcf	3,6	;RP1=0, select bank0
  4159     0EDC  0859               	movf	?___fladd,w
  4160     0EDD  1683               	bsf	3,5	;RP0=1, select bank1
  4161     0EDE  1303               	bcf	3,6	;RP1=0, select bank1
  4162     0EDF  00BC               	movwf	_Calculus_Temperature$1076^(0+128)
  4163     0EE0                     l3998:
  4164                           
  4165                           ;Sensors_Control.c: 78:     float tempC = (float)(4090 / (log((1025.0 * 10 / a - 10) / 1
      +                          0) + 4090 / 298.0) - 273.0);
  4166     0EE0  3041               	movlw	65
  4167     0EE1  1283               	bcf	3,5	;RP0=0, select bank0
  4168     0EE2  1303               	bcf	3,6	;RP1=0, select bank0
  4169     0EE3  00C2               	movwf	___fldiv@a+3
  4170     0EE4  3020               	movlw	32
  4171     0EE5  00C1               	movwf	___fldiv@a+2
  4172     0EE6  3000               	movlw	0
  4173     0EE7  00C0               	movwf	___fldiv@a+1
  4174     0EE8  3000               	movlw	0
  4175     0EE9  00BF               	movwf	___fldiv@a
  4176     0EEA  1683               	bsf	3,5	;RP0=1, select bank1
  4177     0EEB  1303               	bcf	3,6	;RP1=0, select bank1
  4178     0EEC  083F               	movf	(_Calculus_Temperature$1076+3)^(0+128),w
  4179     0EED  1283               	bcf	3,5	;RP0=0, select bank0
  4180     0EEE  1303               	bcf	3,6	;RP1=0, select bank0
  4181     0EEF  00C6               	movwf	___fldiv@b+3
  4182     0EF0  1683               	bsf	3,5	;RP0=1, select bank1
  4183     0EF1  1303               	bcf	3,6	;RP1=0, select bank1
  4184     0EF2  083E               	movf	(_Calculus_Temperature$1076+2)^(0+128),w
  4185     0EF3  1283               	bcf	3,5	;RP0=0, select bank0
  4186     0EF4  1303               	bcf	3,6	;RP1=0, select bank0
  4187     0EF5  00C5               	movwf	___fldiv@b+2
  4188     0EF6  1683               	bsf	3,5	;RP0=1, select bank1
  4189     0EF7  1303               	bcf	3,6	;RP1=0, select bank1
  4190     0EF8  083D               	movf	(_Calculus_Temperature$1076+1)^(0+128),w
  4191     0EF9  1283               	bcf	3,5	;RP0=0, select bank0
  4192     0EFA  1303               	bcf	3,6	;RP1=0, select bank0
  4193     0EFB  00C4               	movwf	___fldiv@b+1
  4194     0EFC  1683               	bsf	3,5	;RP0=1, select bank1
  4195     0EFD  1303               	bcf	3,6	;RP1=0, select bank1
  4196     0EFE  083C               	movf	_Calculus_Temperature$1076^(0+128),w
  4197     0EFF  1283               	bcf	3,5	;RP0=0, select bank0
  4198     0F00  1303               	bcf	3,6	;RP1=0, select bank0
  4199     0F01  00C3               	movwf	___fldiv@b
  4200     0F02  120A  118A  2070  120A  158A  	fcall	___fldiv
  4201     0F07  1283               	bcf	3,5	;RP0=0, select bank0
  4202     0F08  1303               	bcf	3,6	;RP1=0, select bank0
  4203     0F09  0842               	movf	?___fldiv+3,w
  4204     0F0A  1683               	bsf	3,5	;RP0=1, select bank1
  4205     0F0B  1303               	bcf	3,6	;RP1=0, select bank1
  4206     0F0C  00B3               	movwf	(log@x+3)^(0+128)
  4207     0F0D  1283               	bcf	3,5	;RP0=0, select bank0
  4208     0F0E  1303               	bcf	3,6	;RP1=0, select bank0
  4209     0F0F  0841               	movf	?___fldiv+2,w
  4210     0F10  1683               	bsf	3,5	;RP0=1, select bank1
  4211     0F11  1303               	bcf	3,6	;RP1=0, select bank1
  4212     0F12  00B2               	movwf	(log@x+2)^(0+128)
  4213     0F13  1283               	bcf	3,5	;RP0=0, select bank0
  4214     0F14  1303               	bcf	3,6	;RP1=0, select bank0
  4215     0F15  0840               	movf	?___fldiv+1,w
  4216     0F16  1683               	bsf	3,5	;RP0=1, select bank1
  4217     0F17  1303               	bcf	3,6	;RP1=0, select bank1
  4218     0F18  00B1               	movwf	(log@x+1)^(0+128)
  4219     0F19  1283               	bcf	3,5	;RP0=0, select bank0
  4220     0F1A  1303               	bcf	3,6	;RP1=0, select bank0
  4221     0F1B  083F               	movf	?___fldiv,w
  4222     0F1C  1683               	bsf	3,5	;RP0=1, select bank1
  4223     0F1D  1303               	bcf	3,6	;RP1=0, select bank1
  4224     0F1E  00B0               	movwf	log@x^(0+128)
  4225     0F1F  120A  158A  252F  120A  158A  	fcall	_log
  4226     0F24  1683               	bsf	3,5	;RP0=1, select bank1
  4227     0F25  1303               	bcf	3,6	;RP1=0, select bank1
  4228     0F26  0833               	movf	(?_log+3)^(0+128),w
  4229     0F27  00C3               	movwf	(_Calculus_Temperature$1077+3)^(0+128)
  4230     0F28  0832               	movf	(?_log+2)^(0+128),w
  4231     0F29  00C2               	movwf	(_Calculus_Temperature$1077+2)^(0+128)
  4232     0F2A  0831               	movf	(?_log+1)^(0+128),w
  4233     0F2B  00C1               	movwf	(_Calculus_Temperature$1077+1)^(0+128)
  4234     0F2C  0830               	movf	?_log^(0+128),w
  4235     0F2D  00C0               	movwf	_Calculus_Temperature$1077^(0+128)
  4236     0F2E                     l4000:
  4237                           
  4238                           ;Sensors_Control.c: 78:     float tempC = (float)(4090 / (log((1025.0 * 10 / a - 10) / 1
      +                          0) + 4090 / 298.0) - 273.0);
  4239     0F2E  3041               	movlw	65
  4240     0F2F  1283               	bcf	3,5	;RP0=0, select bank0
  4241     0F30  1303               	bcf	3,6	;RP1=0, select bank0
  4242     0F31  00DC               	movwf	___fladd@b+3
  4243     0F32  305B               	movlw	91
  4244     0F33  00DB               	movwf	___fladd@b+2
  4245     0F34  3098               	movlw	152
  4246     0F35  00DA               	movwf	___fladd@b+1
  4247     0F36  30EA               	movlw	234
  4248     0F37  00D9               	movwf	___fladd@b
  4249     0F38  1683               	bsf	3,5	;RP0=1, select bank1
  4250     0F39  1303               	bcf	3,6	;RP1=0, select bank1
  4251     0F3A  0843               	movf	(_Calculus_Temperature$1077+3)^(0+128),w
  4252     0F3B  1283               	bcf	3,5	;RP0=0, select bank0
  4253     0F3C  1303               	bcf	3,6	;RP1=0, select bank0
  4254     0F3D  00E0               	movwf	___fladd@a+3
  4255     0F3E  1683               	bsf	3,5	;RP0=1, select bank1
  4256     0F3F  1303               	bcf	3,6	;RP1=0, select bank1
  4257     0F40  0842               	movf	(_Calculus_Temperature$1077+2)^(0+128),w
  4258     0F41  1283               	bcf	3,5	;RP0=0, select bank0
  4259     0F42  1303               	bcf	3,6	;RP1=0, select bank0
  4260     0F43  00DF               	movwf	___fladd@a+2
  4261     0F44  1683               	bsf	3,5	;RP0=1, select bank1
  4262     0F45  1303               	bcf	3,6	;RP1=0, select bank1
  4263     0F46  0841               	movf	(_Calculus_Temperature$1077+1)^(0+128),w
  4264     0F47  1283               	bcf	3,5	;RP0=0, select bank0
  4265     0F48  1303               	bcf	3,6	;RP1=0, select bank0
  4266     0F49  00DE               	movwf	___fladd@a+1
  4267     0F4A  1683               	bsf	3,5	;RP0=1, select bank1
  4268     0F4B  1303               	bcf	3,6	;RP1=0, select bank1
  4269     0F4C  0840               	movf	_Calculus_Temperature$1077^(0+128),w
  4270     0F4D  1283               	bcf	3,5	;RP0=0, select bank0
  4271     0F4E  1303               	bcf	3,6	;RP1=0, select bank0
  4272     0F4F  00DD               	movwf	___fladd@a
  4273     0F50  120A  118A  223F  120A  158A  	fcall	___fladd
  4274     0F55  1283               	bcf	3,5	;RP0=0, select bank0
  4275     0F56  1303               	bcf	3,6	;RP1=0, select bank0
  4276     0F57  085C               	movf	?___fladd+3,w
  4277     0F58  00C2               	movwf	___fldiv@a+3
  4278     0F59  085B               	movf	?___fladd+2,w
  4279     0F5A  00C1               	movwf	___fldiv@a+2
  4280     0F5B  085A               	movf	?___fladd+1,w
  4281     0F5C  00C0               	movwf	___fldiv@a+1
  4282     0F5D  0859               	movf	?___fladd,w
  4283     0F5E  00BF               	movwf	___fldiv@a
  4284     0F5F  3045               	movlw	69
  4285     0F60  00C6               	movwf	___fldiv@b+3
  4286     0F61  307F               	movlw	127
  4287     0F62  00C5               	movwf	___fldiv@b+2
  4288     0F63  30A0               	movlw	160
  4289     0F64  00C4               	movwf	___fldiv@b+1
  4290     0F65  3000               	movlw	0
  4291     0F66  00C3               	movwf	___fldiv@b
  4292     0F67  120A  118A  2070  120A  158A  	fcall	___fldiv
  4293     0F6C  1283               	bcf	3,5	;RP0=0, select bank0
  4294     0F6D  1303               	bcf	3,6	;RP1=0, select bank0
  4295     0F6E  0842               	movf	?___fldiv+3,w
  4296     0F6F  1683               	bsf	3,5	;RP0=1, select bank1
  4297     0F70  1303               	bcf	3,6	;RP1=0, select bank1
  4298     0F71  00C7               	movwf	(_Calculus_Temperature$1078+3)^(0+128)
  4299     0F72  1283               	bcf	3,5	;RP0=0, select bank0
  4300     0F73  1303               	bcf	3,6	;RP1=0, select bank0
  4301     0F74  0841               	movf	?___fldiv+2,w
  4302     0F75  1683               	bsf	3,5	;RP0=1, select bank1
  4303     0F76  1303               	bcf	3,6	;RP1=0, select bank1
  4304     0F77  00C6               	movwf	(_Calculus_Temperature$1078+2)^(0+128)
  4305     0F78  1283               	bcf	3,5	;RP0=0, select bank0
  4306     0F79  1303               	bcf	3,6	;RP1=0, select bank0
  4307     0F7A  0840               	movf	?___fldiv+1,w
  4308     0F7B  1683               	bsf	3,5	;RP0=1, select bank1
  4309     0F7C  1303               	bcf	3,6	;RP1=0, select bank1
  4310     0F7D  00C5               	movwf	(_Calculus_Temperature$1078+1)^(0+128)
  4311     0F7E  1283               	bcf	3,5	;RP0=0, select bank0
  4312     0F7F  1303               	bcf	3,6	;RP1=0, select bank0
  4313     0F80  083F               	movf	?___fldiv,w
  4314     0F81  1683               	bsf	3,5	;RP0=1, select bank1
  4315     0F82  1303               	bcf	3,6	;RP1=0, select bank1
  4316     0F83  00C4               	movwf	_Calculus_Temperature$1078^(0+128)
  4317     0F84                     l4002:
  4318                           
  4319                           ;Sensors_Control.c: 78:     float tempC = (float)(4090 / (log((1025.0 * 10 / a - 10) / 1
      +                          0) + 4090 / 298.0) - 273.0);
  4320     0F84  30C3               	movlw	195
  4321     0F85  1283               	bcf	3,5	;RP0=0, select bank0
  4322     0F86  1303               	bcf	3,6	;RP1=0, select bank0
  4323     0F87  00DC               	movwf	___fladd@b+3
  4324     0F88  3088               	movlw	136
  4325     0F89  00DB               	movwf	___fladd@b+2
  4326     0F8A  3080               	movlw	128
  4327     0F8B  00DA               	movwf	___fladd@b+1
  4328     0F8C  3000               	movlw	0
  4329     0F8D  00D9               	movwf	___fladd@b
  4330     0F8E  1683               	bsf	3,5	;RP0=1, select bank1
  4331     0F8F  1303               	bcf	3,6	;RP1=0, select bank1
  4332     0F90  0847               	movf	(_Calculus_Temperature$1078+3)^(0+128),w
  4333     0F91  1283               	bcf	3,5	;RP0=0, select bank0
  4334     0F92  1303               	bcf	3,6	;RP1=0, select bank0
  4335     0F93  00E0               	movwf	___fladd@a+3
  4336     0F94  1683               	bsf	3,5	;RP0=1, select bank1
  4337     0F95  1303               	bcf	3,6	;RP1=0, select bank1
  4338     0F96  0846               	movf	(_Calculus_Temperature$1078+2)^(0+128),w
  4339     0F97  1283               	bcf	3,5	;RP0=0, select bank0
  4340     0F98  1303               	bcf	3,6	;RP1=0, select bank0
  4341     0F99  00DF               	movwf	___fladd@a+2
  4342     0F9A  1683               	bsf	3,5	;RP0=1, select bank1
  4343     0F9B  1303               	bcf	3,6	;RP1=0, select bank1
  4344     0F9C  0845               	movf	(_Calculus_Temperature$1078+1)^(0+128),w
  4345     0F9D  1283               	bcf	3,5	;RP0=0, select bank0
  4346     0F9E  1303               	bcf	3,6	;RP1=0, select bank0
  4347     0F9F  00DE               	movwf	___fladd@a+1
  4348     0FA0  1683               	bsf	3,5	;RP0=1, select bank1
  4349     0FA1  1303               	bcf	3,6	;RP1=0, select bank1
  4350     0FA2  0844               	movf	_Calculus_Temperature$1078^(0+128),w
  4351     0FA3  1283               	bcf	3,5	;RP0=0, select bank0
  4352     0FA4  1303               	bcf	3,6	;RP1=0, select bank0
  4353     0FA5  00DD               	movwf	___fladd@a
  4354     0FA6  120A  118A  223F  120A  158A  	fcall	___fladd
  4355     0FAB  1283               	bcf	3,5	;RP0=0, select bank0
  4356     0FAC  1303               	bcf	3,6	;RP1=0, select bank0
  4357     0FAD  085C               	movf	?___fladd+3,w
  4358     0FAE  1683               	bsf	3,5	;RP0=1, select bank1
  4359     0FAF  1303               	bcf	3,6	;RP1=0, select bank1
  4360     0FB0  00CB               	movwf	(Calculus_Temperature@tempC+3)^(0+128)
  4361     0FB1  1283               	bcf	3,5	;RP0=0, select bank0
  4362     0FB2  1303               	bcf	3,6	;RP1=0, select bank0
  4363     0FB3  085B               	movf	?___fladd+2,w
  4364     0FB4  1683               	bsf	3,5	;RP0=1, select bank1
  4365     0FB5  1303               	bcf	3,6	;RP1=0, select bank1
  4366     0FB6  00CA               	movwf	(Calculus_Temperature@tempC+2)^(0+128)
  4367     0FB7  1283               	bcf	3,5	;RP0=0, select bank0
  4368     0FB8  1303               	bcf	3,6	;RP1=0, select bank0
  4369     0FB9  085A               	movf	?___fladd+1,w
  4370     0FBA  1683               	bsf	3,5	;RP0=1, select bank1
  4371     0FBB  1303               	bcf	3,6	;RP1=0, select bank1
  4372     0FBC  00C9               	movwf	(Calculus_Temperature@tempC+1)^(0+128)
  4373     0FBD  1283               	bcf	3,5	;RP0=0, select bank0
  4374     0FBE  1303               	bcf	3,6	;RP1=0, select bank0
  4375     0FBF  0859               	movf	?___fladd,w
  4376     0FC0  1683               	bsf	3,5	;RP0=1, select bank1
  4377     0FC1  1303               	bcf	3,6	;RP1=0, select bank1
  4378     0FC2  00C8               	movwf	Calculus_Temperature@tempC^(0+128)
  4379     0FC3                     l4004:
  4380     0FC3  3043               	movlw	67
  4381     0FC4  1283               	bcf	3,5	;RP0=0, select bank0
  4382     0FC5  1303               	bcf	3,6	;RP1=0, select bank0
  4383     0FC6  00DC               	movwf	___fladd@b+3
  4384     0FC7  3088               	movlw	136
  4385     0FC8  00DB               	movwf	___fladd@b+2
  4386     0FC9  3093               	movlw	147
  4387     0FCA  00DA               	movwf	___fladd@b+1
  4388     0FCB  3033               	movlw	51
  4389     0FCC  00D9               	movwf	___fladd@b
  4390     0FCD  1683               	bsf	3,5	;RP0=1, select bank1
  4391     0FCE  1303               	bcf	3,6	;RP1=0, select bank1
  4392     0FCF  084B               	movf	(Calculus_Temperature@tempC+3)^(0+128),w
  4393     0FD0  1283               	bcf	3,5	;RP0=0, select bank0
  4394     0FD1  1303               	bcf	3,6	;RP1=0, select bank0
  4395     0FD2  00E0               	movwf	___fladd@a+3
  4396     0FD3  1683               	bsf	3,5	;RP0=1, select bank1
  4397     0FD4  1303               	bcf	3,6	;RP1=0, select bank1
  4398     0FD5  084A               	movf	(Calculus_Temperature@tempC+2)^(0+128),w
  4399     0FD6  1283               	bcf	3,5	;RP0=0, select bank0
  4400     0FD7  1303               	bcf	3,6	;RP1=0, select bank0
  4401     0FD8  00DF               	movwf	___fladd@a+2
  4402     0FD9  1683               	bsf	3,5	;RP0=1, select bank1
  4403     0FDA  1303               	bcf	3,6	;RP1=0, select bank1
  4404     0FDB  0849               	movf	(Calculus_Temperature@tempC+1)^(0+128),w
  4405     0FDC  1283               	bcf	3,5	;RP0=0, select bank0
  4406     0FDD  1303               	bcf	3,6	;RP1=0, select bank0
  4407     0FDE  00DE               	movwf	___fladd@a+1
  4408     0FDF  1683               	bsf	3,5	;RP0=1, select bank1
  4409     0FE0  1303               	bcf	3,6	;RP1=0, select bank1
  4410     0FE1  0848               	movf	Calculus_Temperature@tempC^(0+128),w
  4411     0FE2  1283               	bcf	3,5	;RP0=0, select bank0
  4412     0FE3  1303               	bcf	3,6	;RP1=0, select bank0
  4413     0FE4  00DD               	movwf	___fladd@a
  4414     0FE5  120A  118A  223F  120A  158A  	fcall	___fladd
  4415     0FEA                     l4006:
  4416                           
  4417                           ;Sensors_Control.c: 80:     return (int)tempC;
  4418     0FEA  1683               	bsf	3,5	;RP0=1, select bank1
  4419     0FEB  1303               	bcf	3,6	;RP1=0, select bank1
  4420     0FEC  084B               	movf	(Calculus_Temperature@tempC+3)^(0+128),w
  4421     0FED  00F3               	movwf	___fltol@f1+3
  4422     0FEE  084A               	movf	(Calculus_Temperature@tempC+2)^(0+128),w
  4423     0FEF  00F2               	movwf	___fltol@f1+2
  4424     0FF0  0849               	movf	(Calculus_Temperature@tempC+1)^(0+128),w
  4425     0FF1  00F1               	movwf	___fltol@f1+1
  4426     0FF2  0848               	movf	Calculus_Temperature@tempC^(0+128),w
  4427     0FF3  00F0               	movwf	___fltol@f1
  4428     0FF4  160A  118A  25BF  120A  158A  	fcall	___fltol
  4429     0FF9  0871               	movf	?___fltol+1,w
  4430     0FFA  1683               	bsf	3,5	;RP0=1, select bank1
  4431     0FFB  1303               	bcf	3,6	;RP1=0, select bank1
  4432     0FFC  00B5               	movwf	(?_Calculus_Temperature+1)^(0+128)
  4433     0FFD  0870               	movf	?___fltol,w
  4434     0FFE  00B4               	movwf	?_Calculus_Temperature^(0+128)
  4435     0FFF                     l295:
  4436     0FFF  0008               	return
  4437     1000                     __end_of_Calculus_Temperature:
  4438                           
  4439                           	psect	text15
  4440     0D2F                     __ptext15:	
  4441 ;; *************** function _log *****************
  4442 ;; Defined at:
  4443 ;;		line 5 in file "C:\Program Files\Microchip\xc8\v2.41\pic\sources\c90\common\log.c"
  4444 ;; Parameters:    Size  Location     Type
  4445 ;;  x               4   16[BANK1 ] int 
  4446 ;; Auto vars:     Size  Location     Type
  4447 ;;  exponent        2   77[BANK0 ] int 
  4448 ;; Return value:  Size  Location     Type
  4449 ;;                  4   16[BANK1 ] int 
  4450 ;; Registers used:
  4451 ;;		wreg, fsr0l, fsr0h, status,2, status,0, btemp+1, pclath, cstack
  4452 ;; Tracked objects:
  4453 ;;		On entry : 0/0
  4454 ;;		On exit  : 0/0
  4455 ;;		Unchanged: 0/0
  4456 ;; Data sizes:     COMMON   BANK0   BANK1   BANK3   BANK2
  4457 ;;      Params:         0       0       4       0       0
  4458 ;;      Locals:         0       2       0       0       0
  4459 ;;      Temps:          0       0       0       0       0
  4460 ;;      Totals:         0       2       4       0       0
  4461 ;;Total ram usage:        6 bytes
  4462 ;; Hardware stack levels used: 1
  4463 ;; Hardware stack levels required when called: 3
  4464 ;; This function calls:
  4465 ;;		___fladd
  4466 ;;		___fleq
  4467 ;;		___flge
  4468 ;;		___flmul
  4469 ;;		___xxtofl
  4470 ;;		_eval_poly
  4471 ;;		_frexp
  4472 ;; This function is called by:
  4473 ;;		_Calculus_Temperature
  4474 ;; This function uses a non-reentrant model
  4475 ;;
  4476                           
  4477     0D2F                     _log:	
  4478                           ;psect for function _log
  4479                           
  4480     0D2F                     l3972:	
  4481                           ;incstack = 0
  4482                           ; Regs used in _log: [wreg-fsr0h+status,2+status,0+btemp+1+pclath+cstack]
  4483                           
  4484     0D2F  1683               	bsf	3,5	;RP0=1, select bank1
  4485     0D30  1303               	bcf	3,6	;RP1=0, select bank1
  4486     0D31  0833               	movf	(log@x+3)^(0+128),w
  4487     0D32  00F3               	movwf	___flge@ff1+3
  4488     0D33  0832               	movf	(log@x+2)^(0+128),w
  4489     0D34  00F2               	movwf	___flge@ff1+2
  4490     0D35  0831               	movf	(log@x+1)^(0+128),w
  4491     0D36  00F1               	movwf	___flge@ff1+1
  4492     0D37  0830               	movf	log@x^(0+128),w
  4493     0D38  00F0               	movwf	___flge@ff1
  4494     0D39  3000               	movlw	0
  4495     0D3A  00F7               	movwf	___flge@ff2+3
  4496     0D3B  3000               	movlw	0
  4497     0D3C  00F6               	movwf	___flge@ff2+2
  4498     0D3D  3000               	movlw	0
  4499     0D3E  00F5               	movwf	___flge@ff2+1
  4500     0D3F  3000               	movlw	0
  4501     0D40  00F4               	movwf	___flge@ff2
  4502     0D41  160A  118A  26B2  120A  158A  	fcall	___flge
  4503     0D46  1803               	btfsc	3,0
  4504     0D47  2D49               	goto	u5571
  4505     0D48  2D4A               	goto	u5570
  4506     0D49                     u5571:
  4507     0D49  2D59               	goto	l3978
  4508     0D4A                     u5570:
  4509     0D4A                     l3974:
  4510     0D4A  3021               	movlw	33
  4511     0D4B  1683               	bsf	3,5	;RP0=1, select bank1
  4512     0D4C  1303               	bcf	3,6	;RP1=0, select bank1
  4513     0D4D  00D3               	movwf	_errno^(0+128)
  4514     0D4E  3000               	movlw	0
  4515     0D4F  00D4               	movwf	(_errno^(0+128)+1)
  4516     0D50  3000               	movlw	0
  4517     0D51  00B3               	movwf	(?_log+3)^(0+128)
  4518     0D52  3000               	movlw	0
  4519     0D53  00B2               	movwf	(?_log+2)^(0+128)
  4520     0D54  3000               	movlw	0
  4521     0D55  00B1               	movwf	(?_log+1)^(0+128)
  4522     0D56  3000               	movlw	0
  4523     0D57  00B0               	movwf	?_log^(0+128)
  4524     0D58  2E74               	goto	l875
  4525     0D59                     l3978:
  4526     0D59  1683               	bsf	3,5	;RP0=1, select bank1
  4527     0D5A  1303               	bcf	3,6	;RP1=0, select bank1
  4528     0D5B  0833               	movf	(log@x+3)^(0+128),w
  4529     0D5C  00F3               	movwf	___fleq@ff1+3
  4530     0D5D  0832               	movf	(log@x+2)^(0+128),w
  4531     0D5E  00F2               	movwf	___fleq@ff1+2
  4532     0D5F  0831               	movf	(log@x+1)^(0+128),w
  4533     0D60  00F1               	movwf	___fleq@ff1+1
  4534     0D61  0830               	movf	log@x^(0+128),w
  4535     0D62  00F0               	movwf	___fleq@ff1
  4536     0D63  3000               	movlw	0
  4537     0D64  00F7               	movwf	___fleq@ff2+3
  4538     0D65  3000               	movlw	0
  4539     0D66  00F6               	movwf	___fleq@ff2+2
  4540     0D67  3000               	movlw	0
  4541     0D68  00F5               	movwf	___fleq@ff2+1
  4542     0D69  3000               	movlw	0
  4543     0D6A  00F4               	movwf	___fleq@ff2
  4544     0D6B  120A  158A  20C8  120A  158A  	fcall	___fleq
  4545     0D70  1C03               	btfss	3,0
  4546     0D71  2D73               	goto	u5581
  4547     0D72  2D74               	goto	u5580
  4548     0D73                     u5581:
  4549     0D73  2D83               	goto	l3984
  4550     0D74                     u5580:
  4551     0D74                     l3980:
  4552     0D74  3022               	movlw	34
  4553     0D75  1683               	bsf	3,5	;RP0=1, select bank1
  4554     0D76  1303               	bcf	3,6	;RP1=0, select bank1
  4555     0D77  00D3               	movwf	_errno^(0+128)
  4556     0D78  3000               	movlw	0
  4557     0D79  00D4               	movwf	(_errno^(0+128)+1)
  4558     0D7A  3000               	movlw	0
  4559     0D7B  00B3               	movwf	(?_log+3)^(0+128)
  4560     0D7C  3000               	movlw	0
  4561     0D7D  00B2               	movwf	(?_log+2)^(0+128)
  4562     0D7E  3000               	movlw	0
  4563     0D7F  00B1               	movwf	(?_log+1)^(0+128)
  4564     0D80  3000               	movlw	0
  4565     0D81  00B0               	movwf	?_log^(0+128)
  4566     0D82  2E74               	goto	l875
  4567     0D83                     l3984:
  4568     0D83  30BF               	movlw	191
  4569     0D84  1283               	bcf	3,5	;RP0=0, select bank0
  4570     0D85  1303               	bcf	3,6	;RP1=0, select bank0
  4571     0D86  00DC               	movwf	___fladd@b+3
  4572     0D87  3080               	movlw	128
  4573     0D88  00DB               	movwf	___fladd@b+2
  4574     0D89  3000               	movlw	0
  4575     0D8A  00DA               	movwf	___fladd@b+1
  4576     0D8B  3000               	movlw	0
  4577     0D8C  00D9               	movwf	___fladd@b
  4578     0D8D  3040               	movlw	64
  4579     0D8E  00A8               	movwf	___flmul@b+3
  4580     0D8F  3000               	movlw	0
  4581     0D90  00A7               	movwf	___flmul@b+2
  4582     0D91  3000               	movlw	0
  4583     0D92  00A6               	movwf	___flmul@b+1
  4584     0D93  3000               	movlw	0
  4585     0D94  00A5               	movwf	___flmul@b
  4586     0D95  306D               	movlw	(low (log@exponent| 0))& (0+255)
  4587     0D96  00A4               	movwf	frexp@eptr
  4588     0D97  1683               	bsf	3,5	;RP0=1, select bank1
  4589     0D98  1303               	bcf	3,6	;RP1=0, select bank1
  4590     0D99  0833               	movf	(log@x+3)^(0+128),w
  4591     0D9A  1283               	bcf	3,5	;RP0=0, select bank0
  4592     0D9B  1303               	bcf	3,6	;RP1=0, select bank0
  4593     0D9C  00A3               	movwf	frexp@value+3
  4594     0D9D  1683               	bsf	3,5	;RP0=1, select bank1
  4595     0D9E  1303               	bcf	3,6	;RP1=0, select bank1
  4596     0D9F  0832               	movf	(log@x+2)^(0+128),w
  4597     0DA0  1283               	bcf	3,5	;RP0=0, select bank0
  4598     0DA1  1303               	bcf	3,6	;RP1=0, select bank0
  4599     0DA2  00A2               	movwf	frexp@value+2
  4600     0DA3  1683               	bsf	3,5	;RP0=1, select bank1
  4601     0DA4  1303               	bcf	3,6	;RP1=0, select bank1
  4602     0DA5  0831               	movf	(log@x+1)^(0+128),w
  4603     0DA6  1283               	bcf	3,5	;RP0=0, select bank0
  4604     0DA7  1303               	bcf	3,6	;RP1=0, select bank0
  4605     0DA8  00A1               	movwf	frexp@value+1
  4606     0DA9  1683               	bsf	3,5	;RP0=1, select bank1
  4607     0DAA  1303               	bcf	3,6	;RP1=0, select bank1
  4608     0DAB  0830               	movf	log@x^(0+128),w
  4609     0DAC  1283               	bcf	3,5	;RP0=0, select bank0
  4610     0DAD  1303               	bcf	3,6	;RP1=0, select bank0
  4611     0DAE  00A0               	movwf	frexp@value
  4612     0DAF  160A  118A  2563  120A  158A  	fcall	_frexp
  4613     0DB4  1283               	bcf	3,5	;RP0=0, select bank0
  4614     0DB5  1303               	bcf	3,6	;RP1=0, select bank0
  4615     0DB6  0823               	movf	?_frexp+3,w
  4616     0DB7  00AC               	movwf	___flmul@a+3
  4617     0DB8  0822               	movf	?_frexp+2,w
  4618     0DB9  00AB               	movwf	___flmul@a+2
  4619     0DBA  0821               	movf	?_frexp+1,w
  4620     0DBB  00AA               	movwf	___flmul@a+1
  4621     0DBC  0820               	movf	?_frexp,w
  4622     0DBD  00A9               	movwf	___flmul@a
  4623     0DBE  120A  118A  2497  120A  158A  	fcall	___flmul
  4624     0DC3  1283               	bcf	3,5	;RP0=0, select bank0
  4625     0DC4  1303               	bcf	3,6	;RP1=0, select bank0
  4626     0DC5  0828               	movf	?___flmul+3,w
  4627     0DC6  00E0               	movwf	___fladd@a+3
  4628     0DC7  0827               	movf	?___flmul+2,w
  4629     0DC8  00DF               	movwf	___fladd@a+2
  4630     0DC9  0826               	movf	?___flmul+1,w
  4631     0DCA  00DE               	movwf	___fladd@a+1
  4632     0DCB  0825               	movf	?___flmul,w
  4633     0DCC  00DD               	movwf	___fladd@a
  4634     0DCD  120A  118A  223F  120A  158A  	fcall	___fladd
  4635     0DD2  1283               	bcf	3,5	;RP0=0, select bank0
  4636     0DD3  1303               	bcf	3,6	;RP1=0, select bank0
  4637     0DD4  085C               	movf	?___fladd+3,w
  4638     0DD5  1683               	bsf	3,5	;RP0=1, select bank1
  4639     0DD6  1303               	bcf	3,6	;RP1=0, select bank1
  4640     0DD7  00B3               	movwf	(log@x+3)^(0+128)
  4641     0DD8  1283               	bcf	3,5	;RP0=0, select bank0
  4642     0DD9  1303               	bcf	3,6	;RP1=0, select bank0
  4643     0DDA  085B               	movf	?___fladd+2,w
  4644     0DDB  1683               	bsf	3,5	;RP0=1, select bank1
  4645     0DDC  1303               	bcf	3,6	;RP1=0, select bank1
  4646     0DDD  00B2               	movwf	(log@x+2)^(0+128)
  4647     0DDE  1283               	bcf	3,5	;RP0=0, select bank0
  4648     0DDF  1303               	bcf	3,6	;RP1=0, select bank0
  4649     0DE0  085A               	movf	?___fladd+1,w
  4650     0DE1  1683               	bsf	3,5	;RP0=1, select bank1
  4651     0DE2  1303               	bcf	3,6	;RP1=0, select bank1
  4652     0DE3  00B1               	movwf	(log@x+1)^(0+128)
  4653     0DE4  1283               	bcf	3,5	;RP0=0, select bank0
  4654     0DE5  1303               	bcf	3,6	;RP1=0, select bank0
  4655     0DE6  0859               	movf	?___fladd,w
  4656     0DE7  1683               	bsf	3,5	;RP0=1, select bank1
  4657     0DE8  1303               	bcf	3,6	;RP1=0, select bank1
  4658     0DE9  00B0               	movwf	log@x^(0+128)
  4659     0DEA                     l3986:
  4660     0DEA  30FF               	movlw	255
  4661     0DEB  1283               	bcf	3,5	;RP0=0, select bank0
  4662     0DEC  1303               	bcf	3,6	;RP1=0, select bank0
  4663     0DED  07ED               	addwf	log@exponent,f
  4664     0DEE  1803               	skipnc
  4665     0DEF  0AEE               	incf	log@exponent+1,f
  4666     0DF0  30FF               	movlw	255
  4667     0DF1  07EE               	addwf	log@exponent+1,f
  4668     0DF2                     l3988:
  4669     0DF2  1683               	bsf	3,5	;RP0=1, select bank1
  4670     0DF3  1303               	bcf	3,6	;RP1=0, select bank1
  4671     0DF4  0833               	movf	(log@x+3)^(0+128),w
  4672     0DF5  00A3               	movwf	(eval_poly@x+3)^(0+128)
  4673     0DF6  0832               	movf	(log@x+2)^(0+128),w
  4674     0DF7  00A2               	movwf	(eval_poly@x+2)^(0+128)
  4675     0DF8  0831               	movf	(log@x+1)^(0+128),w
  4676     0DF9  00A1               	movwf	(eval_poly@x+1)^(0+128)
  4677     0DFA  0830               	movf	log@x^(0+128),w
  4678     0DFB  00A0               	movwf	eval_poly@x^(0+128)
  4679     0DFC  300B               	movlw	(low ((log@coeff-__stringbase)| (0+32768)))& (0+255)
  4680     0DFD  00A4               	movwf	eval_poly@d^(0+128)
  4681     0DFE  3008               	movlw	8
  4682     0DFF  00A5               	movwf	eval_poly@n^(0+128)
  4683     0E00  3000               	movlw	0
  4684     0E01  00A6               	movwf	(eval_poly@n^(0+128)+1)
  4685     0E02  120A  158A  2281  120A  158A  	fcall	_eval_poly
  4686     0E07  1683               	bsf	3,5	;RP0=1, select bank1
  4687     0E08  1303               	bcf	3,6	;RP1=0, select bank1
  4688     0E09  0823               	movf	(?_eval_poly+3)^(0+128),w
  4689     0E0A  00B3               	movwf	(log@x+3)^(0+128)
  4690     0E0B  0822               	movf	(?_eval_poly+2)^(0+128),w
  4691     0E0C  00B2               	movwf	(log@x+2)^(0+128)
  4692     0E0D  0821               	movf	(?_eval_poly+1)^(0+128),w
  4693     0E0E  00B1               	movwf	(log@x+1)^(0+128)
  4694     0E0F  0820               	movf	?_eval_poly^(0+128),w
  4695     0E10  00B0               	movwf	log@x^(0+128)
  4696     0E11                     l3990:
  4697     0E11  0833               	movf	(log@x+3)^(0+128),w
  4698     0E12  1283               	bcf	3,5	;RP0=0, select bank0
  4699     0E13  1303               	bcf	3,6	;RP1=0, select bank0
  4700     0E14  00DC               	movwf	___fladd@b+3
  4701     0E15  1683               	bsf	3,5	;RP0=1, select bank1
  4702     0E16  1303               	bcf	3,6	;RP1=0, select bank1
  4703     0E17  0832               	movf	(log@x+2)^(0+128),w
  4704     0E18  1283               	bcf	3,5	;RP0=0, select bank0
  4705     0E19  1303               	bcf	3,6	;RP1=0, select bank0
  4706     0E1A  00DB               	movwf	___fladd@b+2
  4707     0E1B  1683               	bsf	3,5	;RP0=1, select bank1
  4708     0E1C  1303               	bcf	3,6	;RP1=0, select bank1
  4709     0E1D  0831               	movf	(log@x+1)^(0+128),w
  4710     0E1E  1283               	bcf	3,5	;RP0=0, select bank0
  4711     0E1F  1303               	bcf	3,6	;RP1=0, select bank0
  4712     0E20  00DA               	movwf	___fladd@b+1
  4713     0E21  1683               	bsf	3,5	;RP0=1, select bank1
  4714     0E22  1303               	bcf	3,6	;RP1=0, select bank1
  4715     0E23  0830               	movf	log@x^(0+128),w
  4716     0E24  1283               	bcf	3,5	;RP0=0, select bank0
  4717     0E25  1303               	bcf	3,6	;RP1=0, select bank0
  4718     0E26  00D9               	movwf	___fladd@b
  4719     0E27  303F               	movlw	63
  4720     0E28  00A8               	movwf	___flmul@b+3
  4721     0E29  3031               	movlw	49
  4722     0E2A  00A7               	movwf	___flmul@b+2
  4723     0E2B  3072               	movlw	114
  4724     0E2C  00A6               	movwf	___flmul@b+1
  4725     0E2D  3018               	movlw	24
  4726     0E2E  00A5               	movwf	___flmul@b
  4727     0E2F  086D               	movf	log@exponent,w
  4728     0E30  00F0               	movwf	___xxtofl@val
  4729     0E31  086E               	movf	log@exponent+1,w
  4730     0E32  00F1               	movwf	___xxtofl@val+1
  4731     0E33  3000               	movlw	0
  4732     0E34  1BF1               	btfsc	___xxtofl@val+1,7
  4733     0E35  30FF               	movlw	255
  4734     0E36  00F2               	movwf	___xxtofl@val+2
  4735     0E37  00F3               	movwf	___xxtofl@val+3
  4736     0E38  3001               	movlw	1
  4737     0E39  120A  158A  21C9  120A  158A  	fcall	___xxtofl
  4738     0E3E  0873               	movf	?___xxtofl+3,w
  4739     0E3F  1283               	bcf	3,5	;RP0=0, select bank0
  4740     0E40  1303               	bcf	3,6	;RP1=0, select bank0
  4741     0E41  00AC               	movwf	___flmul@a+3
  4742     0E42  0872               	movf	?___xxtofl+2,w
  4743     0E43  00AB               	movwf	___flmul@a+2
  4744     0E44  0871               	movf	?___xxtofl+1,w
  4745     0E45  00AA               	movwf	___flmul@a+1
  4746     0E46  0870               	movf	?___xxtofl,w
  4747     0E47  00A9               	movwf	___flmul@a
  4748     0E48  120A  118A  2497  120A  158A  	fcall	___flmul
  4749     0E4D  1283               	bcf	3,5	;RP0=0, select bank0
  4750     0E4E  1303               	bcf	3,6	;RP1=0, select bank0
  4751     0E4F  0828               	movf	?___flmul+3,w
  4752     0E50  00E0               	movwf	___fladd@a+3
  4753     0E51  0827               	movf	?___flmul+2,w
  4754     0E52  00DF               	movwf	___fladd@a+2
  4755     0E53  0826               	movf	?___flmul+1,w
  4756     0E54  00DE               	movwf	___fladd@a+1
  4757     0E55  0825               	movf	?___flmul,w
  4758     0E56  00DD               	movwf	___fladd@a
  4759     0E57  120A  118A  223F  120A  158A  	fcall	___fladd
  4760     0E5C  1283               	bcf	3,5	;RP0=0, select bank0
  4761     0E5D  1303               	bcf	3,6	;RP1=0, select bank0
  4762     0E5E  085C               	movf	?___fladd+3,w
  4763     0E5F  1683               	bsf	3,5	;RP0=1, select bank1
  4764     0E60  1303               	bcf	3,6	;RP1=0, select bank1
  4765     0E61  00B3               	movwf	(?_log+3)^(0+128)
  4766     0E62  1283               	bcf	3,5	;RP0=0, select bank0
  4767     0E63  1303               	bcf	3,6	;RP1=0, select bank0
  4768     0E64  085B               	movf	?___fladd+2,w
  4769     0E65  1683               	bsf	3,5	;RP0=1, select bank1
  4770     0E66  1303               	bcf	3,6	;RP1=0, select bank1
  4771     0E67  00B2               	movwf	(?_log+2)^(0+128)
  4772     0E68  1283               	bcf	3,5	;RP0=0, select bank0
  4773     0E69  1303               	bcf	3,6	;RP1=0, select bank0
  4774     0E6A  085A               	movf	?___fladd+1,w
  4775     0E6B  1683               	bsf	3,5	;RP0=1, select bank1
  4776     0E6C  1303               	bcf	3,6	;RP1=0, select bank1
  4777     0E6D  00B1               	movwf	(?_log+1)^(0+128)
  4778     0E6E  1283               	bcf	3,5	;RP0=0, select bank0
  4779     0E6F  1303               	bcf	3,6	;RP1=0, select bank0
  4780     0E70  0859               	movf	?___fladd,w
  4781     0E71  1683               	bsf	3,5	;RP0=1, select bank1
  4782     0E72  1303               	bcf	3,6	;RP1=0, select bank1
  4783     0E73  00B0               	movwf	?_log^(0+128)
  4784     0E74                     l875:
  4785     0E74  0008               	return
  4786     0E75                     __end_of_log:
  4787                           
  4788                           	psect	text16
  4789     1563                     __ptext16:	
  4790 ;; *************** function _frexp *****************
  4791 ;; Defined at:
  4792 ;;		line 254 in file "C:\Program Files\Microchip\xc8\v2.41\pic\sources\c90\common\frexp.c"
  4793 ;; Parameters:    Size  Location     Type
  4794 ;;  value           4    0[BANK0 ] int 
  4795 ;;  eptr            1    4[BANK0 ] PTR int 
  4796 ;;		 -> log@exponent(2), 
  4797 ;; Auto vars:     Size  Location     Type
  4798 ;;		None
  4799 ;; Return value:  Size  Location     Type
  4800 ;;                  4    0[BANK0 ] PTR int 
  4801 ;; Registers used:
  4802 ;;		wreg, fsr0l, fsr0h, status,2, status,0, btemp+1, pclath, cstack
  4803 ;; Tracked objects:
  4804 ;;		On entry : 0/0
  4805 ;;		On exit  : 0/0
  4806 ;;		Unchanged: 0/0
  4807 ;; Data sizes:     COMMON   BANK0   BANK1   BANK3   BANK2
  4808 ;;      Params:         0       5       0       0       0
  4809 ;;      Locals:         0       0       0       0       0
  4810 ;;      Temps:          2       0       0       0       0
  4811 ;;      Totals:         2       5       0       0       0
  4812 ;;Total ram usage:        7 bytes
  4813 ;; Hardware stack levels used: 1
  4814 ;; Hardware stack levels required when called: 1
  4815 ;; This function calls:
  4816 ;;		___fleq
  4817 ;; This function is called by:
  4818 ;;		_log
  4819 ;; This function uses a non-reentrant model
  4820 ;;
  4821                           
  4822     1563                     _frexp:	
  4823                           ;psect for function _frexp
  4824                           
  4825     1563                     l3942:	
  4826                           ;incstack = 0
  4827                           ; Regs used in _frexp: [wreg-fsr0h+status,2+status,0+btemp+1+pclath+cstack]
  4828                           
  4829     1563  1283               	bcf	3,5	;RP0=0, select bank0
  4830     1564  1303               	bcf	3,6	;RP1=0, select bank0
  4831     1565  0823               	movf	frexp@value+3,w
  4832     1566  00F3               	movwf	___fleq@ff1+3
  4833     1567  0822               	movf	frexp@value+2,w
  4834     1568  00F2               	movwf	___fleq@ff1+2
  4835     1569  0821               	movf	frexp@value+1,w
  4836     156A  00F1               	movwf	___fleq@ff1+1
  4837     156B  0820               	movf	frexp@value,w
  4838     156C  00F0               	movwf	___fleq@ff1
  4839     156D  3000               	movlw	0
  4840     156E  00F7               	movwf	___fleq@ff2+3
  4841     156F  3000               	movlw	0
  4842     1570  00F6               	movwf	___fleq@ff2+2
  4843     1571  3000               	movlw	0
  4844     1572  00F5               	movwf	___fleq@ff2+1
  4845     1573  3000               	movlw	0
  4846     1574  00F4               	movwf	___fleq@ff2
  4847     1575  120A  158A  20C8  160A  118A  	fcall	___fleq
  4848     157A  1C03               	btfss	3,0
  4849     157B  2D7D               	goto	u5531
  4850     157C  2D7E               	goto	u5530
  4851     157D                     u5531:
  4852     157D  2D8F               	goto	l3950
  4853     157E                     u5530:
  4854     157E                     l3944:
  4855     157E  1283               	bcf	3,5	;RP0=0, select bank0
  4856     157F  1303               	bcf	3,6	;RP1=0, select bank0
  4857     1580  0824               	movf	frexp@eptr,w
  4858     1581  0084               	movwf	4
  4859     1582  1383               	bcf	3,7	;select IRP bank0
  4860     1583  0180               	clrf	0
  4861     1584  0A84               	incf	4,f
  4862     1585  0180               	clrf	0
  4863     1586                     l3946:
  4864     1586  3000               	movlw	0
  4865     1587  00A3               	movwf	?_frexp+3
  4866     1588  3000               	movlw	0
  4867     1589  00A2               	movwf	?_frexp+2
  4868     158A  3000               	movlw	0
  4869     158B  00A1               	movwf	?_frexp+1
  4870     158C  3000               	movlw	0
  4871     158D  00A0               	movwf	?_frexp
  4872     158E  2DBE               	goto	l893
  4873     158F                     l3950:
  4874     158F  1283               	bcf	3,5	;RP0=0, select bank0
  4875     1590  1303               	bcf	3,6	;RP1=0, select bank0
  4876     1591  0823               	movf	frexp@value+3,w
  4877     1592  397F               	andlw	127
  4878     1593  00FC               	movwf	??_frexp
  4879     1594  01FD               	clrf	??_frexp+1
  4880     1595  1003               	clrc
  4881     1596  0DFC               	rlf	??_frexp,f
  4882     1597  0DFD               	rlf	??_frexp+1,f
  4883     1598  0824               	movf	frexp@eptr,w
  4884     1599  0084               	movwf	4
  4885     159A  087C               	movf	??_frexp,w
  4886     159B  1383               	bcf	3,7	;select IRP bank0
  4887     159C  0080               	movwf	0
  4888     159D  0A84               	incf	4,f
  4889     159E  087D               	movf	??_frexp+1,w
  4890     159F  0080               	movwf	0
  4891     15A0  0D22               	rlf	frexp@value+2,w
  4892     15A1  0D22               	rlf	frexp@value+2,w
  4893     15A2  3901               	andlw	1
  4894     15A3  00FC               	movwf	??_frexp
  4895     15A4  01FD               	clrf	??_frexp+1
  4896     15A5  0824               	movf	frexp@eptr,w
  4897     15A6  0084               	movwf	4
  4898     15A7  087C               	movf	??_frexp,w
  4899     15A8  0480               	iorwf	0,f
  4900     15A9  0A84               	incf	4,f
  4901     15AA  087D               	movf	??_frexp+1,w
  4902     15AB  0480               	iorwf	0,f
  4903     15AC                     l3952:
  4904     15AC  0824               	movf	frexp@eptr,w
  4905     15AD  0084               	movwf	4
  4906     15AE  3082               	movlw	130
  4907     15AF  0780               	addwf	0,f
  4908     15B0  0F84               	incfsz	4,f
  4909     15B1  0800               	movf	0,w
  4910     15B2  1803               	skipnc
  4911     15B3  0A00               	incf	0,w
  4912     15B4  00FF               	movwf	btemp+1
  4913     15B5  30FF               	movlw	255
  4914     15B6  077F               	addwf	btemp+1,w
  4915     15B7  0080               	movwf	0
  4916     15B8  0384               	decf	4,f
  4917     15B9                     l3954:
  4918     15B9  0823               	movf	frexp@value+3,w
  4919     15BA  3980               	andlw	-128
  4920     15BB  383F               	iorlw	63
  4921     15BC  00A3               	movwf	frexp@value+3
  4922     15BD                     l3956:
  4923     15BD  13A2               	bcf	frexp@value+2,7
  4924     15BE                     l3958:
  4925     15BE                     l893:
  4926     15BE  0008               	return
  4927     15BF                     __end_of_frexp:
  4928                           
  4929                           	psect	text17
  4930     08C8                     __ptext17:	
  4931 ;; *************** function ___fleq *****************
  4932 ;; Defined at:
  4933 ;;		line 4 in file "C:\Program Files\Microchip\xc8\v2.41\pic\sources\c90\common\fleq.c"
  4934 ;; Parameters:    Size  Location     Type
  4935 ;;  ff1             4    0[COMMON] PTR int 
  4936 ;;  ff2             4    4[COMMON] PTR int 
  4937 ;; Auto vars:     Size  Location     Type
  4938 ;;		None
  4939 ;; Return value:  Size  Location     Type
  4940 ;;		None               void
  4941 ;; Registers used:
  4942 ;;		wreg, status,2, status,0
  4943 ;; Tracked objects:
  4944 ;;		On entry : 0/0
  4945 ;;		On exit  : 0/0
  4946 ;;		Unchanged: 0/0
  4947 ;; Data sizes:     COMMON   BANK0   BANK1   BANK3   BANK2
  4948 ;;      Params:         8       0       0       0       0
  4949 ;;      Locals:         0       0       0       0       0
  4950 ;;      Temps:          4       0       0       0       0
  4951 ;;      Totals:        12       0       0       0       0
  4952 ;;Total ram usage:       12 bytes
  4953 ;; Hardware stack levels used: 1
  4954 ;; This function calls:
  4955 ;;		Nothing
  4956 ;; This function is called by:
  4957 ;;		_log
  4958 ;;		_frexp
  4959 ;; This function uses a non-reentrant model
  4960 ;;
  4961                           
  4962     08C8                     ___fleq:	
  4963                           ;psect for function ___fleq
  4964                           
  4965     08C8                     l3520:	
  4966                           ;incstack = 0
  4967                           ; Regs used in ___fleq: [wreg+status,2+status,0]
  4968                           
  4969     08C8  3000               	movlw	0
  4970     08C9  0570               	andwf	___fleq@ff1,w
  4971     08CA  00F8               	movwf	??___fleq
  4972     08CB  3000               	movlw	0
  4973     08CC  0571               	andwf	___fleq@ff1+1,w
  4974     08CD  00F9               	movwf	??___fleq+1
  4975     08CE  3080               	movlw	128
  4976     08CF  0572               	andwf	___fleq@ff1+2,w
  4977     08D0  00FA               	movwf	??___fleq+2
  4978     08D1  307F               	movlw	127
  4979     08D2  0573               	andwf	___fleq@ff1+3,w
  4980     08D3  00FB               	movwf	??___fleq+3
  4981     08D4  087B               	movf	??___fleq+3,w
  4982     08D5  047A               	iorwf	??___fleq+2,w
  4983     08D6  0479               	iorwf	??___fleq+1,w
  4984     08D7  0478               	iorwf	??___fleq,w
  4985     08D8  1D03               	skipz
  4986     08D9  28DB               	goto	u4461
  4987     08DA  28DC               	goto	u4460
  4988     08DB                     u4461:
  4989     08DB  28E4               	goto	l584
  4990     08DC                     u4460:
  4991     08DC                     l3522:
  4992     08DC  3000               	movlw	0
  4993     08DD  00F3               	movwf	___fleq@ff1+3
  4994     08DE  3000               	movlw	0
  4995     08DF  00F2               	movwf	___fleq@ff1+2
  4996     08E0  3000               	movlw	0
  4997     08E1  00F1               	movwf	___fleq@ff1+1
  4998     08E2  3000               	movlw	0
  4999     08E3  00F0               	movwf	___fleq@ff1
  5000     08E4                     l584:
  5001     08E4  3000               	movlw	0
  5002     08E5  0574               	andwf	___fleq@ff2,w
  5003     08E6  00F8               	movwf	??___fleq
  5004     08E7  3000               	movlw	0
  5005     08E8  0575               	andwf	___fleq@ff2+1,w
  5006     08E9  00F9               	movwf	??___fleq+1
  5007     08EA  3080               	movlw	128
  5008     08EB  0576               	andwf	___fleq@ff2+2,w
  5009     08EC  00FA               	movwf	??___fleq+2
  5010     08ED  307F               	movlw	127
  5011     08EE  0577               	andwf	___fleq@ff2+3,w
  5012     08EF  00FB               	movwf	??___fleq+3
  5013     08F0  087B               	movf	??___fleq+3,w
  5014     08F1  047A               	iorwf	??___fleq+2,w
  5015     08F2  0479               	iorwf	??___fleq+1,w
  5016     08F3  0478               	iorwf	??___fleq,w
  5017     08F4  1D03               	skipz
  5018     08F5  28F7               	goto	u4471
  5019     08F6  28F8               	goto	u4470
  5020     08F7                     u4471:
  5021     08F7  2900               	goto	l585
  5022     08F8                     u4470:
  5023     08F8                     l3524:
  5024     08F8  3000               	movlw	0
  5025     08F9  00F7               	movwf	___fleq@ff2+3
  5026     08FA  3000               	movlw	0
  5027     08FB  00F6               	movwf	___fleq@ff2+2
  5028     08FC  3000               	movlw	0
  5029     08FD  00F5               	movwf	___fleq@ff2+1
  5030     08FE  3000               	movlw	0
  5031     08FF  00F4               	movwf	___fleq@ff2
  5032     0900                     l585:
  5033     0900  0877               	movf	___fleq@ff2+3,w
  5034     0901  0673               	xorwf	___fleq@ff1+3,w
  5035     0902  1D03               	skipz
  5036     0903  290E               	goto	u4485
  5037     0904  0876               	movf	___fleq@ff2+2,w
  5038     0905  0672               	xorwf	___fleq@ff1+2,w
  5039     0906  1D03               	skipz
  5040     0907  290E               	goto	u4485
  5041     0908  0875               	movf	___fleq@ff2+1,w
  5042     0909  0671               	xorwf	___fleq@ff1+1,w
  5043     090A  1D03               	skipz
  5044     090B  290E               	goto	u4485
  5045     090C  0874               	movf	___fleq@ff2,w
  5046     090D  0670               	xorwf	___fleq@ff1,w
  5047     090E                     u4485:
  5048     090E  1903               	skipnz
  5049     090F  2911               	goto	u4481
  5050     0910  2912               	goto	u4480
  5051     0911                     u4481:
  5052     0911  2914               	goto	l3528
  5053     0912                     u4480:
  5054     0912                     l3526:
  5055     0912  1003               	clrc
  5056     0913  2915               	goto	l586
  5057     0914                     l3528:
  5058     0914  1403               	setc
  5059     0915                     l586:
  5060     0915  0008               	return
  5061     0916                     __end_of___fleq:
  5062                           
  5063                           	psect	text18
  5064     0A81                     __ptext18:	
  5065 ;; *************** function _eval_poly *****************
  5066 ;; Defined at:
  5067 ;;		line 4 in file "C:\Program Files\Microchip\xc8\v2.41\pic\sources\c90\common\evalpoly.c"
  5068 ;; Parameters:    Size  Location     Type
  5069 ;;  x               4    0[BANK1 ] PTR int 
  5070 ;;  d               1    4[BANK1 ] PTR const 
  5071 ;;		 -> log@coeff(36), 
  5072 ;;  n               2    5[BANK1 ] int 
  5073 ;; Auto vars:     Size  Location     Type
  5074 ;;  res             4   12[BANK1 ] int 
  5075 ;; Return value:  Size  Location     Type
  5076 ;;                  4    0[BANK1 ] int 
  5077 ;; Registers used:
  5078 ;;		wreg, fsr0l, fsr0h, status,2, status,0, btemp+1, pclath, cstack
  5079 ;; Tracked objects:
  5080 ;;		On entry : 0/0
  5081 ;;		On exit  : 0/0
  5082 ;;		Unchanged: 0/0
  5083 ;; Data sizes:     COMMON   BANK0   BANK1   BANK3   BANK2
  5084 ;;      Params:         0       0       7       0       0
  5085 ;;      Locals:         0       0       4       0       0
  5086 ;;      Temps:          0       0       5       0       0
  5087 ;;      Totals:         0       0      16       0       0
  5088 ;;Total ram usage:       16 bytes
  5089 ;; Hardware stack levels used: 1
  5090 ;; Hardware stack levels required when called: 2
  5091 ;; This function calls:
  5092 ;;		___fladd
  5093 ;;		___flmul
  5094 ;; This function is called by:
  5095 ;;		_log
  5096 ;; This function uses a non-reentrant model
  5097 ;;
  5098                           
  5099     0A81                     _eval_poly:	
  5100                           ;psect for function _eval_poly
  5101                           
  5102     0A81                     l3962:	
  5103                           ;incstack = 0
  5104                           ; Regs used in _eval_poly: [wreg-fsr0h+status,2+status,0+btemp+1+pclath+cstack]
  5105                           
  5106     0A81  1683               	bsf	3,5	;RP0=1, select bank1
  5107     0A82  1303               	bcf	3,6	;RP1=0, select bank1
  5108     0A83  0825               	movf	eval_poly@n^(0+128),w
  5109     0A84  00A7               	movwf	??_eval_poly^(0+128)
  5110     0A85  3001               	movlw	1
  5111     0A86                     u5545:
  5112     0A86  1003               	clrc
  5113     0A87  0DA7               	rlf	??_eval_poly^(0+128),f
  5114     0A88  3EFF               	addlw	-1
  5115     0A89  1D03               	skipz
  5116     0A8A  2A86               	goto	u5545
  5117     0A8B  1003               	clrc
  5118     0A8C  0D27               	rlf	??_eval_poly^(0+128),w
  5119     0A8D  0724               	addwf	eval_poly@d^(0+128),w
  5120     0A8E  0084               	movwf	4
  5121     0A8F  120A  158A  200A  120A  158A  	fcall	stringdir
  5122     0A94  00A8               	movwf	(??_eval_poly+1)^(0+128)
  5123     0A95  120A  158A  200A  120A  158A  	fcall	stringdir
  5124     0A9A  00A9               	movwf	((??_eval_poly+1)^(0+128)+1)
  5125     0A9B  120A  158A  200A  120A  158A  	fcall	stringdir
  5126     0AA0  00AA               	movwf	((??_eval_poly+1)^(0+128)+2)
  5127     0AA1  120A  158A  200A  120A  158A  	fcall	stringdir
  5128     0AA6  00AB               	movwf	((??_eval_poly+1)^(0+128)+3)
  5129     0AA7  082B               	movf	(??_eval_poly+4)^(0+128),w
  5130     0AA8  00AF               	movwf	(eval_poly@res+3)^(0+128)
  5131     0AA9  082A               	movf	(??_eval_poly+3)^(0+128),w
  5132     0AAA  00AE               	movwf	(eval_poly@res+2)^(0+128)
  5133     0AAB  0829               	movf	(??_eval_poly+2)^(0+128),w
  5134     0AAC  00AD               	movwf	(eval_poly@res+1)^(0+128)
  5135     0AAD  0828               	movf	(??_eval_poly+1)^(0+128),w
  5136     0AAE  00AC               	movwf	eval_poly@res^(0+128)
  5137     0AAF  2B4C               	goto	l3966
  5138     0AB0                     l3964:
  5139     0AB0  30FF               	movlw	255
  5140     0AB1  07A5               	addwf	eval_poly@n^(0+128),f
  5141     0AB2  1803               	skipnc
  5142     0AB3  0AA6               	incf	(eval_poly@n+1)^(0+128),f
  5143     0AB4  30FF               	movlw	255
  5144     0AB5  07A6               	addwf	(eval_poly@n+1)^(0+128),f
  5145     0AB6  0825               	movf	eval_poly@n^(0+128),w
  5146     0AB7  00A7               	movwf	??_eval_poly^(0+128)
  5147     0AB8  3001               	movlw	1
  5148     0AB9                     u5555:
  5149     0AB9  1003               	clrc
  5150     0ABA  0DA7               	rlf	??_eval_poly^(0+128),f
  5151     0ABB  3EFF               	addlw	-1
  5152     0ABC  1D03               	skipz
  5153     0ABD  2AB9               	goto	u5555
  5154     0ABE  1003               	clrc
  5155     0ABF  0D27               	rlf	??_eval_poly^(0+128),w
  5156     0AC0  0724               	addwf	eval_poly@d^(0+128),w
  5157     0AC1  0084               	movwf	4
  5158     0AC2  120A  158A  200A  120A  158A  	fcall	stringdir
  5159     0AC7  00A8               	movwf	(??_eval_poly+1)^(0+128)
  5160     0AC8  120A  158A  200A  120A  158A  	fcall	stringdir
  5161     0ACD  00A9               	movwf	((??_eval_poly+1)^(0+128)+1)
  5162     0ACE  120A  158A  200A  120A  158A  	fcall	stringdir
  5163     0AD3  00AA               	movwf	((??_eval_poly+1)^(0+128)+2)
  5164     0AD4  120A  158A  200A  120A  158A  	fcall	stringdir
  5165     0AD9  00AB               	movwf	((??_eval_poly+1)^(0+128)+3)
  5166     0ADA  082B               	movf	(??_eval_poly+4)^(0+128),w
  5167     0ADB  1283               	bcf	3,5	;RP0=0, select bank0
  5168     0ADC  1303               	bcf	3,6	;RP1=0, select bank0
  5169     0ADD  00DC               	movwf	___fladd@b+3
  5170     0ADE  1683               	bsf	3,5	;RP0=1, select bank1
  5171     0ADF  1303               	bcf	3,6	;RP1=0, select bank1
  5172     0AE0  082A               	movf	(??_eval_poly+3)^(0+128),w
  5173     0AE1  1283               	bcf	3,5	;RP0=0, select bank0
  5174     0AE2  1303               	bcf	3,6	;RP1=0, select bank0
  5175     0AE3  00DB               	movwf	___fladd@b+2
  5176     0AE4  1683               	bsf	3,5	;RP0=1, select bank1
  5177     0AE5  1303               	bcf	3,6	;RP1=0, select bank1
  5178     0AE6  0829               	movf	(??_eval_poly+2)^(0+128),w
  5179     0AE7  1283               	bcf	3,5	;RP0=0, select bank0
  5180     0AE8  1303               	bcf	3,6	;RP1=0, select bank0
  5181     0AE9  00DA               	movwf	___fladd@b+1
  5182     0AEA  1683               	bsf	3,5	;RP0=1, select bank1
  5183     0AEB  1303               	bcf	3,6	;RP1=0, select bank1
  5184     0AEC  0828               	movf	(??_eval_poly+1)^(0+128),w
  5185     0AED  1283               	bcf	3,5	;RP0=0, select bank0
  5186     0AEE  1303               	bcf	3,6	;RP1=0, select bank0
  5187     0AEF  00D9               	movwf	___fladd@b
  5188     0AF0  1683               	bsf	3,5	;RP0=1, select bank1
  5189     0AF1  1303               	bcf	3,6	;RP1=0, select bank1
  5190     0AF2  082F               	movf	(eval_poly@res+3)^(0+128),w
  5191     0AF3  1283               	bcf	3,5	;RP0=0, select bank0
  5192     0AF4  1303               	bcf	3,6	;RP1=0, select bank0
  5193     0AF5  00A8               	movwf	___flmul@b+3
  5194     0AF6  1683               	bsf	3,5	;RP0=1, select bank1
  5195     0AF7  1303               	bcf	3,6	;RP1=0, select bank1
  5196     0AF8  082E               	movf	(eval_poly@res+2)^(0+128),w
  5197     0AF9  1283               	bcf	3,5	;RP0=0, select bank0
  5198     0AFA  1303               	bcf	3,6	;RP1=0, select bank0
  5199     0AFB  00A7               	movwf	___flmul@b+2
  5200     0AFC  1683               	bsf	3,5	;RP0=1, select bank1
  5201     0AFD  1303               	bcf	3,6	;RP1=0, select bank1
  5202     0AFE  082D               	movf	(eval_poly@res+1)^(0+128),w
  5203     0AFF  1283               	bcf	3,5	;RP0=0, select bank0
  5204     0B00  1303               	bcf	3,6	;RP1=0, select bank0
  5205     0B01  00A6               	movwf	___flmul@b+1
  5206     0B02  1683               	bsf	3,5	;RP0=1, select bank1
  5207     0B03  1303               	bcf	3,6	;RP1=0, select bank1
  5208     0B04  082C               	movf	eval_poly@res^(0+128),w
  5209     0B05  1283               	bcf	3,5	;RP0=0, select bank0
  5210     0B06  1303               	bcf	3,6	;RP1=0, select bank0
  5211     0B07  00A5               	movwf	___flmul@b
  5212     0B08  1683               	bsf	3,5	;RP0=1, select bank1
  5213     0B09  1303               	bcf	3,6	;RP1=0, select bank1
  5214     0B0A  0823               	movf	(eval_poly@x+3)^(0+128),w
  5215     0B0B  1283               	bcf	3,5	;RP0=0, select bank0
  5216     0B0C  1303               	bcf	3,6	;RP1=0, select bank0
  5217     0B0D  00AC               	movwf	___flmul@a+3
  5218     0B0E  1683               	bsf	3,5	;RP0=1, select bank1
  5219     0B0F  1303               	bcf	3,6	;RP1=0, select bank1
  5220     0B10  0822               	movf	(eval_poly@x+2)^(0+128),w
  5221     0B11  1283               	bcf	3,5	;RP0=0, select bank0
  5222     0B12  1303               	bcf	3,6	;RP1=0, select bank0
  5223     0B13  00AB               	movwf	___flmul@a+2
  5224     0B14  1683               	bsf	3,5	;RP0=1, select bank1
  5225     0B15  1303               	bcf	3,6	;RP1=0, select bank1
  5226     0B16  0821               	movf	(eval_poly@x+1)^(0+128),w
  5227     0B17  1283               	bcf	3,5	;RP0=0, select bank0
  5228     0B18  1303               	bcf	3,6	;RP1=0, select bank0
  5229     0B19  00AA               	movwf	___flmul@a+1
  5230     0B1A  1683               	bsf	3,5	;RP0=1, select bank1
  5231     0B1B  1303               	bcf	3,6	;RP1=0, select bank1
  5232     0B1C  0820               	movf	eval_poly@x^(0+128),w
  5233     0B1D  1283               	bcf	3,5	;RP0=0, select bank0
  5234     0B1E  1303               	bcf	3,6	;RP1=0, select bank0
  5235     0B1F  00A9               	movwf	___flmul@a
  5236     0B20  120A  118A  2497  120A  158A  	fcall	___flmul
  5237     0B25  1283               	bcf	3,5	;RP0=0, select bank0
  5238     0B26  1303               	bcf	3,6	;RP1=0, select bank0
  5239     0B27  0828               	movf	?___flmul+3,w
  5240     0B28  00E0               	movwf	___fladd@a+3
  5241     0B29  0827               	movf	?___flmul+2,w
  5242     0B2A  00DF               	movwf	___fladd@a+2
  5243     0B2B  0826               	movf	?___flmul+1,w
  5244     0B2C  00DE               	movwf	___fladd@a+1
  5245     0B2D  0825               	movf	?___flmul,w
  5246     0B2E  00DD               	movwf	___fladd@a
  5247     0B2F  120A  118A  223F  120A  158A  	fcall	___fladd
  5248     0B34  1283               	bcf	3,5	;RP0=0, select bank0
  5249     0B35  1303               	bcf	3,6	;RP1=0, select bank0
  5250     0B36  085C               	movf	?___fladd+3,w
  5251     0B37  1683               	bsf	3,5	;RP0=1, select bank1
  5252     0B38  1303               	bcf	3,6	;RP1=0, select bank1
  5253     0B39  00AF               	movwf	(eval_poly@res+3)^(0+128)
  5254     0B3A  1283               	bcf	3,5	;RP0=0, select bank0
  5255     0B3B  1303               	bcf	3,6	;RP1=0, select bank0
  5256     0B3C  085B               	movf	?___fladd+2,w
  5257     0B3D  1683               	bsf	3,5	;RP0=1, select bank1
  5258     0B3E  1303               	bcf	3,6	;RP1=0, select bank1
  5259     0B3F  00AE               	movwf	(eval_poly@res+2)^(0+128)
  5260     0B40  1283               	bcf	3,5	;RP0=0, select bank0
  5261     0B41  1303               	bcf	3,6	;RP1=0, select bank0
  5262     0B42  085A               	movf	?___fladd+1,w
  5263     0B43  1683               	bsf	3,5	;RP0=1, select bank1
  5264     0B44  1303               	bcf	3,6	;RP1=0, select bank1
  5265     0B45  00AD               	movwf	(eval_poly@res+1)^(0+128)
  5266     0B46  1283               	bcf	3,5	;RP0=0, select bank0
  5267     0B47  1303               	bcf	3,6	;RP1=0, select bank0
  5268     0B48  0859               	movf	?___fladd,w
  5269     0B49  1683               	bsf	3,5	;RP0=1, select bank1
  5270     0B4A  1303               	bcf	3,6	;RP1=0, select bank1
  5271     0B4B  00AC               	movwf	eval_poly@res^(0+128)
  5272     0B4C                     l3966:
  5273     0B4C  0825               	movf	eval_poly@n^(0+128),w
  5274     0B4D  0426               	iorwf	(eval_poly@n+1)^(0+128),w
  5275     0B4E  1D03               	btfss	3,2
  5276     0B4F  2B51               	goto	u5561
  5277     0B50  2B52               	goto	u5560
  5278     0B51                     u5561:
  5279     0B51  2AB0               	goto	l3964
  5280     0B52                     u5560:
  5281     0B52                     l3968:
  5282     0B52  082F               	movf	(eval_poly@res+3)^(0+128),w
  5283     0B53  00A3               	movwf	(?_eval_poly+3)^(0+128)
  5284     0B54  082E               	movf	(eval_poly@res+2)^(0+128),w
  5285     0B55  00A2               	movwf	(?_eval_poly+2)^(0+128)
  5286     0B56  082D               	movf	(eval_poly@res+1)^(0+128),w
  5287     0B57  00A1               	movwf	(?_eval_poly+1)^(0+128)
  5288     0B58  082C               	movf	eval_poly@res^(0+128),w
  5289     0B59  00A0               	movwf	?_eval_poly^(0+128)
  5290     0B5A                     l887:
  5291     0B5A  0008               	return
  5292     0B5B                     __end_of_eval_poly:
  5293                           
  5294                           	psect	text19
  5295     0497                     __ptext19:	
  5296 ;; *************** function ___flmul *****************
  5297 ;; Defined at:
  5298 ;;		line 8 in file "C:\Program Files\Microchip\xc8\v2.41\pic\sources\c90\common\sprcmul.c"
  5299 ;; Parameters:    Size  Location     Type
  5300 ;;  b               4    5[BANK0 ] int 
  5301 ;;  a               4    9[BANK0 ] int 
  5302 ;; Auto vars:     Size  Location     Type
  5303 ;;  prod            4   25[BANK0 ] struct .
  5304 ;;  grs             4   20[BANK0 ] unsigned long 
  5305 ;;  temp            2   29[BANK0 ] struct .
  5306 ;;  bexp            1   24[BANK0 ] unsigned char 
  5307 ;;  aexp            1   19[BANK0 ] unsigned char 
  5308 ;;  sign            1   18[BANK0 ] unsigned char 
  5309 ;; Return value:  Size  Location     Type
  5310 ;;                  4    5[BANK0 ] unsigned char 
  5311 ;; Registers used:
  5312 ;;		wreg, status,2, status,0, btemp+1, pclath, cstack
  5313 ;; Tracked objects:
  5314 ;;		On entry : 0/0
  5315 ;;		On exit  : 0/0
  5316 ;;		Unchanged: 0/0
  5317 ;; Data sizes:     COMMON   BANK0   BANK1   BANK3   BANK2
  5318 ;;      Params:         0       8       0       0       0
  5319 ;;      Locals:         0      13       0       0       0
  5320 ;;      Temps:          0       5       0       0       0
  5321 ;;      Totals:         0      26       0       0       0
  5322 ;;Total ram usage:       26 bytes
  5323 ;; Hardware stack levels used: 1
  5324 ;; Hardware stack levels required when called: 1
  5325 ;; This function calls:
  5326 ;;		__Umul8_16
  5327 ;; This function is called by:
  5328 ;;		_log
  5329 ;;		_eval_poly
  5330 ;; This function uses a non-reentrant model
  5331 ;;
  5332                           
  5333     0497                     ___flmul:	
  5334                           ;psect for function ___flmul
  5335                           
  5336     0497                     l3732:	
  5337                           ;incstack = 0
  5338                           ; Regs used in ___flmul: [wreg+status,2+status,0+btemp+1+pclath+cstack]
  5339                           
  5340     0497  1283               	bcf	3,5	;RP0=0, select bank0
  5341     0498  1303               	bcf	3,6	;RP1=0, select bank0
  5342     0499  0828               	movf	___flmul@b+3,w
  5343     049A  3980               	andlw	128
  5344     049B  00B2               	movwf	___flmul@sign
  5345     049C                     l3734:
  5346     049C  0828               	movf	___flmul@b+3,w
  5347     049D  00AD               	movwf	??___flmul
  5348     049E  072D               	addwf	??___flmul,w
  5349     049F  00B8               	movwf	___flmul@bexp
  5350     04A0                     l3736:
  5351     04A0  1FA7               	btfss	___flmul@b+2,7
  5352     04A1  2CA3               	goto	u4951
  5353     04A2  2CA4               	goto	u4950
  5354     04A3                     u4951:
  5355     04A3  2CA5               	goto	l3740
  5356     04A4                     u4950:
  5357     04A4                     l3738:
  5358     04A4  1438               	bsf	___flmul@bexp,0
  5359     04A5                     l3740:
  5360     04A5  0838               	movf	___flmul@bexp,w
  5361     04A6  1903               	btfsc	3,2
  5362     04A7  2CA9               	goto	u4961
  5363     04A8  2CAA               	goto	u4960
  5364     04A9                     u4961:
  5365     04A9  2CB9               	goto	l3748
  5366     04AA                     u4960:
  5367     04AA                     l3742:
  5368     04AA  0A38               	incf	___flmul@bexp,w
  5369     04AB  1D03               	btfss	3,2
  5370     04AC  2CAE               	goto	u4971
  5371     04AD  2CAF               	goto	u4970
  5372     04AE                     u4971:
  5373     04AE  2CB7               	goto	l3746
  5374     04AF                     u4970:
  5375     04AF                     l3744:
  5376     04AF  3000               	movlw	0
  5377     04B0  00A8               	movwf	___flmul@b+3
  5378     04B1  3000               	movlw	0
  5379     04B2  00A7               	movwf	___flmul@b+2
  5380     04B3  3000               	movlw	0
  5381     04B4  00A6               	movwf	___flmul@b+1
  5382     04B5  3000               	movlw	0
  5383     04B6  00A5               	movwf	___flmul@b
  5384     04B7                     l3746:
  5385     04B7  17A7               	bsf	___flmul@b+2,7
  5386     04B8  2CC1               	goto	l3750
  5387     04B9                     l3748:
  5388     04B9  3000               	movlw	0
  5389     04BA  00A8               	movwf	___flmul@b+3
  5390     04BB  3000               	movlw	0
  5391     04BC  00A7               	movwf	___flmul@b+2
  5392     04BD  3000               	movlw	0
  5393     04BE  00A6               	movwf	___flmul@b+1
  5394     04BF  3000               	movlw	0
  5395     04C0  00A5               	movwf	___flmul@b
  5396     04C1                     l3750:
  5397     04C1  082C               	movf	___flmul@a+3,w
  5398     04C2  3980               	andlw	128
  5399     04C3  00FF               	movwf	btemp+1
  5400     04C4  087F               	movf	btemp+1,w
  5401     04C5  06B2               	xorwf	___flmul@sign,f
  5402     04C6                     l3752:
  5403     04C6  082C               	movf	___flmul@a+3,w
  5404     04C7  00AD               	movwf	??___flmul
  5405     04C8  072D               	addwf	??___flmul,w
  5406     04C9  00B3               	movwf	___flmul@aexp
  5407     04CA                     l3754:
  5408     04CA  1FAB               	btfss	___flmul@a+2,7
  5409     04CB  2CCD               	goto	u4981
  5410     04CC  2CCE               	goto	u4980
  5411     04CD                     u4981:
  5412     04CD  2CCF               	goto	l3758
  5413     04CE                     u4980:
  5414     04CE                     l3756:
  5415     04CE  1433               	bsf	___flmul@aexp,0
  5416     04CF                     l3758:
  5417     04CF  0833               	movf	___flmul@aexp,w
  5418     04D0  1903               	btfsc	3,2
  5419     04D1  2CD3               	goto	u4991
  5420     04D2  2CD4               	goto	u4990
  5421     04D3                     u4991:
  5422     04D3  2CE3               	goto	l3766
  5423     04D4                     u4990:
  5424     04D4                     l3760:
  5425     04D4  0A33               	incf	___flmul@aexp,w
  5426     04D5  1D03               	btfss	3,2
  5427     04D6  2CD8               	goto	u5001
  5428     04D7  2CD9               	goto	u5000
  5429     04D8                     u5001:
  5430     04D8  2CE1               	goto	l3764
  5431     04D9                     u5000:
  5432     04D9                     l3762:
  5433     04D9  3000               	movlw	0
  5434     04DA  00AC               	movwf	___flmul@a+3
  5435     04DB  3000               	movlw	0
  5436     04DC  00AB               	movwf	___flmul@a+2
  5437     04DD  3000               	movlw	0
  5438     04DE  00AA               	movwf	___flmul@a+1
  5439     04DF  3000               	movlw	0
  5440     04E0  00A9               	movwf	___flmul@a
  5441     04E1                     l3764:
  5442     04E1  17AB               	bsf	___flmul@a+2,7
  5443     04E2  2CEB               	goto	l3768
  5444     04E3                     l3766:
  5445     04E3  3000               	movlw	0
  5446     04E4  00AC               	movwf	___flmul@a+3
  5447     04E5  3000               	movlw	0
  5448     04E6  00AB               	movwf	___flmul@a+2
  5449     04E7  3000               	movlw	0
  5450     04E8  00AA               	movwf	___flmul@a+1
  5451     04E9  3000               	movlw	0
  5452     04EA  00A9               	movwf	___flmul@a
  5453     04EB                     l3768:
  5454     04EB  0833               	movf	___flmul@aexp,w
  5455     04EC  1903               	btfsc	3,2
  5456     04ED  2CEF               	goto	u5011
  5457     04EE  2CF0               	goto	u5010
  5458     04EF                     u5011:
  5459     04EF  2CF5               	goto	l3772
  5460     04F0                     u5010:
  5461     04F0                     l3770:
  5462     04F0  0838               	movf	___flmul@bexp,w
  5463     04F1  1D03               	btfss	3,2
  5464     04F2  2CF4               	goto	u5021
  5465     04F3  2CF5               	goto	u5020
  5466     04F4                     u5021:
  5467     04F4  2CFE               	goto	l3776
  5468     04F5                     u5020:
  5469     04F5                     l3772:
  5470     04F5  3000               	movlw	0
  5471     04F6  00A8               	movwf	?___flmul+3
  5472     04F7  3000               	movlw	0
  5473     04F8  00A7               	movwf	?___flmul+2
  5474     04F9  3000               	movlw	0
  5475     04FA  00A6               	movwf	?___flmul+1
  5476     04FB  3000               	movlw	0
  5477     04FC  00A5               	movwf	?___flmul
  5478     04FD  2FDB               	goto	l804
  5479     04FE                     l3776:
  5480     04FE  0825               	movf	___flmul@b,w
  5481     04FF  00F0               	movwf	__Umul8_16@multiplicand
  5482     0500  082B               	movf	___flmul@a+2,w
  5483     0501  160A  118A  2335  120A  118A  	fcall	__Umul8_16
  5484     0506  0871               	movf	?__Umul8_16+1,w
  5485     0507  1283               	bcf	3,5	;RP0=0, select bank0
  5486     0508  1303               	bcf	3,6	;RP1=0, select bank0
  5487     0509  00BE               	movwf	___flmul@temp+1
  5488     050A  0870               	movf	?__Umul8_16,w
  5489     050B  00BD               	movwf	___flmul@temp
  5490     050C                     l3778:
  5491     050C  083D               	movf	___flmul@temp,w
  5492     050D  00AD               	movwf	??___flmul
  5493     050E  01AE               	clrf	??___flmul+1
  5494     050F  01AF               	clrf	??___flmul+2
  5495     0510  01B0               	clrf	??___flmul+3
  5496     0511  0830               	movf	??___flmul+3,w
  5497     0512  00B7               	movwf	___flmul@grs+3
  5498     0513  082F               	movf	??___flmul+2,w
  5499     0514  00B6               	movwf	___flmul@grs+2
  5500     0515  082E               	movf	??___flmul+1,w
  5501     0516  00B5               	movwf	___flmul@grs+1
  5502     0517  082D               	movf	??___flmul,w
  5503     0518  00B4               	movwf	___flmul@grs
  5504     0519                     l3780:
  5505     0519  083E               	movf	___flmul@temp+1,w
  5506     051A  00AD               	movwf	??___flmul
  5507     051B  01AE               	clrf	??___flmul+1
  5508     051C  01AF               	clrf	??___flmul+2
  5509     051D  01B0               	clrf	??___flmul+3
  5510     051E  0830               	movf	??___flmul+3,w
  5511     051F  00BC               	movwf	___flmul@prod+3
  5512     0520  082F               	movf	??___flmul+2,w
  5513     0521  00BB               	movwf	___flmul@prod+2
  5514     0522  082E               	movf	??___flmul+1,w
  5515     0523  00BA               	movwf	___flmul@prod+1
  5516     0524  082D               	movf	??___flmul,w
  5517     0525  00B9               	movwf	___flmul@prod
  5518     0526  0826               	movf	___flmul@b+1,w
  5519     0527  00F0               	movwf	__Umul8_16@multiplicand
  5520     0528  082A               	movf	___flmul@a+1,w
  5521     0529  160A  118A  2335  120A  118A  	fcall	__Umul8_16
  5522     052E  0871               	movf	?__Umul8_16+1,w
  5523     052F  1283               	bcf	3,5	;RP0=0, select bank0
  5524     0530  1303               	bcf	3,6	;RP1=0, select bank0
  5525     0531  00BE               	movwf	___flmul@temp+1
  5526     0532  0870               	movf	?__Umul8_16,w
  5527     0533  00BD               	movwf	___flmul@temp
  5528     0534                     l3782:
  5529     0534  083D               	movf	___flmul@temp,w
  5530     0535  00AD               	movwf	??___flmul
  5531     0536  01AE               	clrf	??___flmul+1
  5532     0537  01AF               	clrf	??___flmul+2
  5533     0538  01B0               	clrf	??___flmul+3
  5534     0539  082D               	movf	??___flmul,w
  5535     053A  07B4               	addwf	___flmul@grs,f
  5536     053B  082E               	movf	??___flmul+1,w
  5537     053C  1103               	clrz
  5538     053D  1803               	skipnc
  5539     053E  3E01               	addlw	1
  5540     053F  1903               	skipnz
  5541     0540  2D42               	goto	u5031
  5542     0541  07B5               	addwf	___flmul@grs+1,f
  5543     0542                     u5031:
  5544     0542  082F               	movf	??___flmul+2,w
  5545     0543  1103               	clrz
  5546     0544  1803               	skipnc
  5547     0545  3E01               	addlw	1
  5548     0546  1903               	skipnz
  5549     0547  2D49               	goto	u5032
  5550     0548  07B6               	addwf	___flmul@grs+2,f
  5551     0549                     u5032:
  5552     0549  0830               	movf	??___flmul+3,w
  5553     054A  1103               	clrz
  5554     054B  1803               	skipnc
  5555     054C  3E01               	addlw	1
  5556     054D  1903               	skipnz
  5557     054E  2D50               	goto	u5033
  5558     054F  07B7               	addwf	___flmul@grs+3,f
  5559     0550                     u5033:
  5560     0550                     l3784:
  5561     0550  083E               	movf	___flmul@temp+1,w
  5562     0551  00AD               	movwf	??___flmul
  5563     0552  01AE               	clrf	??___flmul+1
  5564     0553  01AF               	clrf	??___flmul+2
  5565     0554  01B0               	clrf	??___flmul+3
  5566     0555  082D               	movf	??___flmul,w
  5567     0556  07B9               	addwf	___flmul@prod,f
  5568     0557  082E               	movf	??___flmul+1,w
  5569     0558  1103               	clrz
  5570     0559  1803               	skipnc
  5571     055A  3E01               	addlw	1
  5572     055B  1903               	skipnz
  5573     055C  2D5E               	goto	u5041
  5574     055D  07BA               	addwf	___flmul@prod+1,f
  5575     055E                     u5041:
  5576     055E  082F               	movf	??___flmul+2,w
  5577     055F  1103               	clrz
  5578     0560  1803               	skipnc
  5579     0561  3E01               	addlw	1
  5580     0562  1903               	skipnz
  5581     0563  2D65               	goto	u5042
  5582     0564  07BB               	addwf	___flmul@prod+2,f
  5583     0565                     u5042:
  5584     0565  0830               	movf	??___flmul+3,w
  5585     0566  1103               	clrz
  5586     0567  1803               	skipnc
  5587     0568  3E01               	addlw	1
  5588     0569  1903               	skipnz
  5589     056A  2D6C               	goto	u5043
  5590     056B  07BC               	addwf	___flmul@prod+3,f
  5591     056C                     u5043:
  5592     056C  0827               	movf	___flmul@b+2,w
  5593     056D  00F0               	movwf	__Umul8_16@multiplicand
  5594     056E  0829               	movf	___flmul@a,w
  5595     056F  160A  118A  2335  120A  118A  	fcall	__Umul8_16
  5596     0574  0871               	movf	?__Umul8_16+1,w
  5597     0575  1283               	bcf	3,5	;RP0=0, select bank0
  5598     0576  1303               	bcf	3,6	;RP1=0, select bank0
  5599     0577  00BE               	movwf	___flmul@temp+1
  5600     0578  0870               	movf	?__Umul8_16,w
  5601     0579  00BD               	movwf	___flmul@temp
  5602     057A                     l3786:
  5603     057A  083D               	movf	___flmul@temp,w
  5604     057B  00AD               	movwf	??___flmul
  5605     057C  01AE               	clrf	??___flmul+1
  5606     057D  01AF               	clrf	??___flmul+2
  5607     057E  01B0               	clrf	??___flmul+3
  5608     057F  082D               	movf	??___flmul,w
  5609     0580  07B4               	addwf	___flmul@grs,f
  5610     0581  082E               	movf	??___flmul+1,w
  5611     0582  1103               	clrz
  5612     0583  1803               	skipnc
  5613     0584  3E01               	addlw	1
  5614     0585  1903               	skipnz
  5615     0586  2D88               	goto	u5051
  5616     0587  07B5               	addwf	___flmul@grs+1,f
  5617     0588                     u5051:
  5618     0588  082F               	movf	??___flmul+2,w
  5619     0589  1103               	clrz
  5620     058A  1803               	skipnc
  5621     058B  3E01               	addlw	1
  5622     058C  1903               	skipnz
  5623     058D  2D8F               	goto	u5052
  5624     058E  07B6               	addwf	___flmul@grs+2,f
  5625     058F                     u5052:
  5626     058F  0830               	movf	??___flmul+3,w
  5627     0590  1103               	clrz
  5628     0591  1803               	skipnc
  5629     0592  3E01               	addlw	1
  5630     0593  1903               	skipnz
  5631     0594  2D96               	goto	u5053
  5632     0595  07B7               	addwf	___flmul@grs+3,f
  5633     0596                     u5053:
  5634     0596                     l3788:
  5635     0596  083E               	movf	___flmul@temp+1,w
  5636     0597  00AD               	movwf	??___flmul
  5637     0598  01AE               	clrf	??___flmul+1
  5638     0599  01AF               	clrf	??___flmul+2
  5639     059A  01B0               	clrf	??___flmul+3
  5640     059B  082D               	movf	??___flmul,w
  5641     059C  07B9               	addwf	___flmul@prod,f
  5642     059D  082E               	movf	??___flmul+1,w
  5643     059E  1103               	clrz
  5644     059F  1803               	skipnc
  5645     05A0  3E01               	addlw	1
  5646     05A1  1903               	skipnz
  5647     05A2  2DA4               	goto	u5061
  5648     05A3  07BA               	addwf	___flmul@prod+1,f
  5649     05A4                     u5061:
  5650     05A4  082F               	movf	??___flmul+2,w
  5651     05A5  1103               	clrz
  5652     05A6  1803               	skipnc
  5653     05A7  3E01               	addlw	1
  5654     05A8  1903               	skipnz
  5655     05A9  2DAB               	goto	u5062
  5656     05AA  07BB               	addwf	___flmul@prod+2,f
  5657     05AB                     u5062:
  5658     05AB  0830               	movf	??___flmul+3,w
  5659     05AC  1103               	clrz
  5660     05AD  1803               	skipnc
  5661     05AE  3E01               	addlw	1
  5662     05AF  1903               	skipnz
  5663     05B0  2DB2               	goto	u5063
  5664     05B1  07BC               	addwf	___flmul@prod+3,f
  5665     05B2                     u5063:
  5666     05B2                     l3790:
  5667     05B2  3008               	movlw	8
  5668     05B3  00AD               	movwf	??___flmul
  5669     05B4                     u5075:
  5670     05B4  1003               	clrc
  5671     05B5  0DB4               	rlf	___flmul@grs,f
  5672     05B6  0DB5               	rlf	___flmul@grs+1,f
  5673     05B7  0DB6               	rlf	___flmul@grs+2,f
  5674     05B8  0DB7               	rlf	___flmul@grs+3,f
  5675     05B9  0BAD               	decfsz	??___flmul,f
  5676     05BA  2DB4               	goto	u5075
  5677     05BB                     l3792:
  5678     05BB  0826               	movf	___flmul@b+1,w
  5679     05BC  00F0               	movwf	__Umul8_16@multiplicand
  5680     05BD  0829               	movf	___flmul@a,w
  5681     05BE  160A  118A  2335  120A  118A  	fcall	__Umul8_16
  5682     05C3  0871               	movf	?__Umul8_16+1,w
  5683     05C4  1283               	bcf	3,5	;RP0=0, select bank0
  5684     05C5  1303               	bcf	3,6	;RP1=0, select bank0
  5685     05C6  00BE               	movwf	___flmul@temp+1
  5686     05C7  0870               	movf	?__Umul8_16,w
  5687     05C8  00BD               	movwf	___flmul@temp
  5688     05C9                     l3794:
  5689     05C9  083D               	movf	___flmul@temp,w
  5690     05CA  00AD               	movwf	??___flmul
  5691     05CB  083E               	movf	___flmul@temp+1,w
  5692     05CC  00AE               	movwf	??___flmul+1
  5693     05CD  01AF               	clrf	??___flmul+2
  5694     05CE  01B0               	clrf	??___flmul+3
  5695     05CF  082D               	movf	??___flmul,w
  5696     05D0  07B4               	addwf	___flmul@grs,f
  5697     05D1  082E               	movf	??___flmul+1,w
  5698     05D2  1103               	clrz
  5699     05D3  1803               	skipnc
  5700     05D4  3E01               	addlw	1
  5701     05D5  1903               	skipnz
  5702     05D6  2DD8               	goto	u5081
  5703     05D7  07B5               	addwf	___flmul@grs+1,f
  5704     05D8                     u5081:
  5705     05D8  082F               	movf	??___flmul+2,w
  5706     05D9  1103               	clrz
  5707     05DA  1803               	skipnc
  5708     05DB  3E01               	addlw	1
  5709     05DC  1903               	skipnz
  5710     05DD  2DDF               	goto	u5082
  5711     05DE  07B6               	addwf	___flmul@grs+2,f
  5712     05DF                     u5082:
  5713     05DF  0830               	movf	??___flmul+3,w
  5714     05E0  1103               	clrz
  5715     05E1  1803               	skipnc
  5716     05E2  3E01               	addlw	1
  5717     05E3  1903               	skipnz
  5718     05E4  2DE6               	goto	u5083
  5719     05E5  07B7               	addwf	___flmul@grs+3,f
  5720     05E6                     u5083:
  5721     05E6                     l3796:
  5722     05E6  0825               	movf	___flmul@b,w
  5723     05E7  00F0               	movwf	__Umul8_16@multiplicand
  5724     05E8  082A               	movf	___flmul@a+1,w
  5725     05E9  160A  118A  2335  120A  118A  	fcall	__Umul8_16
  5726     05EE  0871               	movf	?__Umul8_16+1,w
  5727     05EF  1283               	bcf	3,5	;RP0=0, select bank0
  5728     05F0  1303               	bcf	3,6	;RP1=0, select bank0
  5729     05F1  00BE               	movwf	___flmul@temp+1
  5730     05F2  0870               	movf	?__Umul8_16,w
  5731     05F3  00BD               	movwf	___flmul@temp
  5732     05F4                     l3798:
  5733     05F4  083D               	movf	___flmul@temp,w
  5734     05F5  00AD               	movwf	??___flmul
  5735     05F6  083E               	movf	___flmul@temp+1,w
  5736     05F7  00AE               	movwf	??___flmul+1
  5737     05F8  01AF               	clrf	??___flmul+2
  5738     05F9  01B0               	clrf	??___flmul+3
  5739     05FA  082D               	movf	??___flmul,w
  5740     05FB  07B4               	addwf	___flmul@grs,f
  5741     05FC  082E               	movf	??___flmul+1,w
  5742     05FD  1103               	clrz
  5743     05FE  1803               	skipnc
  5744     05FF  3E01               	addlw	1
  5745     0600  1903               	skipnz
  5746     0601  2E03               	goto	u5091
  5747     0602  07B5               	addwf	___flmul@grs+1,f
  5748     0603                     u5091:
  5749     0603  082F               	movf	??___flmul+2,w
  5750     0604  1103               	clrz
  5751     0605  1803               	skipnc
  5752     0606  3E01               	addlw	1
  5753     0607  1903               	skipnz
  5754     0608  2E0A               	goto	u5092
  5755     0609  07B6               	addwf	___flmul@grs+2,f
  5756     060A                     u5092:
  5757     060A  0830               	movf	??___flmul+3,w
  5758     060B  1103               	clrz
  5759     060C  1803               	skipnc
  5760     060D  3E01               	addlw	1
  5761     060E  1903               	skipnz
  5762     060F  2E11               	goto	u5093
  5763     0610  07B7               	addwf	___flmul@grs+3,f
  5764     0611                     u5093:
  5765     0611                     l3800:
  5766     0611  3008               	movlw	8
  5767     0612  00AD               	movwf	??___flmul
  5768     0613                     u5105:
  5769     0613  1003               	clrc
  5770     0614  0DB4               	rlf	___flmul@grs,f
  5771     0615  0DB5               	rlf	___flmul@grs+1,f
  5772     0616  0DB6               	rlf	___flmul@grs+2,f
  5773     0617  0DB7               	rlf	___flmul@grs+3,f
  5774     0618  0BAD               	decfsz	??___flmul,f
  5775     0619  2E13               	goto	u5105
  5776     061A  0825               	movf	___flmul@b,w
  5777     061B  00F0               	movwf	__Umul8_16@multiplicand
  5778     061C  0829               	movf	___flmul@a,w
  5779     061D  160A  118A  2335  120A  118A  	fcall	__Umul8_16
  5780     0622  0871               	movf	?__Umul8_16+1,w
  5781     0623  1283               	bcf	3,5	;RP0=0, select bank0
  5782     0624  1303               	bcf	3,6	;RP1=0, select bank0
  5783     0625  00BE               	movwf	___flmul@temp+1
  5784     0626  0870               	movf	?__Umul8_16,w
  5785     0627  00BD               	movwf	___flmul@temp
  5786     0628                     l3802:
  5787     0628  083D               	movf	___flmul@temp,w
  5788     0629  00AD               	movwf	??___flmul
  5789     062A  083E               	movf	___flmul@temp+1,w
  5790     062B  00AE               	movwf	??___flmul+1
  5791     062C  01AF               	clrf	??___flmul+2
  5792     062D  01B0               	clrf	??___flmul+3
  5793     062E  082D               	movf	??___flmul,w
  5794     062F  07B4               	addwf	___flmul@grs,f
  5795     0630  082E               	movf	??___flmul+1,w
  5796     0631  1103               	clrz
  5797     0632  1803               	skipnc
  5798     0633  3E01               	addlw	1
  5799     0634  1903               	skipnz
  5800     0635  2E37               	goto	u5111
  5801     0636  07B5               	addwf	___flmul@grs+1,f
  5802     0637                     u5111:
  5803     0637  082F               	movf	??___flmul+2,w
  5804     0638  1103               	clrz
  5805     0639  1803               	skipnc
  5806     063A  3E01               	addlw	1
  5807     063B  1903               	skipnz
  5808     063C  2E3E               	goto	u5112
  5809     063D  07B6               	addwf	___flmul@grs+2,f
  5810     063E                     u5112:
  5811     063E  0830               	movf	??___flmul+3,w
  5812     063F  1103               	clrz
  5813     0640  1803               	skipnc
  5814     0641  3E01               	addlw	1
  5815     0642  1903               	skipnz
  5816     0643  2E45               	goto	u5113
  5817     0644  07B7               	addwf	___flmul@grs+3,f
  5818     0645                     u5113:
  5819     0645                     l3804:
  5820     0645  0826               	movf	___flmul@b+1,w
  5821     0646  00F0               	movwf	__Umul8_16@multiplicand
  5822     0647  082B               	movf	___flmul@a+2,w
  5823     0648  160A  118A  2335  120A  118A  	fcall	__Umul8_16
  5824     064D  0871               	movf	?__Umul8_16+1,w
  5825     064E  1283               	bcf	3,5	;RP0=0, select bank0
  5826     064F  1303               	bcf	3,6	;RP1=0, select bank0
  5827     0650  00BE               	movwf	___flmul@temp+1
  5828     0651  0870               	movf	?__Umul8_16,w
  5829     0652  00BD               	movwf	___flmul@temp
  5830     0653  083D               	movf	___flmul@temp,w
  5831     0654  00AD               	movwf	??___flmul
  5832     0655  083E               	movf	___flmul@temp+1,w
  5833     0656  00AE               	movwf	??___flmul+1
  5834     0657  01AF               	clrf	??___flmul+2
  5835     0658  01B0               	clrf	??___flmul+3
  5836     0659  082D               	movf	??___flmul,w
  5837     065A  07B9               	addwf	___flmul@prod,f
  5838     065B  082E               	movf	??___flmul+1,w
  5839     065C  1103               	clrz
  5840     065D  1803               	skipnc
  5841     065E  3E01               	addlw	1
  5842     065F  1903               	skipnz
  5843     0660  2E62               	goto	u5121
  5844     0661  07BA               	addwf	___flmul@prod+1,f
  5845     0662                     u5121:
  5846     0662  082F               	movf	??___flmul+2,w
  5847     0663  1103               	clrz
  5848     0664  1803               	skipnc
  5849     0665  3E01               	addlw	1
  5850     0666  1903               	skipnz
  5851     0667  2E69               	goto	u5122
  5852     0668  07BB               	addwf	___flmul@prod+2,f
  5853     0669                     u5122:
  5854     0669  0830               	movf	??___flmul+3,w
  5855     066A  1103               	clrz
  5856     066B  1803               	skipnc
  5857     066C  3E01               	addlw	1
  5858     066D  1903               	skipnz
  5859     066E  2E70               	goto	u5123
  5860     066F  07BC               	addwf	___flmul@prod+3,f
  5861     0670                     u5123:
  5862     0670                     l3806:
  5863     0670  0827               	movf	___flmul@b+2,w
  5864     0671  00F0               	movwf	__Umul8_16@multiplicand
  5865     0672  082A               	movf	___flmul@a+1,w
  5866     0673  160A  118A  2335  120A  118A  	fcall	__Umul8_16
  5867     0678  0871               	movf	?__Umul8_16+1,w
  5868     0679  1283               	bcf	3,5	;RP0=0, select bank0
  5869     067A  1303               	bcf	3,6	;RP1=0, select bank0
  5870     067B  00BE               	movwf	___flmul@temp+1
  5871     067C  0870               	movf	?__Umul8_16,w
  5872     067D  00BD               	movwf	___flmul@temp
  5873     067E                     l3808:
  5874     067E  083D               	movf	___flmul@temp,w
  5875     067F  00AD               	movwf	??___flmul
  5876     0680  083E               	movf	___flmul@temp+1,w
  5877     0681  00AE               	movwf	??___flmul+1
  5878     0682  01AF               	clrf	??___flmul+2
  5879     0683  01B0               	clrf	??___flmul+3
  5880     0684  082D               	movf	??___flmul,w
  5881     0685  07B9               	addwf	___flmul@prod,f
  5882     0686  082E               	movf	??___flmul+1,w
  5883     0687  1103               	clrz
  5884     0688  1803               	skipnc
  5885     0689  3E01               	addlw	1
  5886     068A  1903               	skipnz
  5887     068B  2E8D               	goto	u5131
  5888     068C  07BA               	addwf	___flmul@prod+1,f
  5889     068D                     u5131:
  5890     068D  082F               	movf	??___flmul+2,w
  5891     068E  1103               	clrz
  5892     068F  1803               	skipnc
  5893     0690  3E01               	addlw	1
  5894     0691  1903               	skipnz
  5895     0692  2E94               	goto	u5132
  5896     0693  07BB               	addwf	___flmul@prod+2,f
  5897     0694                     u5132:
  5898     0694  0830               	movf	??___flmul+3,w
  5899     0695  1103               	clrz
  5900     0696  1803               	skipnc
  5901     0697  3E01               	addlw	1
  5902     0698  1903               	skipnz
  5903     0699  2E9B               	goto	u5133
  5904     069A  07BC               	addwf	___flmul@prod+3,f
  5905     069B                     u5133:
  5906     069B  0827               	movf	___flmul@b+2,w
  5907     069C  00F0               	movwf	__Umul8_16@multiplicand
  5908     069D  082B               	movf	___flmul@a+2,w
  5909     069E  160A  118A  2335  120A  118A  	fcall	__Umul8_16
  5910     06A3  0871               	movf	?__Umul8_16+1,w
  5911     06A4  1283               	bcf	3,5	;RP0=0, select bank0
  5912     06A5  1303               	bcf	3,6	;RP1=0, select bank0
  5913     06A6  00BE               	movwf	___flmul@temp+1
  5914     06A7  0870               	movf	?__Umul8_16,w
  5915     06A8  00BD               	movwf	___flmul@temp
  5916     06A9                     l3810:
  5917     06A9  083D               	movf	___flmul@temp,w
  5918     06AA  00AD               	movwf	??___flmul
  5919     06AB  083E               	movf	___flmul@temp+1,w
  5920     06AC  00AE               	movwf	??___flmul+1
  5921     06AD  01AF               	clrf	??___flmul+2
  5922     06AE  01B0               	clrf	??___flmul+3
  5923     06AF  3008               	movlw	8
  5924     06B0                     u5145:
  5925     06B0  1003               	clrc
  5926     06B1  0DAD               	rlf	??___flmul,f
  5927     06B2  0DAE               	rlf	??___flmul+1,f
  5928     06B3  0DAF               	rlf	??___flmul+2,f
  5929     06B4  0DB0               	rlf	??___flmul+3,f
  5930     06B5                     u5140:
  5931     06B5  3EFF               	addlw	-1
  5932     06B6  1D03               	skipz
  5933     06B7  2EB0               	goto	u5145
  5934     06B8  082D               	movf	??___flmul,w
  5935     06B9  07B9               	addwf	___flmul@prod,f
  5936     06BA  082E               	movf	??___flmul+1,w
  5937     06BB  1103               	clrz
  5938     06BC  1803               	skipnc
  5939     06BD  3E01               	addlw	1
  5940     06BE  1903               	skipnz
  5941     06BF  2EC1               	goto	u5151
  5942     06C0  07BA               	addwf	___flmul@prod+1,f
  5943     06C1                     u5151:
  5944     06C1  082F               	movf	??___flmul+2,w
  5945     06C2  1103               	clrz
  5946     06C3  1803               	skipnc
  5947     06C4  3E01               	addlw	1
  5948     06C5  1903               	skipnz
  5949     06C6  2EC8               	goto	u5152
  5950     06C7  07BB               	addwf	___flmul@prod+2,f
  5951     06C8                     u5152:
  5952     06C8  0830               	movf	??___flmul+3,w
  5953     06C9  1103               	clrz
  5954     06CA  1803               	skipnc
  5955     06CB  3E01               	addlw	1
  5956     06CC  1903               	skipnz
  5957     06CD  2ECF               	goto	u5153
  5958     06CE  07BC               	addwf	___flmul@prod+3,f
  5959     06CF                     u5153:
  5960     06CF                     l3812:
  5961     06CF  0834               	movf	___flmul@grs,w
  5962     06D0  00AD               	movwf	??___flmul
  5963     06D1  0835               	movf	___flmul@grs+1,w
  5964     06D2  00AE               	movwf	??___flmul+1
  5965     06D3  0836               	movf	___flmul@grs+2,w
  5966     06D4  00AF               	movwf	??___flmul+2
  5967     06D5  0837               	movf	___flmul@grs+3,w
  5968     06D6  00B0               	movwf	??___flmul+3
  5969     06D7  3018               	movlw	24
  5970     06D8                     u5165:
  5971     06D8  1003               	clrc
  5972     06D9  0CB0               	rrf	??___flmul+3,f
  5973     06DA  0CAF               	rrf	??___flmul+2,f
  5974     06DB  0CAE               	rrf	??___flmul+1,f
  5975     06DC  0CAD               	rrf	??___flmul,f
  5976     06DD                     u5160:
  5977     06DD  3EFF               	addlw	-1
  5978     06DE  1D03               	skipz
  5979     06DF  2ED8               	goto	u5165
  5980     06E0  082D               	movf	??___flmul,w
  5981     06E1  07B9               	addwf	___flmul@prod,f
  5982     06E2  082E               	movf	??___flmul+1,w
  5983     06E3  1103               	clrz
  5984     06E4  1803               	skipnc
  5985     06E5  3E01               	addlw	1
  5986     06E6  1903               	skipnz
  5987     06E7  2EE9               	goto	u5171
  5988     06E8  07BA               	addwf	___flmul@prod+1,f
  5989     06E9                     u5171:
  5990     06E9  082F               	movf	??___flmul+2,w
  5991     06EA  1103               	clrz
  5992     06EB  1803               	skipnc
  5993     06EC  3E01               	addlw	1
  5994     06ED  1903               	skipnz
  5995     06EE  2EF0               	goto	u5172
  5996     06EF  07BB               	addwf	___flmul@prod+2,f
  5997     06F0                     u5172:
  5998     06F0  0830               	movf	??___flmul+3,w
  5999     06F1  1103               	clrz
  6000     06F2  1803               	skipnc
  6001     06F3  3E01               	addlw	1
  6002     06F4  1903               	skipnz
  6003     06F5  2EF7               	goto	u5173
  6004     06F6  07BC               	addwf	___flmul@prod+3,f
  6005     06F7                     u5173:
  6006     06F7                     l3814:
  6007     06F7  3008               	movlw	8
  6008     06F8  00AD               	movwf	??___flmul
  6009     06F9                     u5185:
  6010     06F9  1003               	clrc
  6011     06FA  0DB4               	rlf	___flmul@grs,f
  6012     06FB  0DB5               	rlf	___flmul@grs+1,f
  6013     06FC  0DB6               	rlf	___flmul@grs+2,f
  6014     06FD  0DB7               	rlf	___flmul@grs+3,f
  6015     06FE  0BAD               	decfsz	??___flmul,f
  6016     06FF  2EF9               	goto	u5185
  6017     0700                     l3816:
  6018     0700  0838               	movf	___flmul@bexp,w
  6019     0701  0733               	addwf	___flmul@aexp,w
  6020     0702  00AD               	movwf	??___flmul
  6021     0703  01AE               	clrf	??___flmul+1
  6022     0704  0DAE               	rlf	??___flmul+1,f
  6023     0705  082D               	movf	??___flmul,w
  6024     0706  3E82               	addlw	130
  6025     0707  00BD               	movwf	___flmul@temp
  6026     0708  082E               	movf	??___flmul+1,w
  6027     0709  1803               	skipnc
  6028     070A  3E01               	addlw	1
  6029     070B  3EFF               	addlw	255
  6030     070C  00BE               	movwf	___flmul@temp+1
  6031     070D  2F2B               	goto	l3828
  6032     070E                     l3818:
  6033     070E  3001               	movlw	1
  6034     070F  00AD               	movwf	??___flmul
  6035     0710                     u5195:
  6036     0710  1003               	clrc
  6037     0711  0DB9               	rlf	___flmul@prod,f
  6038     0712  0DBA               	rlf	___flmul@prod+1,f
  6039     0713  0DBB               	rlf	___flmul@prod+2,f
  6040     0714  0DBC               	rlf	___flmul@prod+3,f
  6041     0715  0BAD               	decfsz	??___flmul,f
  6042     0716  2F10               	goto	u5195
  6043     0717                     l3820:
  6044     0717  1FB7               	btfss	___flmul@grs+3,7
  6045     0718  2F1A               	goto	u5201
  6046     0719  2F1B               	goto	u5200
  6047     071A                     u5201:
  6048     071A  2F1C               	goto	l3824
  6049     071B                     u5200:
  6050     071B                     l3822:
  6051     071B  1439               	bsf	___flmul@prod,0
  6052     071C                     l3824:
  6053     071C  3001               	movlw	1
  6054     071D  00AD               	movwf	??___flmul
  6055     071E                     u5215:
  6056     071E  1003               	clrc
  6057     071F  0DB4               	rlf	___flmul@grs,f
  6058     0720  0DB5               	rlf	___flmul@grs+1,f
  6059     0721  0DB6               	rlf	___flmul@grs+2,f
  6060     0722  0DB7               	rlf	___flmul@grs+3,f
  6061     0723  0BAD               	decfsz	??___flmul,f
  6062     0724  2F1E               	goto	u5215
  6063     0725                     l3826:
  6064     0725  30FF               	movlw	255
  6065     0726  07BD               	addwf	___flmul@temp,f
  6066     0727  1803               	skipnc
  6067     0728  0ABE               	incf	___flmul@temp+1,f
  6068     0729  30FF               	movlw	255
  6069     072A  07BE               	addwf	___flmul@temp+1,f
  6070     072B                     l3828:
  6071     072B  1FBB               	btfss	___flmul@prod+2,7
  6072     072C  2F2E               	goto	u5221
  6073     072D  2F2F               	goto	u5220
  6074     072E                     u5221:
  6075     072E  2F0E               	goto	l3818
  6076     072F                     u5220:
  6077     072F                     l3830:
  6078     072F  01B3               	clrf	___flmul@aexp
  6079     0730                     l3832:
  6080     0730  1FB7               	btfss	___flmul@grs+3,7
  6081     0731  2F33               	goto	u5231
  6082     0732  2F34               	goto	u5230
  6083     0733                     u5231:
  6084     0733  2F50               	goto	l3840
  6085     0734                     u5230:
  6086     0734                     l3834:
  6087     0734  30FF               	movlw	255
  6088     0735  0534               	andwf	___flmul@grs,w
  6089     0736  00AD               	movwf	??___flmul
  6090     0737  30FF               	movlw	255
  6091     0738  0535               	andwf	___flmul@grs+1,w
  6092     0739  00AE               	movwf	??___flmul+1
  6093     073A  30FF               	movlw	255
  6094     073B  0536               	andwf	___flmul@grs+2,w
  6095     073C  00AF               	movwf	??___flmul+2
  6096     073D  307F               	movlw	127
  6097     073E  0537               	andwf	___flmul@grs+3,w
  6098     073F  00B0               	movwf	??___flmul+3
  6099     0740  0830               	movf	??___flmul+3,w
  6100     0741  042F               	iorwf	??___flmul+2,w
  6101     0742  042E               	iorwf	??___flmul+1,w
  6102     0743  042D               	iorwf	??___flmul,w
  6103     0744  1903               	skipnz
  6104     0745  2F47               	goto	u5241
  6105     0746  2F48               	goto	u5240
  6106     0747                     u5241:
  6107     0747  2F4B               	goto	l810
  6108     0748                     u5240:
  6109     0748                     l3836:
  6110     0748  01B3               	clrf	___flmul@aexp
  6111     0749  0AB3               	incf	___flmul@aexp,f
  6112     074A  2F50               	goto	l3840
  6113     074B                     l810:
  6114     074B  1C39               	btfss	___flmul@prod,0
  6115     074C  2F4E               	goto	u5251
  6116     074D  2F4F               	goto	u5250
  6117     074E                     u5251:
  6118     074E  2F50               	goto	l3840
  6119     074F                     u5250:
  6120     074F  2F48               	goto	l3836
  6121     0750                     l3840:
  6122     0750  0833               	movf	___flmul@aexp,w
  6123     0751  1903               	btfsc	3,2
  6124     0752  2F54               	goto	u5261
  6125     0753  2F55               	goto	u5260
  6126     0754                     u5261:
  6127     0754  2F86               	goto	l3850
  6128     0755                     u5260:
  6129     0755                     l3842:
  6130     0755  3001               	movlw	1
  6131     0756  07B9               	addwf	___flmul@prod,f
  6132     0757  3000               	movlw	0
  6133     0758  1803               	skipnc
  6134     0759  3001               	movlw	1
  6135     075A  07BA               	addwf	___flmul@prod+1,f
  6136     075B  3000               	movlw	0
  6137     075C  1803               	skipnc
  6138     075D  3001               	movlw	1
  6139     075E  07BB               	addwf	___flmul@prod+2,f
  6140     075F  3000               	movlw	0
  6141     0760  1803               	skipnc
  6142     0761  3001               	movlw	1
  6143     0762  07BC               	addwf	___flmul@prod+3,f
  6144     0763                     l3844:
  6145     0763  1C3C               	btfss	___flmul@prod+3,0
  6146     0764  2F66               	goto	u5271
  6147     0765  2F67               	goto	u5270
  6148     0766                     u5271:
  6149     0766  2F86               	goto	l3850
  6150     0767                     u5270:
  6151     0767                     l3846:
  6152     0767  0839               	movf	___flmul@prod,w
  6153     0768  00AD               	movwf	??___flmul
  6154     0769  083A               	movf	___flmul@prod+1,w
  6155     076A  00AE               	movwf	??___flmul+1
  6156     076B  083B               	movf	___flmul@prod+2,w
  6157     076C  00AF               	movwf	??___flmul+2
  6158     076D  083C               	movf	___flmul@prod+3,w
  6159     076E  00B0               	movwf	??___flmul+3
  6160     076F  3001               	movlw	1
  6161     0770  00B1               	movwf	??___flmul+4
  6162     0771                     u5285:
  6163     0771  0D30               	rlf	??___flmul+3,w
  6164     0772  0CB0               	rrf	??___flmul+3,f
  6165     0773  0CAF               	rrf	??___flmul+2,f
  6166     0774  0CAE               	rrf	??___flmul+1,f
  6167     0775  0CAD               	rrf	??___flmul,f
  6168     0776                     u5280:
  6169     0776  0BB1               	decfsz	??___flmul+4,f
  6170     0777  2F71               	goto	u5285
  6171     0778  0830               	movf	??___flmul+3,w
  6172     0779  00BC               	movwf	___flmul@prod+3
  6173     077A  082F               	movf	??___flmul+2,w
  6174     077B  00BB               	movwf	___flmul@prod+2
  6175     077C  082E               	movf	??___flmul+1,w
  6176     077D  00BA               	movwf	___flmul@prod+1
  6177     077E  082D               	movf	??___flmul,w
  6178     077F  00B9               	movwf	___flmul@prod
  6179     0780                     l3848:
  6180     0780  3001               	movlw	1
  6181     0781  07BD               	addwf	___flmul@temp,f
  6182     0782  1803               	skipnc
  6183     0783  0ABE               	incf	___flmul@temp+1,f
  6184     0784  3000               	movlw	0
  6185     0785  07BE               	addwf	___flmul@temp+1,f
  6186     0786                     l3850:
  6187     0786  083E               	movf	___flmul@temp+1,w
  6188     0787  3A80               	xorlw	128
  6189     0788  00FF               	movwf	btemp+1
  6190     0789  3080               	movlw	128
  6191     078A  027F               	subwf	btemp+1,w
  6192     078B  1D03               	skipz
  6193     078C  2F8F               	goto	u5295
  6194     078D  30FF               	movlw	255
  6195     078E  023D               	subwf	___flmul@temp,w
  6196     078F                     u5295:
  6197     078F  1C03               	skipc
  6198     0790  2F92               	goto	u5291
  6199     0791  2F93               	goto	u5290
  6200     0792                     u5291:
  6201     0792  2F9E               	goto	l3854
  6202     0793                     u5290:
  6203     0793                     l3852:
  6204     0793  307F               	movlw	127
  6205     0794  1283               	bcf	3,5	;RP0=0, select bank0
  6206     0795  1303               	bcf	3,6	;RP1=0, select bank0
  6207     0796  00BC               	movwf	___flmul@prod+3
  6208     0797  3080               	movlw	128
  6209     0798  00BB               	movwf	___flmul@prod+2
  6210     0799  3000               	movlw	0
  6211     079A  00BA               	movwf	___flmul@prod+1
  6212     079B  3000               	movlw	0
  6213     079C  00B9               	movwf	___flmul@prod
  6214     079D  2FCF               	goto	l3868
  6215     079E                     l3854:
  6216     079E  1283               	bcf	3,5	;RP0=0, select bank0
  6217     079F  1303               	bcf	3,6	;RP1=0, select bank0
  6218     07A0  083E               	movf	___flmul@temp+1,w
  6219     07A1  3A80               	xorlw	128
  6220     07A2  00FF               	movwf	btemp+1
  6221     07A3  3080               	movlw	128
  6222     07A4  027F               	subwf	btemp+1,w
  6223     07A5  1D03               	skipz
  6224     07A6  2FA9               	goto	u5305
  6225     07A7  3001               	movlw	1
  6226     07A8  023D               	subwf	___flmul@temp,w
  6227     07A9                     u5305:
  6228     07A9  1803               	skipnc
  6229     07AA  2FAC               	goto	u5301
  6230     07AB  2FAD               	goto	u5300
  6231     07AC                     u5301:
  6232     07AC  2FB9               	goto	l3860
  6233     07AD                     u5300:
  6234     07AD                     l3856:
  6235     07AD  3000               	movlw	0
  6236     07AE  1283               	bcf	3,5	;RP0=0, select bank0
  6237     07AF  1303               	bcf	3,6	;RP1=0, select bank0
  6238     07B0  00BC               	movwf	___flmul@prod+3
  6239     07B1  3000               	movlw	0
  6240     07B2  00BB               	movwf	___flmul@prod+2
  6241     07B3  3000               	movlw	0
  6242     07B4  00BA               	movwf	___flmul@prod+1
  6243     07B5  3000               	movlw	0
  6244     07B6  00B9               	movwf	___flmul@prod
  6245     07B7                     l3858:
  6246     07B7  01B2               	clrf	___flmul@sign
  6247     07B8  2FCF               	goto	l3868
  6248     07B9                     l3860:
  6249     07B9  1283               	bcf	3,5	;RP0=0, select bank0
  6250     07BA  1303               	bcf	3,6	;RP1=0, select bank0
  6251     07BB  083D               	movf	___flmul@temp,w
  6252     07BC  00B8               	movwf	___flmul@bexp
  6253     07BD  30FF               	movlw	255
  6254     07BE  05B9               	andwf	___flmul@prod,f
  6255     07BF  30FF               	movlw	255
  6256     07C0  05BA               	andwf	___flmul@prod+1,f
  6257     07C1  307F               	movlw	127
  6258     07C2  05BB               	andwf	___flmul@prod+2,f
  6259     07C3  3000               	movlw	0
  6260     07C4  05BC               	andwf	___flmul@prod+3,f
  6261     07C5                     l3862:
  6262     07C5  1C38               	btfss	___flmul@bexp,0
  6263     07C6  2FC8               	goto	u5311
  6264     07C7  2FC9               	goto	u5310
  6265     07C8                     u5311:
  6266     07C8  2FCA               	goto	l3866
  6267     07C9                     u5310:
  6268     07C9                     l3864:
  6269     07C9  17BB               	bsf	___flmul@prod+2,7
  6270     07CA                     l3866:
  6271     07CA  0838               	movf	___flmul@bexp,w
  6272     07CB  00AD               	movwf	??___flmul
  6273     07CC  1003               	clrc
  6274     07CD  0C2D               	rrf	??___flmul,w
  6275     07CE  00BC               	movwf	___flmul@prod+3
  6276     07CF                     l3868:
  6277     07CF  0832               	movf	___flmul@sign,w
  6278     07D0  00FF               	movwf	btemp+1
  6279     07D1  087F               	movf	btemp+1,w
  6280     07D2  04BC               	iorwf	___flmul@prod+3,f
  6281     07D3                     l3870:
  6282     07D3  083C               	movf	___flmul@prod+3,w
  6283     07D4  00A8               	movwf	?___flmul+3
  6284     07D5  083B               	movf	___flmul@prod+2,w
  6285     07D6  00A7               	movwf	?___flmul+2
  6286     07D7  083A               	movf	___flmul@prod+1,w
  6287     07D8  00A6               	movwf	?___flmul+1
  6288     07D9  0839               	movf	___flmul@prod,w
  6289     07DA  00A5               	movwf	?___flmul
  6290     07DB                     l804:
  6291     07DB  0008               	return
  6292     07DC                     __end_of___flmul:
  6293                           
  6294                           	psect	text20
  6295     1335                     __ptext20:	
  6296 ;; *************** function __Umul8_16 *****************
  6297 ;; Defined at:
  6298 ;;		line 4 in file "C:\Program Files\Microchip\xc8\v2.41\pic\sources\c90\common\Umul8_16.c"
  6299 ;; Parameters:    Size  Location     Type
  6300 ;;  multiplier      1    wreg     unsigned char 
  6301 ;;  multiplicand    1    0[COMMON] unsigned char 
  6302 ;; Auto vars:     Size  Location     Type
  6303 ;;  multiplier      1    8[COMMON] unsigned char 
  6304 ;;  word_mpld       2    6[COMMON] unsigned int 
  6305 ;;  product         2    4[COMMON] unsigned int 
  6306 ;; Return value:  Size  Location     Type
  6307 ;;                  2    0[COMMON] unsigned int 
  6308 ;; Registers used:
  6309 ;;		wreg, status,2, status,0
  6310 ;; Tracked objects:
  6311 ;;		On entry : 0/0
  6312 ;;		On exit  : 0/0
  6313 ;;		Unchanged: 0/0
  6314 ;; Data sizes:     COMMON   BANK0   BANK1   BANK3   BANK2
  6315 ;;      Params:         2       0       0       0       0
  6316 ;;      Locals:         5       0       0       0       0
  6317 ;;      Temps:          2       0       0       0       0
  6318 ;;      Totals:         9       0       0       0       0
  6319 ;;Total ram usage:        9 bytes
  6320 ;; Hardware stack levels used: 1
  6321 ;; This function calls:
  6322 ;;		Nothing
  6323 ;; This function is called by:
  6324 ;;		___flmul
  6325 ;; This function uses a non-reentrant model
  6326 ;;
  6327                           
  6328     1335                     __Umul8_16:	
  6329                           ;psect for function __Umul8_16
  6330                           
  6331                           
  6332                           ;incstack = 0
  6333                           ; Regs used in __Umul8_16: [wreg+status,2+status,0]
  6334                           ;__Umul8_16@multiplier stored from wreg
  6335     1335  00F8               	movwf	__Umul8_16@multiplier
  6336     1336                     l3506:
  6337     1336  01F4               	clrf	__Umul8_16@product
  6338     1337  01F5               	clrf	__Umul8_16@product+1
  6339     1338                     l3508:
  6340     1338  0870               	movf	__Umul8_16@multiplicand,w
  6341     1339  00F2               	movwf	??__Umul8_16
  6342     133A  01F3               	clrf	??__Umul8_16+1
  6343     133B  0872               	movf	??__Umul8_16,w
  6344     133C  00F6               	movwf	__Umul8_16@word_mpld
  6345     133D  0873               	movf	??__Umul8_16+1,w
  6346     133E  00F7               	movwf	__Umul8_16@word_mpld+1
  6347     133F                     l3510:
  6348     133F  1C78               	btfss	__Umul8_16@multiplier,0
  6349     1340  2B42               	goto	u4431
  6350     1341  2B43               	goto	u4430
  6351     1342                     u4431:
  6352     1342  2B49               	goto	l823
  6353     1343                     u4430:
  6354     1343                     l3512:
  6355     1343  0876               	movf	__Umul8_16@word_mpld,w
  6356     1344  07F4               	addwf	__Umul8_16@product,f
  6357     1345  1803               	skipnc
  6358     1346  0AF5               	incf	__Umul8_16@product+1,f
  6359     1347  0877               	movf	__Umul8_16@word_mpld+1,w
  6360     1348  07F5               	addwf	__Umul8_16@product+1,f
  6361     1349                     l823:
  6362     1349  3001               	movlw	1
  6363     134A                     u4445:
  6364     134A  1003               	clrc
  6365     134B  0DF6               	rlf	__Umul8_16@word_mpld,f
  6366     134C  0DF7               	rlf	__Umul8_16@word_mpld+1,f
  6367     134D  3EFF               	addlw	-1
  6368     134E  1D03               	skipz
  6369     134F  2B4A               	goto	u4445
  6370     1350  1003               	clrc
  6371     1351  0CF8               	rrf	__Umul8_16@multiplier,f
  6372     1352                     l3514:
  6373     1352  0878               	movf	__Umul8_16@multiplier,w
  6374     1353  1D03               	btfss	3,2
  6375     1354  2B56               	goto	u4451
  6376     1355  2B57               	goto	u4450
  6377     1356                     u4451:
  6378     1356  2B3F               	goto	l3510
  6379     1357                     u4450:
  6380     1357                     l3516:
  6381     1357  0875               	movf	__Umul8_16@product+1,w
  6382     1358  00F1               	movwf	?__Umul8_16+1
  6383     1359  0874               	movf	__Umul8_16@product,w
  6384     135A  00F0               	movwf	?__Umul8_16
  6385     135B                     l825:
  6386     135B  0008               	return
  6387     135C                     __end_of__Umul8_16:
  6388                           
  6389                           	psect	text21
  6390     023F                     __ptext21:	
  6391 ;; *************** function ___fladd *****************
  6392 ;; Defined at:
  6393 ;;		line 10 in file "C:\Program Files\Microchip\xc8\v2.41\pic\sources\c90\common\sprcadd.c"
  6394 ;; Parameters:    Size  Location     Type
  6395 ;;  b               4   57[BANK0 ] unsigned int 
  6396 ;;  a               4   61[BANK0 ] unsigned int 
  6397 ;; Auto vars:     Size  Location     Type
  6398 ;;  grs             1   76[BANK0 ] unsigned char 
  6399 ;;  bexp            1   75[BANK0 ] unsigned char 
  6400 ;;  aexp            1   74[BANK0 ] unsigned char 
  6401 ;;  signs           1   73[BANK0 ] unsigned char 
  6402 ;; Return value:  Size  Location     Type
  6403 ;;                  4   57[BANK0 ] unsigned char 
  6404 ;; Registers used:
  6405 ;;		wreg, status,2, status,0, btemp+1
  6406 ;; Tracked objects:
  6407 ;;		On entry : 0/0
  6408 ;;		On exit  : 0/0
  6409 ;;		Unchanged: 0/0
  6410 ;; Data sizes:     COMMON   BANK0   BANK1   BANK3   BANK2
  6411 ;;      Params:         0       8       0       0       0
  6412 ;;      Locals:         0       4       0       0       0
  6413 ;;      Temps:          0       8       0       0       0
  6414 ;;      Totals:         0      20       0       0       0
  6415 ;;Total ram usage:       20 bytes
  6416 ;; Hardware stack levels used: 1
  6417 ;; This function calls:
  6418 ;;		Nothing
  6419 ;; This function is called by:
  6420 ;;		_Calculus_Temperature
  6421 ;;		_log
  6422 ;;		_eval_poly
  6423 ;; This function uses a non-reentrant model
  6424 ;;
  6425                           
  6426     023F                     ___fladd:	
  6427                           ;psect for function ___fladd
  6428                           
  6429     023F                     l3532:	
  6430                           ;incstack = 0
  6431                           ; Regs used in ___fladd: [wreg+status,2+status,0+btemp+1]
  6432                           
  6433     023F  1283               	bcf	3,5	;RP0=0, select bank0
  6434     0240  1303               	bcf	3,6	;RP1=0, select bank0
  6435     0241  085C               	movf	___fladd@b+3,w
  6436     0242  3980               	andlw	128
  6437     0243  00E9               	movwf	___fladd@signs
  6438     0244                     l3534:
  6439     0244  085C               	movf	___fladd@b+3,w
  6440     0245  00E1               	movwf	??___fladd
  6441     0246  0761               	addwf	??___fladd,w
  6442     0247  00EB               	movwf	___fladd@bexp
  6443     0248                     l3536:
  6444     0248  1FDB               	btfss	___fladd@b+2,7
  6445     0249  2A4B               	goto	u4491
  6446     024A  2A4C               	goto	u4490
  6447     024B                     u4491:
  6448     024B  2A4D               	goto	l3540
  6449     024C                     u4490:
  6450     024C                     l3538:
  6451     024C  146B               	bsf	___fladd@bexp,0
  6452     024D                     l3540:
  6453     024D  086B               	movf	___fladd@bexp,w
  6454     024E  1903               	btfsc	3,2
  6455     024F  2A51               	goto	u4501
  6456     0250  2A52               	goto	u4500
  6457     0251                     u4501:
  6458     0251  2A62               	goto	l3550
  6459     0252                     u4500:
  6460     0252                     l3542:
  6461     0252  0A6B               	incf	___fladd@bexp,w
  6462     0253  1D03               	btfss	3,2
  6463     0254  2A56               	goto	u4511
  6464     0255  2A57               	goto	u4510
  6465     0256                     u4511:
  6466     0256  2A5F               	goto	l3546
  6467     0257                     u4510:
  6468     0257                     l3544:
  6469     0257  3000               	movlw	0
  6470     0258  00DC               	movwf	___fladd@b+3
  6471     0259  3000               	movlw	0
  6472     025A  00DB               	movwf	___fladd@b+2
  6473     025B  3000               	movlw	0
  6474     025C  00DA               	movwf	___fladd@b+1
  6475     025D  3000               	movlw	0
  6476     025E  00D9               	movwf	___fladd@b
  6477     025F                     l3546:
  6478     025F  17DB               	bsf	___fladd@b+2,7
  6479     0260                     l3548:
  6480     0260  01DC               	clrf	___fladd@b+3
  6481     0261  2A6A               	goto	l3552
  6482     0262                     l3550:
  6483     0262  3000               	movlw	0
  6484     0263  00DC               	movwf	___fladd@b+3
  6485     0264  3000               	movlw	0
  6486     0265  00DB               	movwf	___fladd@b+2
  6487     0266  3000               	movlw	0
  6488     0267  00DA               	movwf	___fladd@b+1
  6489     0268  3000               	movlw	0
  6490     0269  00D9               	movwf	___fladd@b
  6491     026A                     l3552:
  6492     026A  0860               	movf	___fladd@a+3,w
  6493     026B  3980               	andlw	128
  6494     026C  00EA               	movwf	___fladd@aexp
  6495     026D                     l3554:
  6496     026D  086A               	movf	___fladd@aexp,w
  6497     026E  0669               	xorwf	___fladd@signs,w
  6498     026F  1903               	skipnz
  6499     0270  2A72               	goto	u4521
  6500     0271  2A73               	goto	u4520
  6501     0272                     u4521:
  6502     0272  2A74               	goto	l3558
  6503     0273                     u4520:
  6504     0273                     l3556:
  6505     0273  1769               	bsf	___fladd@signs,6
  6506     0274                     l3558:
  6507     0274  0860               	movf	___fladd@a+3,w
  6508     0275  00E1               	movwf	??___fladd
  6509     0276  0761               	addwf	??___fladd,w
  6510     0277  00EA               	movwf	___fladd@aexp
  6511     0278                     l3560:
  6512     0278  1FDF               	btfss	___fladd@a+2,7
  6513     0279  2A7B               	goto	u4531
  6514     027A  2A7C               	goto	u4530
  6515     027B                     u4531:
  6516     027B  2A7D               	goto	l3564
  6517     027C                     u4530:
  6518     027C                     l3562:
  6519     027C  146A               	bsf	___fladd@aexp,0
  6520     027D                     l3564:
  6521     027D  086A               	movf	___fladd@aexp,w
  6522     027E  1903               	btfsc	3,2
  6523     027F  2A81               	goto	u4541
  6524     0280  2A82               	goto	u4540
  6525     0281                     u4541:
  6526     0281  2A92               	goto	l3574
  6527     0282                     u4540:
  6528     0282                     l3566:
  6529     0282  0A6A               	incf	___fladd@aexp,w
  6530     0283  1D03               	btfss	3,2
  6531     0284  2A86               	goto	u4551
  6532     0285  2A87               	goto	u4550
  6533     0286                     u4551:
  6534     0286  2A8F               	goto	l3570
  6535     0287                     u4550:
  6536     0287                     l3568:
  6537     0287  3000               	movlw	0
  6538     0288  00E0               	movwf	___fladd@a+3
  6539     0289  3000               	movlw	0
  6540     028A  00DF               	movwf	___fladd@a+2
  6541     028B  3000               	movlw	0
  6542     028C  00DE               	movwf	___fladd@a+1
  6543     028D  3000               	movlw	0
  6544     028E  00DD               	movwf	___fladd@a
  6545     028F                     l3570:
  6546     028F  17DF               	bsf	___fladd@a+2,7
  6547     0290                     l3572:
  6548     0290  01E0               	clrf	___fladd@a+3
  6549     0291  2A9A               	goto	l708
  6550     0292                     l3574:
  6551     0292  3000               	movlw	0
  6552     0293  00E0               	movwf	___fladd@a+3
  6553     0294  3000               	movlw	0
  6554     0295  00DF               	movwf	___fladd@a+2
  6555     0296  3000               	movlw	0
  6556     0297  00DE               	movwf	___fladd@a+1
  6557     0298  3000               	movlw	0
  6558     0299  00DD               	movwf	___fladd@a
  6559     029A                     l708:
  6560     029A  086B               	movf	___fladd@bexp,w
  6561     029B  026A               	subwf	___fladd@aexp,w
  6562     029C  1803               	skipnc
  6563     029D  2A9F               	goto	u4561
  6564     029E  2AA0               	goto	u4560
  6565     029F                     u4561:
  6566     029F  2AC6               	goto	l3610
  6567     02A0                     u4560:
  6568     02A0                     l3576:
  6569     02A0  1F69               	btfss	___fladd@signs,6
  6570     02A1  2AA3               	goto	u4571
  6571     02A2  2AA4               	goto	u4570
  6572     02A3                     u4571:
  6573     02A3  2AA8               	goto	l3580
  6574     02A4                     u4570:
  6575     02A4                     l3578:
  6576     02A4  3080               	movlw	128
  6577     02A5  00FF               	movwf	btemp+1
  6578     02A6  087F               	movf	btemp+1,w
  6579     02A7  06E9               	xorwf	___fladd@signs,f
  6580     02A8                     l3580:
  6581     02A8  086B               	movf	___fladd@bexp,w
  6582     02A9  00EC               	movwf	___fladd@grs
  6583     02AA                     l3582:
  6584     02AA  086A               	movf	___fladd@aexp,w
  6585     02AB  00EB               	movwf	___fladd@bexp
  6586     02AC                     l3584:
  6587     02AC  086C               	movf	___fladd@grs,w
  6588     02AD  00EA               	movwf	___fladd@aexp
  6589     02AE                     l3586:
  6590     02AE  0859               	movf	___fladd@b,w
  6591     02AF  00EC               	movwf	___fladd@grs
  6592     02B0                     l3588:
  6593     02B0  085D               	movf	___fladd@a,w
  6594     02B1  00D9               	movwf	___fladd@b
  6595     02B2                     l3590:
  6596     02B2  086C               	movf	___fladd@grs,w
  6597     02B3  00DD               	movwf	___fladd@a
  6598     02B4                     l3592:
  6599     02B4  085A               	movf	___fladd@b+1,w
  6600     02B5  00EC               	movwf	___fladd@grs
  6601     02B6                     l3594:
  6602     02B6  085E               	movf	___fladd@a+1,w
  6603     02B7  00DA               	movwf	___fladd@b+1
  6604     02B8                     l3596:
  6605     02B8  086C               	movf	___fladd@grs,w
  6606     02B9  00DE               	movwf	___fladd@a+1
  6607     02BA                     l3598:
  6608     02BA  085B               	movf	___fladd@b+2,w
  6609     02BB  00EC               	movwf	___fladd@grs
  6610     02BC                     l3600:
  6611     02BC  085F               	movf	___fladd@a+2,w
  6612     02BD  00DB               	movwf	___fladd@b+2
  6613     02BE                     l3602:
  6614     02BE  086C               	movf	___fladd@grs,w
  6615     02BF  00DF               	movwf	___fladd@a+2
  6616     02C0                     l3604:
  6617     02C0  085C               	movf	___fladd@b+3,w
  6618     02C1  00EC               	movwf	___fladd@grs
  6619     02C2                     l3606:
  6620     02C2  0860               	movf	___fladd@a+3,w
  6621     02C3  00DC               	movwf	___fladd@b+3
  6622     02C4                     l3608:
  6623     02C4  086C               	movf	___fladd@grs,w
  6624     02C5  00E0               	movwf	___fladd@a+3
  6625     02C6                     l3610:
  6626     02C6  01EC               	clrf	___fladd@grs
  6627     02C7                     l3612:
  6628     02C7  086A               	movf	___fladd@aexp,w
  6629     02C8  00E1               	movwf	??___fladd
  6630     02C9  01E2               	clrf	??___fladd+1
  6631     02CA  0862               	movf	??___fladd+1,w
  6632     02CB  00E4               	movwf	??___fladd+3
  6633     02CC  086B               	movf	___fladd@bexp,w
  6634     02CD  0261               	subwf	??___fladd,w
  6635     02CE  00E3               	movwf	??___fladd+2
  6636     02CF  1C03               	skipc
  6637     02D0  03E4               	decf	??___fladd+3,f
  6638     02D1  0864               	movf	??___fladd+3,w
  6639     02D2  3A80               	xorlw	128
  6640     02D3  00FF               	movwf	btemp+1
  6641     02D4  3080               	movlw	128
  6642     02D5  027F               	subwf	btemp+1,w
  6643     02D6  1D03               	skipz
  6644     02D7  2ADA               	goto	u4585
  6645     02D8  301A               	movlw	26
  6646     02D9  0263               	subwf	??___fladd+2,w
  6647     02DA                     u4585:
  6648     02DA  1C03               	skipc
  6649     02DB  2ADD               	goto	u4581
  6650     02DC  2ADE               	goto	u4580
  6651     02DD                     u4581:
  6652     02DD  2B15               	goto	l3628
  6653     02DE                     u4580:
  6654     02DE                     l3614:
  6655     02DE  1283               	bcf	3,5	;RP0=0, select bank0
  6656     02DF  1303               	bcf	3,6	;RP1=0, select bank0
  6657     02E0  085C               	movf	___fladd@b+3,w
  6658     02E1  045B               	iorwf	___fladd@b+2,w
  6659     02E2  045A               	iorwf	___fladd@b+1,w
  6660     02E3  0459               	iorwf	___fladd@b,w
  6661     02E4  1D03               	skipz
  6662     02E5  2AE7               	goto	u4591
  6663     02E6  2AE9               	goto	u4590
  6664     02E7                     u4591:
  6665     02E7  3001               	movlw	1
  6666     02E8  2AEA               	goto	u4600
  6667     02E9                     u4590:
  6668     02E9  3000               	movlw	0
  6669     02EA                     u4600:
  6670     02EA  00EC               	movwf	___fladd@grs
  6671     02EB  3000               	movlw	0
  6672     02EC  00DC               	movwf	___fladd@b+3
  6673     02ED  3000               	movlw	0
  6674     02EE  00DB               	movwf	___fladd@b+2
  6675     02EF  3000               	movlw	0
  6676     02F0  00DA               	movwf	___fladd@b+1
  6677     02F1  3000               	movlw	0
  6678     02F2  00D9               	movwf	___fladd@b
  6679     02F3  086A               	movf	___fladd@aexp,w
  6680     02F4  00EB               	movwf	___fladd@bexp
  6681     02F5  2B1D               	goto	l712
  6682     02F6                     l714:
  6683     02F6  1C6C               	btfss	___fladd@grs,0
  6684     02F7  2AF9               	goto	u4611
  6685     02F8  2AFA               	goto	u4610
  6686     02F9                     u4611:
  6687     02F9  2B01               	goto	l3618
  6688     02FA                     u4610:
  6689     02FA                     l3616:
  6690     02FA  086C               	movf	___fladd@grs,w
  6691     02FB  00E1               	movwf	??___fladd
  6692     02FC  1003               	clrc
  6693     02FD  0C61               	rrf	??___fladd,w
  6694     02FE  3801               	iorlw	1
  6695     02FF  00EC               	movwf	___fladd@grs
  6696     0300  2B03               	goto	l3620
  6697     0301                     l3618:
  6698     0301  1003               	clrc
  6699     0302  0CEC               	rrf	___fladd@grs,f
  6700     0303                     l3620:
  6701     0303  1C59               	btfss	___fladd@b,0
  6702     0304  2B06               	goto	u4621
  6703     0305  2B07               	goto	u4620
  6704     0306                     u4621:
  6705     0306  2B08               	goto	l3624
  6706     0307                     u4620:
  6707     0307                     l3622:
  6708     0307  17EC               	bsf	___fladd@grs,7
  6709     0308                     l3624:
  6710     0308  3001               	movlw	1
  6711     0309  00E1               	movwf	??___fladd
  6712     030A                     u4635:
  6713     030A  0D5C               	rlf	___fladd@b+3,w
  6714     030B  0CDC               	rrf	___fladd@b+3,f
  6715     030C  0CDB               	rrf	___fladd@b+2,f
  6716     030D  0CDA               	rrf	___fladd@b+1,f
  6717     030E  0CD9               	rrf	___fladd@b,f
  6718     030F  0BE1               	decfsz	??___fladd& (0+127),f
  6719     0310  2B0A               	goto	u4635
  6720     0311                     l3626:
  6721     0311  3001               	movlw	1
  6722     0312  00FF               	movwf	btemp+1
  6723     0313  087F               	movf	btemp+1,w
  6724     0314  07EB               	addwf	___fladd@bexp,f
  6725     0315                     l3628:
  6726     0315  1283               	bcf	3,5	;RP0=0, select bank0
  6727     0316  1303               	bcf	3,6	;RP1=0, select bank0
  6728     0317  086A               	movf	___fladd@aexp,w
  6729     0318  026B               	subwf	___fladd@bexp,w
  6730     0319  1C03               	skipc
  6731     031A  2B1C               	goto	u4641
  6732     031B  2B1D               	goto	u4640
  6733     031C                     u4641:
  6734     031C  2AF6               	goto	l714
  6735     031D                     u4640:
  6736     031D                     l712:
  6737     031D  1B69               	btfsc	___fladd@signs,6
  6738     031E  2B20               	goto	u4651
  6739     031F  2B21               	goto	u4650
  6740     0320                     u4651:
  6741     0320  2B6A               	goto	l3654
  6742     0321                     u4650:
  6743     0321                     l3630:
  6744     0321  086B               	movf	___fladd@bexp,w
  6745     0322  1D03               	btfss	3,2
  6746     0323  2B25               	goto	u4661
  6747     0324  2B26               	goto	u4660
  6748     0325                     u4661:
  6749     0325  2B2F               	goto	l3636
  6750     0326                     u4660:
  6751     0326                     l3632:
  6752     0326  3000               	movlw	0
  6753     0327  00DC               	movwf	?___fladd+3
  6754     0328  3000               	movlw	0
  6755     0329  00DB               	movwf	?___fladd+2
  6756     032A  3000               	movlw	0
  6757     032B  00DA               	movwf	?___fladd+1
  6758     032C  3000               	movlw	0
  6759     032D  00D9               	movwf	?___fladd
  6760     032E  2C96               	goto	l721
  6761     032F                     l3636:
  6762     032F  085D               	movf	___fladd@a,w
  6763     0330  07D9               	addwf	___fladd@b,f
  6764     0331  085E               	movf	___fladd@a+1,w
  6765     0332  1103               	clrz
  6766     0333  1803               	skipnc
  6767     0334  3E01               	addlw	1
  6768     0335  1903               	skipnz
  6769     0336  2B38               	goto	u4671
  6770     0337  07DA               	addwf	___fladd@b+1,f
  6771     0338                     u4671:
  6772     0338  085F               	movf	___fladd@a+2,w
  6773     0339  1103               	clrz
  6774     033A  1803               	skipnc
  6775     033B  3E01               	addlw	1
  6776     033C  1903               	skipnz
  6777     033D  2B3F               	goto	u4672
  6778     033E  07DB               	addwf	___fladd@b+2,f
  6779     033F                     u4672:
  6780     033F  0860               	movf	___fladd@a+3,w
  6781     0340  1103               	clrz
  6782     0341  1803               	skipnc
  6783     0342  3E01               	addlw	1
  6784     0343  1903               	skipnz
  6785     0344  2B46               	goto	u4673
  6786     0345  07DC               	addwf	___fladd@b+3,f
  6787     0346                     u4673:
  6788     0346                     l3638:
  6789     0346  1C5C               	btfss	___fladd@b+3,0
  6790     0347  2B49               	goto	u4681
  6791     0348  2B4A               	goto	u4680
  6792     0349                     u4681:
  6793     0349  2C1E               	goto	l3690
  6794     034A                     u4680:
  6795     034A                     l3640:
  6796     034A  1C6C               	btfss	___fladd@grs,0
  6797     034B  2B4D               	goto	u4691
  6798     034C  2B4E               	goto	u4690
  6799     034D                     u4691:
  6800     034D  2B55               	goto	l3644
  6801     034E                     u4690:
  6802     034E                     l3642:
  6803     034E  086C               	movf	___fladd@grs,w
  6804     034F  00E1               	movwf	??___fladd
  6805     0350  1003               	clrc
  6806     0351  0C61               	rrf	??___fladd,w
  6807     0352  3801               	iorlw	1
  6808     0353  00EC               	movwf	___fladd@grs
  6809     0354  2B57               	goto	l3646
  6810     0355                     l3644:
  6811     0355  1003               	clrc
  6812     0356  0CEC               	rrf	___fladd@grs,f
  6813     0357                     l3646:
  6814     0357  1C59               	btfss	___fladd@b,0
  6815     0358  2B5A               	goto	u4701
  6816     0359  2B5B               	goto	u4700
  6817     035A                     u4701:
  6818     035A  2B5C               	goto	l3650
  6819     035B                     u4700:
  6820     035B                     l3648:
  6821     035B  17EC               	bsf	___fladd@grs,7
  6822     035C                     l3650:
  6823     035C  3001               	movlw	1
  6824     035D  00E1               	movwf	??___fladd
  6825     035E                     u4715:
  6826     035E  0D5C               	rlf	___fladd@b+3,w
  6827     035F  0CDC               	rrf	___fladd@b+3,f
  6828     0360  0CDB               	rrf	___fladd@b+2,f
  6829     0361  0CDA               	rrf	___fladd@b+1,f
  6830     0362  0CD9               	rrf	___fladd@b,f
  6831     0363  0BE1               	decfsz	??___fladd& (0+127),f
  6832     0364  2B5E               	goto	u4715
  6833     0365                     l3652:
  6834     0365  3001               	movlw	1
  6835     0366  00FF               	movwf	btemp+1
  6836     0367  087F               	movf	btemp+1,w
  6837     0368  07EB               	addwf	___fladd@bexp,f
  6838     0369  2C1E               	goto	l3690
  6839     036A                     l3654:
  6840     036A  085C               	movf	___fladd@b+3,w
  6841     036B  3A80               	xorlw	128
  6842     036C  00FF               	movwf	btemp+1
  6843     036D  0860               	movf	___fladd@a+3,w
  6844     036E  3A80               	xorlw	128
  6845     036F  027F               	subwf	btemp+1,w
  6846     0370  1D03               	skipz
  6847     0371  2B7C               	goto	u4723
  6848     0372  085F               	movf	___fladd@a+2,w
  6849     0373  025B               	subwf	___fladd@b+2,w
  6850     0374  1D03               	skipz
  6851     0375  2B7C               	goto	u4723
  6852     0376  085E               	movf	___fladd@a+1,w
  6853     0377  025A               	subwf	___fladd@b+1,w
  6854     0378  1D03               	skipz
  6855     0379  2B7C               	goto	u4723
  6856     037A  085D               	movf	___fladd@a,w
  6857     037B  0259               	subwf	___fladd@b,w
  6858     037C                     u4723:
  6859     037C  1803               	skipnc
  6860     037D  2B7F               	goto	u4721
  6861     037E  2B80               	goto	u4720
  6862     037F                     u4721:
  6863     037F  2BD8               	goto	l3666
  6864     0380                     u4720:
  6865     0380                     l3656:
  6866     0380  30FF               	movlw	255
  6867     0381  00E1               	movwf	??___fladd
  6868     0382  30FF               	movlw	255
  6869     0383  00E2               	movwf	??___fladd+1
  6870     0384  30FF               	movlw	255
  6871     0385  00E3               	movwf	??___fladd+2
  6872     0386  30FF               	movlw	255
  6873     0387  00E4               	movwf	??___fladd+3
  6874     0388  085D               	movf	___fladd@a,w
  6875     0389  00E5               	movwf	??___fladd+4
  6876     038A  085E               	movf	___fladd@a+1,w
  6877     038B  00E6               	movwf	??___fladd+5
  6878     038C  085F               	movf	___fladd@a+2,w
  6879     038D  00E7               	movwf	??___fladd+6
  6880     038E  0860               	movf	___fladd@a+3,w
  6881     038F  00E8               	movwf	??___fladd+7
  6882     0390  0859               	movf	___fladd@b,w
  6883     0391  02E5               	subwf	??___fladd+4,f
  6884     0392  085A               	movf	___fladd@b+1,w
  6885     0393  1C03               	skipc
  6886     0394  0F5A               	incfsz	___fladd@b+1,w
  6887     0395  2B97               	goto	u4731
  6888     0396  2B98               	goto	u4732
  6889     0397                     u4731:
  6890     0397  02E6               	subwf	??___fladd+5,f
  6891     0398                     u4732:
  6892     0398  085B               	movf	___fladd@b+2,w
  6893     0399  1C03               	skipc
  6894     039A  0F5B               	incfsz	___fladd@b+2,w
  6895     039B  2B9D               	goto	u4733
  6896     039C  2B9E               	goto	u4734
  6897     039D                     u4733:
  6898     039D  02E7               	subwf	??___fladd+6,f
  6899     039E                     u4734:
  6900     039E  085C               	movf	___fladd@b+3,w
  6901     039F  1C03               	skipc
  6902     03A0  0F5C               	incfsz	___fladd@b+3,w
  6903     03A1  2BA3               	goto	u4735
  6904     03A2  2BA4               	goto	u4736
  6905     03A3                     u4735:
  6906     03A3  02E8               	subwf	??___fladd+7,f
  6907     03A4                     u4736:
  6908     03A4  0865               	movf	??___fladd+4,w
  6909     03A5  07E1               	addwf	??___fladd,f
  6910     03A6  0866               	movf	??___fladd+5,w
  6911     03A7  1803               	skipnc
  6912     03A8  0F66               	incfsz	??___fladd+5,w
  6913     03A9  2BAB               	goto	u4740
  6914     03AA  2BAC               	goto	u4741
  6915     03AB                     u4740:
  6916     03AB  07E2               	addwf	??___fladd+1,f
  6917     03AC                     u4741:
  6918     03AC  0867               	movf	??___fladd+6,w
  6919     03AD  1803               	skipnc
  6920     03AE  0F67               	incfsz	??___fladd+6,w
  6921     03AF  2BB1               	goto	u4742
  6922     03B0  2BB2               	goto	u4743
  6923     03B1                     u4742:
  6924     03B1  07E3               	addwf	??___fladd+2,f
  6925     03B2                     u4743:
  6926     03B2  0868               	movf	??___fladd+7,w
  6927     03B3  1803               	skipnc
  6928     03B4  0A68               	incf	??___fladd+7,w
  6929     03B5  07E4               	addwf	??___fladd+3,f
  6930     03B6  0864               	movf	??___fladd+3,w
  6931     03B7  00DC               	movwf	___fladd@b+3
  6932     03B8  0863               	movf	??___fladd+2,w
  6933     03B9  00DB               	movwf	___fladd@b+2
  6934     03BA  0862               	movf	??___fladd+1,w
  6935     03BB  00DA               	movwf	___fladd@b+1
  6936     03BC  0861               	movf	??___fladd,w
  6937     03BD  00D9               	movwf	___fladd@b
  6938     03BE                     l3658:
  6939     03BE  3080               	movlw	128
  6940     03BF  00FF               	movwf	btemp+1
  6941     03C0  087F               	movf	btemp+1,w
  6942     03C1  06E9               	xorwf	___fladd@signs,f
  6943     03C2                     l3660:
  6944     03C2  09EC               	comf	___fladd@grs,f
  6945     03C3  0AEC               	incf	___fladd@grs,f
  6946     03C4                     l3662:
  6947     03C4  086C               	movf	___fladd@grs,w
  6948     03C5  1D03               	btfss	3,2
  6949     03C6  2BC8               	goto	u4751
  6950     03C7  2BC9               	goto	u4750
  6951     03C8                     u4751:
  6952     03C8  2BE6               	goto	l729
  6953     03C9                     u4750:
  6954     03C9                     l3664:
  6955     03C9  3001               	movlw	1
  6956     03CA  07D9               	addwf	___fladd@b,f
  6957     03CB  3000               	movlw	0
  6958     03CC  1803               	skipnc
  6959     03CD  3001               	movlw	1
  6960     03CE  07DA               	addwf	___fladd@b+1,f
  6961     03CF  3000               	movlw	0
  6962     03D0  1803               	skipnc
  6963     03D1  3001               	movlw	1
  6964     03D2  07DB               	addwf	___fladd@b+2,f
  6965     03D3  3000               	movlw	0
  6966     03D4  1803               	skipnc
  6967     03D5  3001               	movlw	1
  6968     03D6  07DC               	addwf	___fladd@b+3,f
  6969     03D7  2BE6               	goto	l729
  6970     03D8                     l3666:
  6971     03D8  085D               	movf	___fladd@a,w
  6972     03D9  02D9               	subwf	___fladd@b,f
  6973     03DA  085E               	movf	___fladd@a+1,w
  6974     03DB  1C03               	skipc
  6975     03DC  0F5E               	incfsz	___fladd@a+1,w
  6976     03DD  02DA               	subwf	___fladd@b+1,f
  6977     03DE  085F               	movf	___fladd@a+2,w
  6978     03DF  1C03               	skipc
  6979     03E0  0F5F               	incfsz	___fladd@a+2,w
  6980     03E1  02DB               	subwf	___fladd@b+2,f
  6981     03E2  0860               	movf	___fladd@a+3,w
  6982     03E3  1C03               	skipc
  6983     03E4  0F60               	incfsz	___fladd@a+3,w
  6984     03E5  02DC               	subwf	___fladd@b+3,f
  6985     03E6                     l729:
  6986     03E6  085C               	movf	___fladd@b+3,w
  6987     03E7  045B               	iorwf	___fladd@b+2,w
  6988     03E8  045A               	iorwf	___fladd@b+1,w
  6989     03E9  0459               	iorwf	___fladd@b,w
  6990     03EA  1D03               	skipz
  6991     03EB  2BED               	goto	u4761
  6992     03EC  2BEE               	goto	u4760
  6993     03ED                     u4761:
  6994     03ED  2C1A               	goto	l3688
  6995     03EE                     u4760:
  6996     03EE                     l3668:
  6997     03EE  086C               	movf	___fladd@grs,w
  6998     03EF  1D03               	btfss	3,2
  6999     03F0  2BF2               	goto	u4771
  7000     03F1  2BF3               	goto	u4770
  7001     03F2                     u4771:
  7002     03F2  2C1A               	goto	l3688
  7003     03F3                     u4770:
  7004     03F3                     l3670:
  7005     03F3  3000               	movlw	0
  7006     03F4  00DC               	movwf	?___fladd+3
  7007     03F5  3000               	movlw	0
  7008     03F6  00DB               	movwf	?___fladd+2
  7009     03F7  3000               	movlw	0
  7010     03F8  00DA               	movwf	?___fladd+1
  7011     03F9  3000               	movlw	0
  7012     03FA  00D9               	movwf	?___fladd
  7013     03FB  2C96               	goto	l721
  7014     03FC                     l3674:
  7015     03FC  3001               	movlw	1
  7016     03FD  00E1               	movwf	??___fladd
  7017     03FE                     u4785:
  7018     03FE  1003               	clrc
  7019     03FF  0DD9               	rlf	___fladd@b,f
  7020     0400  0DDA               	rlf	___fladd@b+1,f
  7021     0401  0DDB               	rlf	___fladd@b+2,f
  7022     0402  0DDC               	rlf	___fladd@b+3,f
  7023     0403  0BE1               	decfsz	??___fladd,f
  7024     0404  2BFE               	goto	u4785
  7025     0405                     l3676:
  7026     0405  1FEC               	btfss	___fladd@grs,7
  7027     0406  2C08               	goto	u4791
  7028     0407  2C09               	goto	u4790
  7029     0408                     u4791:
  7030     0408  2C0A               	goto	l733
  7031     0409                     u4790:
  7032     0409                     l3678:
  7033     0409  1459               	bsf	___fladd@b,0
  7034     040A                     l733:
  7035     040A  1C6C               	btfss	___fladd@grs,0
  7036     040B  2C0D               	goto	u4801
  7037     040C  2C0E               	goto	u4800
  7038     040D                     u4801:
  7039     040D  2C11               	goto	l3682
  7040     040E                     u4800:
  7041     040E                     l3680:
  7042     040E  1403               	setc
  7043     040F  0DEC               	rlf	___fladd@grs,f
  7044     0410  2C13               	goto	l3684
  7045     0411                     l3682:
  7046     0411  1003               	clrc
  7047     0412  0DEC               	rlf	___fladd@grs,f
  7048     0413                     l3684:
  7049     0413  086B               	movf	___fladd@bexp,w
  7050     0414  1903               	btfsc	3,2
  7051     0415  2C17               	goto	u4811
  7052     0416  2C18               	goto	u4810
  7053     0417                     u4811:
  7054     0417  2C1A               	goto	l3688
  7055     0418                     u4810:
  7056     0418                     l3686:
  7057     0418  3001               	movlw	1
  7058     0419  02EB               	subwf	___fladd@bexp,f
  7059     041A                     l3688:
  7060     041A  1FDB               	btfss	___fladd@b+2,7
  7061     041B  2C1D               	goto	u4821
  7062     041C  2C1E               	goto	u4820
  7063     041D                     u4821:
  7064     041D  2BFC               	goto	l3674
  7065     041E                     u4820:
  7066     041E                     l3690:
  7067     041E  01EA               	clrf	___fladd@aexp
  7068     041F                     l3692:
  7069     041F  1FEC               	btfss	___fladd@grs,7
  7070     0420  2C22               	goto	u4831
  7071     0421  2C23               	goto	u4830
  7072     0422                     u4831:
  7073     0422  2C31               	goto	l3700
  7074     0423                     u4830:
  7075     0423                     l3694:
  7076     0423  086C               	movf	___fladd@grs,w
  7077     0424  397F               	andlw	127
  7078     0425  1903               	btfsc	3,2
  7079     0426  2C28               	goto	u4841
  7080     0427  2C29               	goto	u4840
  7081     0428                     u4841:
  7082     0428  2C2C               	goto	l739
  7083     0429                     u4840:
  7084     0429                     l3696:
  7085     0429  01EA               	clrf	___fladd@aexp
  7086     042A  0AEA               	incf	___fladd@aexp,f
  7087     042B  2C31               	goto	l3700
  7088     042C                     l739:
  7089     042C  1C59               	btfss	___fladd@b,0
  7090     042D  2C2F               	goto	u4851
  7091     042E  2C30               	goto	u4850
  7092     042F                     u4851:
  7093     042F  2C31               	goto	l3700
  7094     0430                     u4850:
  7095     0430  2C29               	goto	l3696
  7096     0431                     l3700:
  7097     0431  086A               	movf	___fladd@aexp,w
  7098     0432  1903               	btfsc	3,2
  7099     0433  2C35               	goto	u4861
  7100     0434  2C36               	goto	u4860
  7101     0435                     u4861:
  7102     0435  2C6A               	goto	l3710
  7103     0436                     u4860:
  7104     0436                     l3702:
  7105     0436  3001               	movlw	1
  7106     0437  07D9               	addwf	___fladd@b,f
  7107     0438  3000               	movlw	0
  7108     0439  1803               	skipnc
  7109     043A  3001               	movlw	1
  7110     043B  07DA               	addwf	___fladd@b+1,f
  7111     043C  3000               	movlw	0
  7112     043D  1803               	skipnc
  7113     043E  3001               	movlw	1
  7114     043F  07DB               	addwf	___fladd@b+2,f
  7115     0440  3000               	movlw	0
  7116     0441  1803               	skipnc
  7117     0442  3001               	movlw	1
  7118     0443  07DC               	addwf	___fladd@b+3,f
  7119     0444                     l3704:
  7120     0444  1C5C               	btfss	___fladd@b+3,0
  7121     0445  2C47               	goto	u4871
  7122     0446  2C48               	goto	u4870
  7123     0447                     u4871:
  7124     0447  2C6A               	goto	l3710
  7125     0448                     u4870:
  7126     0448                     l3706:
  7127     0448  0859               	movf	___fladd@b,w
  7128     0449  00E1               	movwf	??___fladd
  7129     044A  085A               	movf	___fladd@b+1,w
  7130     044B  00E2               	movwf	??___fladd+1
  7131     044C  085B               	movf	___fladd@b+2,w
  7132     044D  00E3               	movwf	??___fladd+2
  7133     044E  085C               	movf	___fladd@b+3,w
  7134     044F  00E4               	movwf	??___fladd+3
  7135     0450  3001               	movlw	1
  7136     0451  00E5               	movwf	??___fladd+4
  7137     0452                     u4885:
  7138     0452  0D64               	rlf	??___fladd+3,w
  7139     0453  0CE4               	rrf	??___fladd+3,f
  7140     0454  0CE3               	rrf	??___fladd+2,f
  7141     0455  0CE2               	rrf	??___fladd+1,f
  7142     0456  0CE1               	rrf	??___fladd,f
  7143     0457                     u4880:
  7144     0457  0BE5               	decfsz	??___fladd+4,f
  7145     0458  2C52               	goto	u4885
  7146     0459  0864               	movf	??___fladd+3,w
  7147     045A  00DC               	movwf	___fladd@b+3
  7148     045B  0863               	movf	??___fladd+2,w
  7149     045C  00DB               	movwf	___fladd@b+2
  7150     045D  0862               	movf	??___fladd+1,w
  7151     045E  00DA               	movwf	___fladd@b+1
  7152     045F  0861               	movf	??___fladd,w
  7153     0460  00D9               	movwf	___fladd@b
  7154     0461  0A6B               	incf	___fladd@bexp,w
  7155     0462  1903               	btfsc	3,2
  7156     0463  2C65               	goto	u4891
  7157     0464  2C66               	goto	u4890
  7158     0465                     u4891:
  7159     0465  2C6A               	goto	l3710
  7160     0466                     u4890:
  7161     0466                     l3708:
  7162     0466  3001               	movlw	1
  7163     0467  00FF               	movwf	btemp+1
  7164     0468  087F               	movf	btemp+1,w
  7165     0469  07EB               	addwf	___fladd@bexp,f
  7166     046A                     l3710:
  7167     046A  0A6B               	incf	___fladd@bexp,w
  7168     046B  1903               	btfsc	3,2
  7169     046C  2C6E               	goto	u4901
  7170     046D  2C6F               	goto	u4900
  7171     046E                     u4901:
  7172     046E  2C74               	goto	l3714
  7173     046F                     u4900:
  7174     046F                     l3712:
  7175     046F  086B               	movf	___fladd@bexp,w
  7176     0470  1D03               	btfss	3,2
  7177     0471  2C73               	goto	u4911
  7178     0472  2C74               	goto	u4910
  7179     0473                     u4911:
  7180     0473  2C82               	goto	l3720
  7181     0474                     u4910:
  7182     0474                     l3714:
  7183     0474  3000               	movlw	0
  7184     0475  00DC               	movwf	___fladd@b+3
  7185     0476  3000               	movlw	0
  7186     0477  00DB               	movwf	___fladd@b+2
  7187     0478  3000               	movlw	0
  7188     0479  00DA               	movwf	___fladd@b+1
  7189     047A  3000               	movlw	0
  7190     047B  00D9               	movwf	___fladd@b
  7191     047C                     l3716:
  7192     047C  086B               	movf	___fladd@bexp,w
  7193     047D  1D03               	btfss	3,2
  7194     047E  2C80               	goto	u4921
  7195     047F  2C81               	goto	u4920
  7196     0480                     u4921:
  7197     0480  2C82               	goto	l3720
  7198     0481                     u4920:
  7199     0481                     l3718:
  7200     0481  01E9               	clrf	___fladd@signs
  7201     0482                     l3720:
  7202     0482  1C6B               	btfss	___fladd@bexp,0
  7203     0483  2C85               	goto	u4931
  7204     0484  2C86               	goto	u4930
  7205     0485                     u4931:
  7206     0485  2C88               	goto	l3724
  7207     0486                     u4930:
  7208     0486                     l3722:
  7209     0486  17DB               	bsf	___fladd@b+2,7
  7210     0487  2C8C               	goto	l3726
  7211     0488                     l3724:
  7212     0488  307F               	movlw	127
  7213     0489  00FF               	movwf	btemp+1
  7214     048A  087F               	movf	btemp+1,w
  7215     048B  05DB               	andwf	___fladd@b+2,f
  7216     048C                     l3726:
  7217     048C  086B               	movf	___fladd@bexp,w
  7218     048D  00E1               	movwf	??___fladd
  7219     048E  1003               	clrc
  7220     048F  0C61               	rrf	??___fladd,w
  7221     0490  00DC               	movwf	___fladd@b+3
  7222     0491                     l3728:
  7223     0491  1FE9               	btfss	___fladd@signs,7
  7224     0492  2C94               	goto	u4941
  7225     0493  2C95               	goto	u4940
  7226     0494                     u4941:
  7227     0494  2C96               	goto	l751
  7228     0495                     u4940:
  7229     0495                     l3730:
  7230     0495  17DC               	bsf	___fladd@b+3,7
  7231     0496                     l751:
  7232     0496                     l721:
  7233     0496  0008               	return
  7234     0497                     __end_of___fladd:
  7235                           
  7236                           	psect	text22
  7237     09C9                     __ptext22:	
  7238 ;; *************** function ___xxtofl *****************
  7239 ;; Defined at:
  7240 ;;		line 10 in file "C:\Program Files\Microchip\xc8\v2.41\pic\sources\c90\common\xxtofl.c"
  7241 ;; Parameters:    Size  Location     Type
  7242 ;;  sign            1    wreg     unsigned char 
  7243 ;;  val             4    0[COMMON] long 
  7244 ;; Auto vars:     Size  Location     Type
  7245 ;;  sign            1    8[COMMON] unsigned char 
  7246 ;;  arg             4   10[COMMON] unsigned long 
  7247 ;;  exp             1    9[COMMON] unsigned char 
  7248 ;; Return value:  Size  Location     Type
  7249 ;;                  4    0[COMMON] unsigned char 
  7250 ;; Registers used:
  7251 ;;		wreg, status,2, status,0, btemp+1
  7252 ;; Tracked objects:
  7253 ;;		On entry : 0/0
  7254 ;;		On exit  : 0/0
  7255 ;;		Unchanged: 0/0
  7256 ;; Data sizes:     COMMON   BANK0   BANK1   BANK3   BANK2
  7257 ;;      Params:         4       0       0       0       0
  7258 ;;      Locals:         6       0       0       0       0
  7259 ;;      Temps:          4       0       0       0       0
  7260 ;;      Totals:        14       0       0       0       0
  7261 ;;Total ram usage:       14 bytes
  7262 ;; Hardware stack levels used: 1
  7263 ;; This function calls:
  7264 ;;		Nothing
  7265 ;; This function is called by:
  7266 ;;		_Calculus_Temperature
  7267 ;;		_log
  7268 ;; This function uses a non-reentrant model
  7269 ;;
  7270                           
  7271     09C9                     ___xxtofl:	
  7272                           ;psect for function ___xxtofl
  7273                           
  7274                           
  7275                           ;incstack = 0
  7276                           ; Regs used in ___xxtofl: [wreg+status,2+status,0+btemp+1]
  7277                           ;___xxtofl@sign stored from wreg
  7278     09C9  00F8               	movwf	___xxtofl@sign
  7279     09CA                     l3894:
  7280     09CA  0878               	movf	___xxtofl@sign,w
  7281     09CB  1903               	btfsc	3,2
  7282     09CC  29CE               	goto	u5391
  7283     09CD  29CF               	goto	u5390
  7284     09CE                     u5391:
  7285     09CE  29E3               	goto	l3900
  7286     09CF                     u5390:
  7287     09CF                     l3896:
  7288     09CF  1FF3               	btfss	___xxtofl@val+3,7
  7289     09D0  29D2               	goto	u5401
  7290     09D1  29D3               	goto	u5400
  7291     09D2                     u5401:
  7292     09D2  29E3               	goto	l3900
  7293     09D3                     u5400:
  7294     09D3                     l3898:
  7295     09D3  0970               	comf	___xxtofl@val,w
  7296     09D4  00FA               	movwf	___xxtofl@arg
  7297     09D5  0971               	comf	___xxtofl@val+1,w
  7298     09D6  00FB               	movwf	___xxtofl@arg+1
  7299     09D7  0972               	comf	___xxtofl@val+2,w
  7300     09D8  00FC               	movwf	___xxtofl@arg+2
  7301     09D9  0973               	comf	___xxtofl@val+3,w
  7302     09DA  00FD               	movwf	___xxtofl@arg+3
  7303     09DB  0AFA               	incf	___xxtofl@arg,f
  7304     09DC  1903               	skipnz
  7305     09DD  0AFB               	incf	___xxtofl@arg+1,f
  7306     09DE  1903               	skipnz
  7307     09DF  0AFC               	incf	___xxtofl@arg+2,f
  7308     09E0  1903               	skipnz
  7309     09E1  0AFD               	incf	___xxtofl@arg+3,f
  7310     09E2  29EB               	goto	l848
  7311     09E3                     l3900:
  7312     09E3  0873               	movf	___xxtofl@val+3,w
  7313     09E4  00FD               	movwf	___xxtofl@arg+3
  7314     09E5  0872               	movf	___xxtofl@val+2,w
  7315     09E6  00FC               	movwf	___xxtofl@arg+2
  7316     09E7  0871               	movf	___xxtofl@val+1,w
  7317     09E8  00FB               	movwf	___xxtofl@arg+1
  7318     09E9  0870               	movf	___xxtofl@val,w
  7319     09EA  00FA               	movwf	___xxtofl@arg
  7320     09EB                     l848:
  7321     09EB  0873               	movf	___xxtofl@val+3,w
  7322     09EC  0472               	iorwf	___xxtofl@val+2,w
  7323     09ED  0471               	iorwf	___xxtofl@val+1,w
  7324     09EE  0470               	iorwf	___xxtofl@val,w
  7325     09EF  1D03               	skipz
  7326     09F0  29F2               	goto	u5411
  7327     09F1  29F3               	goto	u5410
  7328     09F2                     u5411:
  7329     09F2  29FC               	goto	l3906
  7330     09F3                     u5410:
  7331     09F3                     l3902:
  7332     09F3  3000               	movlw	0
  7333     09F4  00F3               	movwf	?___xxtofl+3
  7334     09F5  3000               	movlw	0
  7335     09F6  00F2               	movwf	?___xxtofl+2
  7336     09F7  3000               	movlw	0
  7337     09F8  00F1               	movwf	?___xxtofl+1
  7338     09F9  3000               	movlw	0
  7339     09FA  00F0               	movwf	?___xxtofl
  7340     09FB  2A80               	goto	l850
  7341     09FC                     l3906:
  7342     09FC  3096               	movlw	150
  7343     09FD  00F9               	movwf	___xxtofl@exp
  7344     09FE  2A0C               	goto	l3912
  7345     09FF                     l3908:
  7346     09FF  3001               	movlw	1
  7347     0A00  00FF               	movwf	btemp+1
  7348     0A01  087F               	movf	btemp+1,w
  7349     0A02  07F9               	addwf	___xxtofl@exp,f
  7350     0A03                     l3910:
  7351     0A03  3001               	movlw	1
  7352     0A04                     u5425:
  7353     0A04  1003               	clrc
  7354     0A05  0CFD               	rrf	___xxtofl@arg+3,f
  7355     0A06  0CFC               	rrf	___xxtofl@arg+2,f
  7356     0A07  0CFB               	rrf	___xxtofl@arg+1,f
  7357     0A08  0CFA               	rrf	___xxtofl@arg,f
  7358     0A09  3EFF               	addlw	-1
  7359     0A0A  1D03               	skipz
  7360     0A0B  2A04               	goto	u5425
  7361     0A0C                     l3912:
  7362     0A0C  30FE               	movlw	254
  7363     0A0D  057D               	andwf	___xxtofl@arg+3,w
  7364     0A0E  1D03               	btfss	3,2
  7365     0A0F  2A11               	goto	u5431
  7366     0A10  2A12               	goto	u5430
  7367     0A11                     u5431:
  7368     0A11  29FF               	goto	l3908
  7369     0A12                     u5430:
  7370     0A12  2A2E               	goto	l3920
  7371     0A13                     l3914:
  7372     0A13  3001               	movlw	1
  7373     0A14  00FF               	movwf	btemp+1
  7374     0A15  087F               	movf	btemp+1,w
  7375     0A16  07F9               	addwf	___xxtofl@exp,f
  7376     0A17                     l3916:
  7377     0A17  3001               	movlw	1
  7378     0A18  07FA               	addwf	___xxtofl@arg,f
  7379     0A19  3000               	movlw	0
  7380     0A1A  1803               	skipnc
  7381     0A1B  3001               	movlw	1
  7382     0A1C  07FB               	addwf	___xxtofl@arg+1,f
  7383     0A1D  3000               	movlw	0
  7384     0A1E  1803               	skipnc
  7385     0A1F  3001               	movlw	1
  7386     0A20  07FC               	addwf	___xxtofl@arg+2,f
  7387     0A21  3000               	movlw	0
  7388     0A22  1803               	skipnc
  7389     0A23  3001               	movlw	1
  7390     0A24  07FD               	addwf	___xxtofl@arg+3,f
  7391     0A25                     l3918:
  7392     0A25  3001               	movlw	1
  7393     0A26                     u5445:
  7394     0A26  1003               	clrc
  7395     0A27  0CFD               	rrf	___xxtofl@arg+3,f
  7396     0A28  0CFC               	rrf	___xxtofl@arg+2,f
  7397     0A29  0CFB               	rrf	___xxtofl@arg+1,f
  7398     0A2A  0CFA               	rrf	___xxtofl@arg,f
  7399     0A2B  3EFF               	addlw	-1
  7400     0A2C  1D03               	skipz
  7401     0A2D  2A26               	goto	u5445
  7402     0A2E                     l3920:
  7403     0A2E  30FF               	movlw	255
  7404     0A2F  057D               	andwf	___xxtofl@arg+3,w
  7405     0A30  1D03               	btfss	3,2
  7406     0A31  2A33               	goto	u5451
  7407     0A32  2A34               	goto	u5450
  7408     0A33                     u5451:
  7409     0A33  2A13               	goto	l3914
  7410     0A34                     u5450:
  7411     0A34  2A40               	goto	l3924
  7412     0A35                     l3922:
  7413     0A35  3001               	movlw	1
  7414     0A36  02F9               	subwf	___xxtofl@exp,f
  7415     0A37  3001               	movlw	1
  7416     0A38  00F4               	movwf	??___xxtofl
  7417     0A39                     u5465:
  7418     0A39  1003               	clrc
  7419     0A3A  0DFA               	rlf	___xxtofl@arg,f
  7420     0A3B  0DFB               	rlf	___xxtofl@arg+1,f
  7421     0A3C  0DFC               	rlf	___xxtofl@arg+2,f
  7422     0A3D  0DFD               	rlf	___xxtofl@arg+3,f
  7423     0A3E  0BF4               	decfsz	??___xxtofl,f
  7424     0A3F  2A39               	goto	u5465
  7425     0A40                     l3924:
  7426     0A40  1BFC               	btfsc	___xxtofl@arg+2,7
  7427     0A41  2A43               	goto	u5471
  7428     0A42  2A44               	goto	u5470
  7429     0A43                     u5471:
  7430     0A43  2A4A               	goto	l861
  7431     0A44                     u5470:
  7432     0A44                     l3926:
  7433     0A44  3002               	movlw	2
  7434     0A45  0279               	subwf	___xxtofl@exp,w
  7435     0A46  1803               	skipnc
  7436     0A47  2A49               	goto	u5481
  7437     0A48  2A4A               	goto	u5480
  7438     0A49                     u5481:
  7439     0A49  2A35               	goto	l3922
  7440     0A4A                     u5480:
  7441     0A4A                     l861:
  7442     0A4A  1879               	btfsc	___xxtofl@exp,0
  7443     0A4B  2A4D               	goto	u5491
  7444     0A4C  2A4E               	goto	u5490
  7445     0A4D                     u5491:
  7446     0A4D  2A56               	goto	l862
  7447     0A4E                     u5490:
  7448     0A4E                     l3928:
  7449     0A4E  30FF               	movlw	255
  7450     0A4F  05FA               	andwf	___xxtofl@arg,f
  7451     0A50  30FF               	movlw	255
  7452     0A51  05FB               	andwf	___xxtofl@arg+1,f
  7453     0A52  307F               	movlw	127
  7454     0A53  05FC               	andwf	___xxtofl@arg+2,f
  7455     0A54  30FF               	movlw	255
  7456     0A55  05FD               	andwf	___xxtofl@arg+3,f
  7457     0A56                     l862:
  7458     0A56  1003               	clrc
  7459     0A57  0CF9               	rrf	___xxtofl@exp,f
  7460     0A58                     l3930:
  7461     0A58  0879               	movf	___xxtofl@exp,w
  7462     0A59  00F4               	movwf	??___xxtofl
  7463     0A5A  01F5               	clrf	??___xxtofl+1
  7464     0A5B  01F6               	clrf	??___xxtofl+2
  7465     0A5C  01F7               	clrf	??___xxtofl+3
  7466     0A5D  3018               	movlw	24
  7467     0A5E                     u5505:
  7468     0A5E  1003               	clrc
  7469     0A5F  0DF4               	rlf	??___xxtofl,f
  7470     0A60  0DF5               	rlf	??___xxtofl+1,f
  7471     0A61  0DF6               	rlf	??___xxtofl+2,f
  7472     0A62  0DF7               	rlf	??___xxtofl+3,f
  7473     0A63                     u5500:
  7474     0A63  3EFF               	addlw	-1
  7475     0A64  1D03               	skipz
  7476     0A65  2A5E               	goto	u5505
  7477     0A66  0874               	movf	??___xxtofl,w
  7478     0A67  04FA               	iorwf	___xxtofl@arg,f
  7479     0A68  0875               	movf	??___xxtofl+1,w
  7480     0A69  04FB               	iorwf	___xxtofl@arg+1,f
  7481     0A6A  0876               	movf	??___xxtofl+2,w
  7482     0A6B  04FC               	iorwf	___xxtofl@arg+2,f
  7483     0A6C  0877               	movf	??___xxtofl+3,w
  7484     0A6D  04FD               	iorwf	___xxtofl@arg+3,f
  7485     0A6E                     l3932:
  7486     0A6E  0878               	movf	___xxtofl@sign,w
  7487     0A6F  1903               	btfsc	3,2
  7488     0A70  2A72               	goto	u5511
  7489     0A71  2A73               	goto	u5510
  7490     0A72                     u5511:
  7491     0A72  2A78               	goto	l3938
  7492     0A73                     u5510:
  7493     0A73                     l3934:
  7494     0A73  1FF3               	btfss	___xxtofl@val+3,7
  7495     0A74  2A76               	goto	u5521
  7496     0A75  2A77               	goto	u5520
  7497     0A76                     u5521:
  7498     0A76  2A78               	goto	l3938
  7499     0A77                     u5520:
  7500     0A77                     l3936:
  7501     0A77  17FD               	bsf	___xxtofl@arg+3,7
  7502     0A78                     l3938:
  7503     0A78  087D               	movf	___xxtofl@arg+3,w
  7504     0A79  00F3               	movwf	?___xxtofl+3
  7505     0A7A  087C               	movf	___xxtofl@arg+2,w
  7506     0A7B  00F2               	movwf	?___xxtofl+2
  7507     0A7C  087B               	movf	___xxtofl@arg+1,w
  7508     0A7D  00F1               	movwf	?___xxtofl+1
  7509     0A7E  087A               	movf	___xxtofl@arg,w
  7510     0A7F  00F0               	movwf	?___xxtofl
  7511     0A80                     l850:
  7512     0A80  0008               	return
  7513     0A81                     __end_of___xxtofl:
  7514                           
  7515                           	psect	text23
  7516     16B2                     __ptext23:	
  7517 ;; *************** function ___flge *****************
  7518 ;; Defined at:
  7519 ;;		line 4 in file "C:\Program Files\Microchip\xc8\v2.41\pic\sources\c90\common\flge.c"
  7520 ;; Parameters:    Size  Location     Type
  7521 ;;  ff1             4    0[COMMON] unsigned char 
  7522 ;;  ff2             4    4[COMMON] unsigned char 
  7523 ;; Auto vars:     Size  Location     Type
  7524 ;;		None
  7525 ;; Return value:  Size  Location     Type
  7526 ;;		None               void
  7527 ;; Registers used:
  7528 ;;		wreg, status,2, status,0
  7529 ;; Tracked objects:
  7530 ;;		On entry : 0/0
  7531 ;;		On exit  : 0/0
  7532 ;;		Unchanged: 0/0
  7533 ;; Data sizes:     COMMON   BANK0   BANK1   BANK3   BANK2
  7534 ;;      Params:         8       0       0       0       0
  7535 ;;      Locals:         0       0       0       0       0
  7536 ;;      Temps:          4       0       0       0       0
  7537 ;;      Totals:        12       0       0       0       0
  7538 ;;Total ram usage:       12 bytes
  7539 ;; Hardware stack levels used: 1
  7540 ;; This function calls:
  7541 ;;		Nothing
  7542 ;; This function is called by:
  7543 ;;		_log
  7544 ;; This function uses a non-reentrant model
  7545 ;;
  7546                           
  7547     16B2                     ___flge:	
  7548                           ;psect for function ___flge
  7549                           
  7550     16B2                     l3874:	
  7551                           ;incstack = 0
  7552                           ; Regs used in ___flge: [wreg+status,2+status,0]
  7553                           
  7554     16B2  3000               	movlw	0
  7555     16B3  0570               	andwf	___flge@ff1,w
  7556     16B4  00F8               	movwf	??___flge
  7557     16B5  3000               	movlw	0
  7558     16B6  0571               	andwf	___flge@ff1+1,w
  7559     16B7  00F9               	movwf	??___flge+1
  7560     16B8  3080               	movlw	128
  7561     16B9  0572               	andwf	___flge@ff1+2,w
  7562     16BA  00FA               	movwf	??___flge+2
  7563     16BB  307F               	movlw	127
  7564     16BC  0573               	andwf	___flge@ff1+3,w
  7565     16BD  00FB               	movwf	??___flge+3
  7566     16BE  087B               	movf	??___flge+3,w
  7567     16BF  047A               	iorwf	??___flge+2,w
  7568     16C0  0479               	iorwf	??___flge+1,w
  7569     16C1  0478               	iorwf	??___flge,w
  7570     16C2  1D03               	skipz
  7571     16C3  2EC5               	goto	u5321
  7572     16C4  2EC6               	goto	u5320
  7573     16C5                     u5321:
  7574     16C5  2ECE               	goto	l589
  7575     16C6                     u5320:
  7576     16C6                     l3876:
  7577     16C6  3000               	movlw	0
  7578     16C7  00F3               	movwf	___flge@ff1+3
  7579     16C8  3000               	movlw	0
  7580     16C9  00F2               	movwf	___flge@ff1+2
  7581     16CA  3000               	movlw	0
  7582     16CB  00F1               	movwf	___flge@ff1+1
  7583     16CC  3000               	movlw	0
  7584     16CD  00F0               	movwf	___flge@ff1
  7585     16CE                     l589:
  7586     16CE  3000               	movlw	0
  7587     16CF  0574               	andwf	___flge@ff2,w
  7588     16D0  00F8               	movwf	??___flge
  7589     16D1  3000               	movlw	0
  7590     16D2  0575               	andwf	___flge@ff2+1,w
  7591     16D3  00F9               	movwf	??___flge+1
  7592     16D4  3080               	movlw	128
  7593     16D5  0576               	andwf	___flge@ff2+2,w
  7594     16D6  00FA               	movwf	??___flge+2
  7595     16D7  307F               	movlw	127
  7596     16D8  0577               	andwf	___flge@ff2+3,w
  7597     16D9  00FB               	movwf	??___flge+3
  7598     16DA  087B               	movf	??___flge+3,w
  7599     16DB  047A               	iorwf	??___flge+2,w
  7600     16DC  0479               	iorwf	??___flge+1,w
  7601     16DD  0478               	iorwf	??___flge,w
  7602     16DE  1D03               	skipz
  7603     16DF  2EE1               	goto	u5331
  7604     16E0  2EE2               	goto	u5330
  7605     16E1                     u5331:
  7606     16E1  2EEA               	goto	l3880
  7607     16E2                     u5330:
  7608     16E2                     l3878:
  7609     16E2  3000               	movlw	0
  7610     16E3  00F7               	movwf	___flge@ff2+3
  7611     16E4  3000               	movlw	0
  7612     16E5  00F6               	movwf	___flge@ff2+2
  7613     16E6  3000               	movlw	0
  7614     16E7  00F5               	movwf	___flge@ff2+1
  7615     16E8  3000               	movlw	0
  7616     16E9  00F4               	movwf	___flge@ff2
  7617     16EA                     l3880:
  7618     16EA  1FF3               	btfss	___flge@ff1+3,7
  7619     16EB  2EED               	goto	u5341
  7620     16EC  2EEE               	goto	u5340
  7621     16ED                     u5341:
  7622     16ED  2F12               	goto	l3884
  7623     16EE                     u5340:
  7624     16EE                     l3882:
  7625     16EE  3000               	movlw	0
  7626     16EF  00F8               	movwf	??___flge
  7627     16F0  3000               	movlw	0
  7628     16F1  00F9               	movwf	??___flge+1
  7629     16F2  3000               	movlw	0
  7630     16F3  00FA               	movwf	??___flge+2
  7631     16F4  3080               	movlw	128
  7632     16F5  00FB               	movwf	??___flge+3
  7633     16F6  0870               	movf	___flge@ff1,w
  7634     16F7  02F8               	subwf	??___flge,f
  7635     16F8  0871               	movf	___flge@ff1+1,w
  7636     16F9  1C03               	skipc
  7637     16FA  0F71               	incfsz	___flge@ff1+1,w
  7638     16FB  2EFD               	goto	u5351
  7639     16FC  2EFE               	goto	u5352
  7640     16FD                     u5351:
  7641     16FD  02F9               	subwf	??___flge+1,f
  7642     16FE                     u5352:
  7643     16FE  0872               	movf	___flge@ff1+2,w
  7644     16FF  1C03               	skipc
  7645     1700  0F72               	incfsz	___flge@ff1+2,w
  7646     1701  2F03               	goto	u5353
  7647     1702  2F04               	goto	u5354
  7648     1703                     u5353:
  7649     1703  02FA               	subwf	??___flge+2,f
  7650     1704                     u5354:
  7651     1704  0873               	movf	___flge@ff1+3,w
  7652     1705  1C03               	skipc
  7653     1706  0F73               	incfsz	___flge@ff1+3,w
  7654     1707  2F09               	goto	u5355
  7655     1708  2F0A               	goto	u5356
  7656     1709                     u5355:
  7657     1709  02FB               	subwf	??___flge+3,f
  7658     170A                     u5356:
  7659     170A  087B               	movf	??___flge+3,w
  7660     170B  00F3               	movwf	___flge@ff1+3
  7661     170C  087A               	movf	??___flge+2,w
  7662     170D  00F2               	movwf	___flge@ff1+2
  7663     170E  0879               	movf	??___flge+1,w
  7664     170F  00F1               	movwf	___flge@ff1+1
  7665     1710  0878               	movf	??___flge,w
  7666     1711  00F0               	movwf	___flge@ff1
  7667     1712                     l3884:
  7668     1712  1FF7               	btfss	___flge@ff2+3,7
  7669     1713  2F15               	goto	u5361
  7670     1714  2F16               	goto	u5360
  7671     1715                     u5361:
  7672     1715  2F3A               	goto	l592
  7673     1716                     u5360:
  7674     1716                     l3886:
  7675     1716  3000               	movlw	0
  7676     1717  00F8               	movwf	??___flge
  7677     1718  3000               	movlw	0
  7678     1719  00F9               	movwf	??___flge+1
  7679     171A  3000               	movlw	0
  7680     171B  00FA               	movwf	??___flge+2
  7681     171C  3080               	movlw	128
  7682     171D  00FB               	movwf	??___flge+3
  7683     171E  0874               	movf	___flge@ff2,w
  7684     171F  02F8               	subwf	??___flge,f
  7685     1720  0875               	movf	___flge@ff2+1,w
  7686     1721  1C03               	skipc
  7687     1722  0F75               	incfsz	___flge@ff2+1,w
  7688     1723  2F25               	goto	u5371
  7689     1724  2F26               	goto	u5372
  7690     1725                     u5371:
  7691     1725  02F9               	subwf	??___flge+1,f
  7692     1726                     u5372:
  7693     1726  0876               	movf	___flge@ff2+2,w
  7694     1727  1C03               	skipc
  7695     1728  0F76               	incfsz	___flge@ff2+2,w
  7696     1729  2F2B               	goto	u5373
  7697     172A  2F2C               	goto	u5374
  7698     172B                     u5373:
  7699     172B  02FA               	subwf	??___flge+2,f
  7700     172C                     u5374:
  7701     172C  0877               	movf	___flge@ff2+3,w
  7702     172D  1C03               	skipc
  7703     172E  0F77               	incfsz	___flge@ff2+3,w
  7704     172F  2F31               	goto	u5375
  7705     1730  2F32               	goto	u5376
  7706     1731                     u5375:
  7707     1731  02FB               	subwf	??___flge+3,f
  7708     1732                     u5376:
  7709     1732  087B               	movf	??___flge+3,w
  7710     1733  00F7               	movwf	___flge@ff2+3
  7711     1734  087A               	movf	??___flge+2,w
  7712     1735  00F6               	movwf	___flge@ff2+2
  7713     1736  0879               	movf	??___flge+1,w
  7714     1737  00F5               	movwf	___flge@ff2+1
  7715     1738  0878               	movf	??___flge,w
  7716     1739  00F4               	movwf	___flge@ff2
  7717     173A                     l592:
  7718     173A  3080               	movlw	128
  7719     173B  06F3               	xorwf	___flge@ff1+3,f
  7720     173C  3080               	movlw	128
  7721     173D  06F7               	xorwf	___flge@ff2+3,f
  7722     173E  0877               	movf	___flge@ff2+3,w
  7723     173F  0273               	subwf	___flge@ff1+3,w
  7724     1740  1D03               	skipz
  7725     1741  2F4C               	goto	u5385
  7726     1742  0876               	movf	___flge@ff2+2,w
  7727     1743  0272               	subwf	___flge@ff1+2,w
  7728     1744  1D03               	skipz
  7729     1745  2F4C               	goto	u5385
  7730     1746  0875               	movf	___flge@ff2+1,w
  7731     1747  0271               	subwf	___flge@ff1+1,w
  7732     1748  1D03               	skipz
  7733     1749  2F4C               	goto	u5385
  7734     174A  0874               	movf	___flge@ff2,w
  7735     174B  0270               	subwf	___flge@ff1,w
  7736     174C                     u5385:
  7737     174C  1803               	skipnc
  7738     174D  2F4F               	goto	u5381
  7739     174E  2F50               	goto	u5380
  7740     174F                     u5381:
  7741     174F  2F52               	goto	l3890
  7742     1750                     u5380:
  7743     1750                     l3888:
  7744     1750  1003               	clrc
  7745     1751  2F53               	goto	l593
  7746     1752                     l3890:
  7747     1752  1403               	setc
  7748     1753                     l593:
  7749     1753  0008               	return
  7750     1754                     __end_of___flge:
  7751                           
  7752                           	psect	text24
  7753     15BF                     __ptext24:	
  7754 ;; *************** function ___fltol *****************
  7755 ;; Defined at:
  7756 ;;		line 43 in file "C:\Program Files\Microchip\xc8\v2.41\pic\sources\c90\common\fltol.c"
  7757 ;; Parameters:    Size  Location     Type
  7758 ;;  f1              4    0[COMMON] unsigned char 
  7759 ;; Auto vars:     Size  Location     Type
  7760 ;;  exp1            1    9[COMMON] unsigned char 
  7761 ;;  sign1           1    8[COMMON] unsigned char 
  7762 ;; Return value:  Size  Location     Type
  7763 ;;                  4    0[COMMON] long 
  7764 ;; Registers used:
  7765 ;;		wreg, status,2, status,0, btemp+1
  7766 ;; Tracked objects:
  7767 ;;		On entry : 0/0
  7768 ;;		On exit  : 0/0
  7769 ;;		Unchanged: 0/0
  7770 ;; Data sizes:     COMMON   BANK0   BANK1   BANK3   BANK2
  7771 ;;      Params:         4       0       0       0       0
  7772 ;;      Locals:         2       0       0       0       0
  7773 ;;      Temps:          4       0       0       0       0
  7774 ;;      Totals:        10       0       0       0       0
  7775 ;;Total ram usage:       10 bytes
  7776 ;; Hardware stack levels used: 1
  7777 ;; This function calls:
  7778 ;;		Nothing
  7779 ;; This function is called by:
  7780 ;;		_Calculus_Temperature
  7781 ;; This function uses a non-reentrant model
  7782 ;;
  7783                           
  7784     15BF                     ___fltol:	
  7785                           ;psect for function ___fltol
  7786                           
  7787     15BF                     l2788:	
  7788                           ;incstack = 0
  7789                           ; Regs used in ___fltol: [wreg+status,2+status,0+btemp+1]
  7790                           
  7791     15BF  1003               	clrc
  7792     15C0  0D72               	rlf	___fltol@f1+2,w
  7793     15C1  0D73               	rlf	___fltol@f1+3,w
  7794     15C2  00F9               	movwf	___fltol@exp1
  7795     15C3  0879               	movf	___fltol@exp1,w
  7796     15C4  1D03               	btfss	3,2
  7797     15C5  2DC7               	goto	u3411
  7798     15C6  2DC8               	goto	u3410
  7799     15C7                     u3411:
  7800     15C7  2DD1               	goto	l2794
  7801     15C8                     u3410:
  7802     15C8                     l2790:
  7803     15C8  3000               	movlw	0
  7804     15C9  00F3               	movwf	?___fltol+3
  7805     15CA  3000               	movlw	0
  7806     15CB  00F2               	movwf	?___fltol+2
  7807     15CC  3000               	movlw	0
  7808     15CD  00F1               	movwf	?___fltol+1
  7809     15CE  3000               	movlw	0
  7810     15CF  00F0               	movwf	?___fltol
  7811     15D0  2E34               	goto	l601
  7812     15D1                     l2794:
  7813     15D1  0870               	movf	___fltol@f1,w
  7814     15D2  00F4               	movwf	??___fltol
  7815     15D3  0871               	movf	___fltol@f1+1,w
  7816     15D4  00F5               	movwf	??___fltol+1
  7817     15D5  0872               	movf	___fltol@f1+2,w
  7818     15D6  00F6               	movwf	??___fltol+2
  7819     15D7  0873               	movf	___fltol@f1+3,w
  7820     15D8  00F7               	movwf	??___fltol+3
  7821     15D9  301F               	movlw	31
  7822     15DA                     u3425:
  7823     15DA  1003               	clrc
  7824     15DB  0CF7               	rrf	??___fltol+3,f
  7825     15DC  0CF6               	rrf	??___fltol+2,f
  7826     15DD  0CF5               	rrf	??___fltol+1,f
  7827     15DE  0CF4               	rrf	??___fltol,f
  7828     15DF                     u3420:
  7829     15DF  3EFF               	addlw	-1
  7830     15E0  1D03               	skipz
  7831     15E1  2DDA               	goto	u3425
  7832     15E2  0874               	movf	??___fltol,w
  7833     15E3  00F8               	movwf	___fltol@sign1
  7834     15E4                     l2796:
  7835     15E4  17F2               	bsf	___fltol@f1+2,7
  7836     15E5                     l2798:
  7837     15E5  30FF               	movlw	255
  7838     15E6  05F0               	andwf	___fltol@f1,f
  7839     15E7  30FF               	movlw	255
  7840     15E8  05F1               	andwf	___fltol@f1+1,f
  7841     15E9  30FF               	movlw	255
  7842     15EA  05F2               	andwf	___fltol@f1+2,f
  7843     15EB  3000               	movlw	0
  7844     15EC  05F3               	andwf	___fltol@f1+3,f
  7845     15ED                     l2800:
  7846     15ED  3096               	movlw	150
  7847     15EE  02F9               	subwf	___fltol@exp1,f
  7848     15EF                     l2802:
  7849     15EF  1FF9               	btfss	___fltol@exp1,7
  7850     15F0  2DF2               	goto	u3431
  7851     15F1  2DF3               	goto	u3430
  7852     15F2                     u3431:
  7853     15F2  2E0D               	goto	l2814
  7854     15F3                     u3430:
  7855     15F3                     l2804:
  7856     15F3  0879               	movf	___fltol@exp1,w
  7857     15F4  3A80               	xorlw	128
  7858     15F5  3E97               	addlw	151
  7859     15F6  1803               	skipnc
  7860     15F7  2DF9               	goto	u3441
  7861     15F8  2DFA               	goto	u3440
  7862     15F9                     u3441:
  7863     15F9  2DFB               	goto	l2810
  7864     15FA                     u3440:
  7865     15FA  2DC8               	goto	l2790
  7866     15FB                     l2810:
  7867     15FB  3001               	movlw	1
  7868     15FC                     u3455:
  7869     15FC  1003               	clrc
  7870     15FD  0CF3               	rrf	___fltol@f1+3,f
  7871     15FE  0CF2               	rrf	___fltol@f1+2,f
  7872     15FF  0CF1               	rrf	___fltol@f1+1,f
  7873     1600  0CF0               	rrf	___fltol@f1,f
  7874     1601  3EFF               	addlw	-1
  7875     1602  1D03               	skipz
  7876     1603  2DFC               	goto	u3455
  7877     1604                     l2812:
  7878     1604  3001               	movlw	1
  7879     1605  00FF               	movwf	btemp+1
  7880     1606  087F               	movf	btemp+1,w
  7881     1607  07F9               	addwf	___fltol@exp1,f
  7882     1608  1D03               	btfss	3,2
  7883     1609  2E0B               	goto	u3461
  7884     160A  2E0C               	goto	u3460
  7885     160B                     u3461:
  7886     160B  2DFB               	goto	l2810
  7887     160C                     u3460:
  7888     160C  2E24               	goto	l2822
  7889     160D                     l2814:
  7890     160D  3020               	movlw	32
  7891     160E  0279               	subwf	___fltol@exp1,w
  7892     160F  1C03               	skipc
  7893     1610  2E12               	goto	u3471
  7894     1611  2E13               	goto	u3470
  7895     1612                     u3471:
  7896     1612  2E1F               	goto	l608
  7897     1613                     u3470:
  7898     1613  2DC8               	goto	l2790
  7899     1614                     l2820:
  7900     1614  3001               	movlw	1
  7901     1615  00F4               	movwf	??___fltol
  7902     1616                     u3485:
  7903     1616  1003               	clrc
  7904     1617  0DF0               	rlf	___fltol@f1,f
  7905     1618  0DF1               	rlf	___fltol@f1+1,f
  7906     1619  0DF2               	rlf	___fltol@f1+2,f
  7907     161A  0DF3               	rlf	___fltol@f1+3,f
  7908     161B  0BF4               	decfsz	??___fltol,f
  7909     161C  2E16               	goto	u3485
  7910     161D  3001               	movlw	1
  7911     161E  02F9               	subwf	___fltol@exp1,f
  7912     161F                     l608:
  7913     161F  0879               	movf	___fltol@exp1,w
  7914     1620  1D03               	btfss	3,2
  7915     1621  2E23               	goto	u3491
  7916     1622  2E24               	goto	u3490
  7917     1623                     u3491:
  7918     1623  2E14               	goto	l2820
  7919     1624                     u3490:
  7920     1624                     l2822:
  7921     1624  0878               	movf	___fltol@sign1,w
  7922     1625  1903               	btfsc	3,2
  7923     1626  2E28               	goto	u3501
  7924     1627  2E29               	goto	u3500
  7925     1628                     u3501:
  7926     1628  2E34               	goto	l611
  7927     1629                     u3500:
  7928     1629                     l2824:
  7929     1629  09F0               	comf	___fltol@f1,f
  7930     162A  09F1               	comf	___fltol@f1+1,f
  7931     162B  09F2               	comf	___fltol@f1+2,f
  7932     162C  09F3               	comf	___fltol@f1+3,f
  7933     162D  0AF0               	incf	___fltol@f1,f
  7934     162E  1903               	skipnz
  7935     162F  0AF1               	incf	___fltol@f1+1,f
  7936     1630  1903               	skipnz
  7937     1631  0AF2               	incf	___fltol@f1+2,f
  7938     1632  1903               	skipnz
  7939     1633  0AF3               	incf	___fltol@f1+3,f
  7940     1634                     l611:
  7941     1634                     l601:
  7942     1634  0008               	return
  7943     1635                     __end_of___fltol:
  7944                           
  7945                           	psect	text25
  7946     0070                     __ptext25:	
  7947 ;; *************** function ___fldiv *****************
  7948 ;; Defined at:
  7949 ;;		line 8 in file "C:\Program Files\Microchip\xc8\v2.41\pic\sources\c90\common\sprcdiv.c"
  7950 ;; Parameters:    Size  Location     Type
  7951 ;;  a               4   31[BANK0 ] long 
  7952 ;;  b               4   35[BANK0 ] long 
  7953 ;; Auto vars:     Size  Location     Type
  7954 ;;  grs             4   51[BANK0 ] unsigned long 
  7955 ;;  rem             4   44[BANK0 ] unsigned long 
  7956 ;;  new_exp         2   49[BANK0 ] int 
  7957 ;;  aexp            1   56[BANK0 ] unsigned char 
  7958 ;;  bexp            1   55[BANK0 ] unsigned char 
  7959 ;;  sign            1   48[BANK0 ] unsigned char 
  7960 ;; Return value:  Size  Location     Type
  7961 ;;                  4   31[BANK0 ] unsigned char 
  7962 ;; Registers used:
  7963 ;;		wreg, status,2, status,0, btemp+1
  7964 ;; Tracked objects:
  7965 ;;		On entry : 0/0
  7966 ;;		On exit  : 0/0
  7967 ;;		Unchanged: 0/0
  7968 ;; Data sizes:     COMMON   BANK0   BANK1   BANK3   BANK2
  7969 ;;      Params:         0       8       0       0       0
  7970 ;;      Locals:         0      13       0       0       0
  7971 ;;      Temps:          0       5       0       0       0
  7972 ;;      Totals:         0      26       0       0       0
  7973 ;;Total ram usage:       26 bytes
  7974 ;; Hardware stack levels used: 1
  7975 ;; This function calls:
  7976 ;;		Nothing
  7977 ;; This function is called by:
  7978 ;;		_Calculus_Temperature
  7979 ;; This function uses a non-reentrant model
  7980 ;;
  7981                           
  7982     0070                     ___fldiv:	
  7983                           ;psect for function ___fldiv
  7984                           
  7985     0070                     l2874:	
  7986                           ;incstack = 0
  7987                           ; Regs used in ___fldiv: [wreg+status,2+status,0+btemp+1]
  7988                           
  7989     0070  1283               	bcf	3,5	;RP0=0, select bank0
  7990     0071  1303               	bcf	3,6	;RP1=0, select bank0
  7991     0072  0846               	movf	___fldiv@b+3,w
  7992     0073  3980               	andlw	128
  7993     0074  00D0               	movwf	___fldiv@sign
  7994     0075                     l2876:
  7995     0075  0846               	movf	___fldiv@b+3,w
  7996     0076  00C7               	movwf	??___fldiv
  7997     0077  0747               	addwf	??___fldiv,w
  7998     0078  00D7               	movwf	___fldiv@bexp
  7999     0079                     l2878:
  8000     0079  1FC5               	btfss	___fldiv@b+2,7
  8001     007A  287C               	goto	u3641
  8002     007B  287D               	goto	u3640
  8003     007C                     u3641:
  8004     007C  287E               	goto	l2882
  8005     007D                     u3640:
  8006     007D                     l2880:
  8007     007D  1457               	bsf	___fldiv@bexp,0
  8008     007E                     l2882:
  8009     007E  0857               	movf	___fldiv@bexp,w
  8010     007F  1903               	btfsc	3,2
  8011     0080  2882               	goto	u3651
  8012     0081  2883               	goto	u3650
  8013     0082                     u3651:
  8014     0082  2893               	goto	l2892
  8015     0083                     u3650:
  8016     0083                     l2884:
  8017     0083  0A57               	incf	___fldiv@bexp,w
  8018     0084  1D03               	btfss	3,2
  8019     0085  2887               	goto	u3661
  8020     0086  2888               	goto	u3660
  8021     0087                     u3661:
  8022     0087  2890               	goto	l2888
  8023     0088                     u3660:
  8024     0088                     l2886:
  8025     0088  3000               	movlw	0
  8026     0089  00C6               	movwf	___fldiv@b+3
  8027     008A  3000               	movlw	0
  8028     008B  00C5               	movwf	___fldiv@b+2
  8029     008C  3000               	movlw	0
  8030     008D  00C4               	movwf	___fldiv@b+1
  8031     008E  3000               	movlw	0
  8032     008F  00C3               	movwf	___fldiv@b
  8033     0090                     l2888:
  8034     0090  17C5               	bsf	___fldiv@b+2,7
  8035     0091                     l2890:
  8036     0091  01C6               	clrf	___fldiv@b+3
  8037     0092  289B               	goto	l2894
  8038     0093                     l2892:
  8039     0093  3000               	movlw	0
  8040     0094  00C6               	movwf	___fldiv@b+3
  8041     0095  3000               	movlw	0
  8042     0096  00C5               	movwf	___fldiv@b+2
  8043     0097  3000               	movlw	0
  8044     0098  00C4               	movwf	___fldiv@b+1
  8045     0099  3000               	movlw	0
  8046     009A  00C3               	movwf	___fldiv@b
  8047     009B                     l2894:
  8048     009B  0842               	movf	___fldiv@a+3,w
  8049     009C  3980               	andlw	128
  8050     009D  00FF               	movwf	btemp+1
  8051     009E  087F               	movf	btemp+1,w
  8052     009F  06D0               	xorwf	___fldiv@sign,f
  8053     00A0                     l2896:
  8054     00A0  0842               	movf	___fldiv@a+3,w
  8055     00A1  00C7               	movwf	??___fldiv
  8056     00A2  0747               	addwf	??___fldiv,w
  8057     00A3  00D8               	movwf	___fldiv@aexp
  8058     00A4                     l2898:
  8059     00A4  1FC1               	btfss	___fldiv@a+2,7
  8060     00A5  28A7               	goto	u3671
  8061     00A6  28A8               	goto	u3670
  8062     00A7                     u3671:
  8063     00A7  28A9               	goto	l2902
  8064     00A8                     u3670:
  8065     00A8                     l2900:
  8066     00A8  1458               	bsf	___fldiv@aexp,0
  8067     00A9                     l2902:
  8068     00A9  0858               	movf	___fldiv@aexp,w
  8069     00AA  1903               	btfsc	3,2
  8070     00AB  28AD               	goto	u3681
  8071     00AC  28AE               	goto	u3680
  8072     00AD                     u3681:
  8073     00AD  28BE               	goto	l2912
  8074     00AE                     u3680:
  8075     00AE                     l2904:
  8076     00AE  0A58               	incf	___fldiv@aexp,w
  8077     00AF  1D03               	btfss	3,2
  8078     00B0  28B2               	goto	u3691
  8079     00B1  28B3               	goto	u3690
  8080     00B2                     u3691:
  8081     00B2  28BB               	goto	l2908
  8082     00B3                     u3690:
  8083     00B3                     l2906:
  8084     00B3  3000               	movlw	0
  8085     00B4  00C2               	movwf	___fldiv@a+3
  8086     00B5  3000               	movlw	0
  8087     00B6  00C1               	movwf	___fldiv@a+2
  8088     00B7  3000               	movlw	0
  8089     00B8  00C0               	movwf	___fldiv@a+1
  8090     00B9  3000               	movlw	0
  8091     00BA  00BF               	movwf	___fldiv@a
  8092     00BB                     l2908:
  8093     00BB  17C1               	bsf	___fldiv@a+2,7
  8094     00BC                     l2910:
  8095     00BC  01C2               	clrf	___fldiv@a+3
  8096     00BD  28C6               	goto	l764
  8097     00BE                     l2912:
  8098     00BE  3000               	movlw	0
  8099     00BF  00C2               	movwf	___fldiv@a+3
  8100     00C0  3000               	movlw	0
  8101     00C1  00C1               	movwf	___fldiv@a+2
  8102     00C2  3000               	movlw	0
  8103     00C3  00C0               	movwf	___fldiv@a+1
  8104     00C4  3000               	movlw	0
  8105     00C5  00BF               	movwf	___fldiv@a
  8106     00C6                     l764:
  8107     00C6  0842               	movf	___fldiv@a+3,w
  8108     00C7  0441               	iorwf	___fldiv@a+2,w
  8109     00C8  0440               	iorwf	___fldiv@a+1,w
  8110     00C9  043F               	iorwf	___fldiv@a,w
  8111     00CA  1D03               	skipz
  8112     00CB  28CD               	goto	u3701
  8113     00CC  28CE               	goto	u3700
  8114     00CD                     u3701:
  8115     00CD  28E7               	goto	l2922
  8116     00CE                     u3700:
  8117     00CE                     l2914:
  8118     00CE  3000               	movlw	0
  8119     00CF  00C6               	movwf	___fldiv@b+3
  8120     00D0  3000               	movlw	0
  8121     00D1  00C5               	movwf	___fldiv@b+2
  8122     00D2  3000               	movlw	0
  8123     00D3  00C4               	movwf	___fldiv@b+1
  8124     00D4  3000               	movlw	0
  8125     00D5  00C3               	movwf	___fldiv@b
  8126     00D6  3080               	movlw	128
  8127     00D7  04C5               	iorwf	___fldiv@b+2,f
  8128     00D8  307F               	movlw	127
  8129     00D9  04C6               	iorwf	___fldiv@b+3,f
  8130     00DA                     l2916:
  8131     00DA  0850               	movf	___fldiv@sign,w
  8132     00DB  00FF               	movwf	btemp+1
  8133     00DC  087F               	movf	btemp+1,w
  8134     00DD  04C6               	iorwf	___fldiv@b+3,f
  8135     00DE                     l2918:
  8136     00DE  0846               	movf	___fldiv@b+3,w
  8137     00DF  00C2               	movwf	?___fldiv+3
  8138     00E0  0845               	movf	___fldiv@b+2,w
  8139     00E1  00C1               	movwf	?___fldiv+2
  8140     00E2  0844               	movf	___fldiv@b+1,w
  8141     00E3  00C0               	movwf	?___fldiv+1
  8142     00E4  0843               	movf	___fldiv@b,w
  8143     00E5  00BF               	movwf	?___fldiv
  8144     00E6  2A3E               	goto	l766
  8145     00E7                     l2922:
  8146     00E7  0857               	movf	___fldiv@bexp,w
  8147     00E8  1D03               	btfss	3,2
  8148     00E9  28EB               	goto	u3711
  8149     00EA  28EC               	goto	u3710
  8150     00EB                     u3711:
  8151     00EB  28F5               	goto	l2928
  8152     00EC                     u3710:
  8153     00EC                     l2924:
  8154     00EC  3000               	movlw	0
  8155     00ED  00C2               	movwf	?___fldiv+3
  8156     00EE  3000               	movlw	0
  8157     00EF  00C1               	movwf	?___fldiv+2
  8158     00F0  3000               	movlw	0
  8159     00F1  00C0               	movwf	?___fldiv+1
  8160     00F2  3000               	movlw	0
  8161     00F3  00BF               	movwf	?___fldiv
  8162     00F4  2A3E               	goto	l766
  8163     00F5                     l2928:
  8164     00F5  0857               	movf	___fldiv@bexp,w
  8165     00F6  00C7               	movwf	??___fldiv
  8166     00F7  01C8               	clrf	??___fldiv+1
  8167     00F8  0848               	movf	??___fldiv+1,w
  8168     00F9  00CA               	movwf	??___fldiv+3
  8169     00FA  0858               	movf	___fldiv@aexp,w
  8170     00FB  0247               	subwf	??___fldiv,w
  8171     00FC  00C9               	movwf	??___fldiv+2
  8172     00FD  1C03               	skipc
  8173     00FE  03CA               	decf	??___fldiv+3,f
  8174     00FF  0849               	movf	??___fldiv+2,w
  8175     0100  3E7F               	addlw	127
  8176     0101  00D1               	movwf	___fldiv@new_exp
  8177     0102  084A               	movf	??___fldiv+3,w
  8178     0103  1803               	skipnc
  8179     0104  3E01               	addlw	1
  8180     0105  3E00               	addlw	0
  8181     0106  00D2               	movwf	___fldiv@new_exp+1
  8182     0107                     l2930:
  8183     0107  0846               	movf	___fldiv@b+3,w
  8184     0108  00CF               	movwf	___fldiv@rem+3
  8185     0109  0845               	movf	___fldiv@b+2,w
  8186     010A  00CE               	movwf	___fldiv@rem+2
  8187     010B  0844               	movf	___fldiv@b+1,w
  8188     010C  00CD               	movwf	___fldiv@rem+1
  8189     010D  0843               	movf	___fldiv@b,w
  8190     010E  00CC               	movwf	___fldiv@rem
  8191     010F                     l2932:
  8192     010F  3000               	movlw	0
  8193     0110  00C6               	movwf	___fldiv@b+3
  8194     0111  3000               	movlw	0
  8195     0112  00C5               	movwf	___fldiv@b+2
  8196     0113  3000               	movlw	0
  8197     0114  00C4               	movwf	___fldiv@b+1
  8198     0115  3000               	movlw	0
  8199     0116  00C3               	movwf	___fldiv@b
  8200     0117                     l2934:
  8201     0117  3000               	movlw	0
  8202     0118  00D6               	movwf	___fldiv@grs+3
  8203     0119  3000               	movlw	0
  8204     011A  00D5               	movwf	___fldiv@grs+2
  8205     011B  3000               	movlw	0
  8206     011C  00D4               	movwf	___fldiv@grs+1
  8207     011D  3000               	movlw	0
  8208     011E  00D3               	movwf	___fldiv@grs
  8209     011F                     l2936:
  8210     011F  01D8               	clrf	___fldiv@aexp
  8211     0120  296B               	goto	l2956
  8212     0121                     l2938:
  8213     0121  0858               	movf	___fldiv@aexp,w
  8214     0122  1903               	btfsc	3,2
  8215     0123  2925               	goto	u3721
  8216     0124  2926               	goto	u3720
  8217     0125                     u3721:
  8218     0125  2946               	goto	l2948
  8219     0126                     u3720:
  8220     0126                     l2940:
  8221     0126  3001               	movlw	1
  8222     0127  00C7               	movwf	??___fldiv
  8223     0128                     u3735:
  8224     0128  1003               	clrc
  8225     0129  0DCC               	rlf	___fldiv@rem,f
  8226     012A  0DCD               	rlf	___fldiv@rem+1,f
  8227     012B  0DCE               	rlf	___fldiv@rem+2,f
  8228     012C  0DCF               	rlf	___fldiv@rem+3,f
  8229     012D  0BC7               	decfsz	??___fldiv,f
  8230     012E  2928               	goto	u3735
  8231     012F  3001               	movlw	1
  8232     0130  00C7               	movwf	??___fldiv
  8233     0131                     u3745:
  8234     0131  1003               	clrc
  8235     0132  0DC3               	rlf	___fldiv@b,f
  8236     0133  0DC4               	rlf	___fldiv@b+1,f
  8237     0134  0DC5               	rlf	___fldiv@b+2,f
  8238     0135  0DC6               	rlf	___fldiv@b+3,f
  8239     0136  0BC7               	decfsz	??___fldiv,f
  8240     0137  2931               	goto	u3745
  8241     0138                     l2942:
  8242     0138  1FD6               	btfss	___fldiv@grs+3,7
  8243     0139  293B               	goto	u3751
  8244     013A  293C               	goto	u3750
  8245     013B                     u3751:
  8246     013B  293D               	goto	l2946
  8247     013C                     u3750:
  8248     013C                     l2944:
  8249     013C  1443               	bsf	___fldiv@b,0
  8250     013D                     l2946:
  8251     013D  3001               	movlw	1
  8252     013E  00C7               	movwf	??___fldiv
  8253     013F                     u3765:
  8254     013F  1003               	clrc
  8255     0140  0DD3               	rlf	___fldiv@grs,f
  8256     0141  0DD4               	rlf	___fldiv@grs+1,f
  8257     0142  0DD5               	rlf	___fldiv@grs+2,f
  8258     0143  0DD6               	rlf	___fldiv@grs+3,f
  8259     0144  0BC7               	decfsz	??___fldiv,f
  8260     0145  293F               	goto	u3765
  8261     0146                     l2948:
  8262     0146  0842               	movf	___fldiv@a+3,w
  8263     0147  024F               	subwf	___fldiv@rem+3,w
  8264     0148  1D03               	skipz
  8265     0149  2954               	goto	u3775
  8266     014A  0841               	movf	___fldiv@a+2,w
  8267     014B  024E               	subwf	___fldiv@rem+2,w
  8268     014C  1D03               	skipz
  8269     014D  2954               	goto	u3775
  8270     014E  0840               	movf	___fldiv@a+1,w
  8271     014F  024D               	subwf	___fldiv@rem+1,w
  8272     0150  1D03               	skipz
  8273     0151  2954               	goto	u3775
  8274     0152  083F               	movf	___fldiv@a,w
  8275     0153  024C               	subwf	___fldiv@rem,w
  8276     0154                     u3775:
  8277     0154  1C03               	skipc
  8278     0155  2957               	goto	u3771
  8279     0156  2958               	goto	u3770
  8280     0157                     u3771:
  8281     0157  2967               	goto	l2954
  8282     0158                     u3770:
  8283     0158                     l2950:
  8284     0158  1756               	bsf	___fldiv@grs+3,6
  8285     0159                     l2952:
  8286     0159  083F               	movf	___fldiv@a,w
  8287     015A  02CC               	subwf	___fldiv@rem,f
  8288     015B  0840               	movf	___fldiv@a+1,w
  8289     015C  1C03               	skipc
  8290     015D  0F40               	incfsz	___fldiv@a+1,w
  8291     015E  02CD               	subwf	___fldiv@rem+1,f
  8292     015F  0841               	movf	___fldiv@a+2,w
  8293     0160  1C03               	skipc
  8294     0161  0F41               	incfsz	___fldiv@a+2,w
  8295     0162  02CE               	subwf	___fldiv@rem+2,f
  8296     0163  0842               	movf	___fldiv@a+3,w
  8297     0164  1C03               	skipc
  8298     0165  0F42               	incfsz	___fldiv@a+3,w
  8299     0166  02CF               	subwf	___fldiv@rem+3,f
  8300     0167                     l2954:
  8301     0167  3001               	movlw	1
  8302     0168  00FF               	movwf	btemp+1
  8303     0169  087F               	movf	btemp+1,w
  8304     016A  07D8               	addwf	___fldiv@aexp,f
  8305     016B                     l2956:
  8306     016B  301A               	movlw	26
  8307     016C  0258               	subwf	___fldiv@aexp,w
  8308     016D  1C03               	skipc
  8309     016E  2970               	goto	u3781
  8310     016F  2971               	goto	u3780
  8311     0170                     u3781:
  8312     0170  2921               	goto	l2938
  8313     0171                     u3780:
  8314     0171                     l2958:
  8315     0171  084F               	movf	___fldiv@rem+3,w
  8316     0172  044E               	iorwf	___fldiv@rem+2,w
  8317     0173  044D               	iorwf	___fldiv@rem+1,w
  8318     0174  044C               	iorwf	___fldiv@rem,w
  8319     0175  1903               	skipnz
  8320     0176  2978               	goto	u3791
  8321     0177  2979               	goto	u3790
  8322     0178                     u3791:
  8323     0178  2998               	goto	l2972
  8324     0179                     u3790:
  8325     0179                     l2960:
  8326     0179  1453               	bsf	___fldiv@grs,0
  8327     017A  2998               	goto	l2972
  8328     017B                     l2962:
  8329     017B  3001               	movlw	1
  8330     017C  00C7               	movwf	??___fldiv
  8331     017D                     u3805:
  8332     017D  1003               	clrc
  8333     017E  0DC3               	rlf	___fldiv@b,f
  8334     017F  0DC4               	rlf	___fldiv@b+1,f
  8335     0180  0DC5               	rlf	___fldiv@b+2,f
  8336     0181  0DC6               	rlf	___fldiv@b+3,f
  8337     0182  0BC7               	decfsz	??___fldiv,f
  8338     0183  297D               	goto	u3805
  8339     0184                     l2964:
  8340     0184  1FD6               	btfss	___fldiv@grs+3,7
  8341     0185  2987               	goto	u3811
  8342     0186  2988               	goto	u3810
  8343     0187                     u3811:
  8344     0187  2989               	goto	l2968
  8345     0188                     u3810:
  8346     0188                     l2966:
  8347     0188  1443               	bsf	___fldiv@b,0
  8348     0189                     l2968:
  8349     0189  3001               	movlw	1
  8350     018A  00C7               	movwf	??___fldiv
  8351     018B                     u3825:
  8352     018B  1003               	clrc
  8353     018C  0DD3               	rlf	___fldiv@grs,f
  8354     018D  0DD4               	rlf	___fldiv@grs+1,f
  8355     018E  0DD5               	rlf	___fldiv@grs+2,f
  8356     018F  0DD6               	rlf	___fldiv@grs+3,f
  8357     0190  0BC7               	decfsz	??___fldiv,f
  8358     0191  298B               	goto	u3825
  8359     0192                     l2970:
  8360     0192  30FF               	movlw	255
  8361     0193  07D1               	addwf	___fldiv@new_exp,f
  8362     0194  1803               	skipnc
  8363     0195  0AD2               	incf	___fldiv@new_exp+1,f
  8364     0196  30FF               	movlw	255
  8365     0197  07D2               	addwf	___fldiv@new_exp+1,f
  8366     0198                     l2972:
  8367     0198  1FC5               	btfss	___fldiv@b+2,7
  8368     0199  299B               	goto	u3831
  8369     019A  299C               	goto	u3830
  8370     019B                     u3831:
  8371     019B  297B               	goto	l2962
  8372     019C                     u3830:
  8373     019C                     l2974:
  8374     019C  01D8               	clrf	___fldiv@aexp
  8375     019D                     l2976:
  8376     019D  1FD6               	btfss	___fldiv@grs+3,7
  8377     019E  29A0               	goto	u3841
  8378     019F  29A1               	goto	u3840
  8379     01A0                     u3841:
  8380     01A0  29BD               	goto	l2984
  8381     01A1                     u3840:
  8382     01A1                     l2978:
  8383     01A1  30FF               	movlw	255
  8384     01A2  0553               	andwf	___fldiv@grs,w
  8385     01A3  00C7               	movwf	??___fldiv
  8386     01A4  30FF               	movlw	255
  8387     01A5  0554               	andwf	___fldiv@grs+1,w
  8388     01A6  00C8               	movwf	??___fldiv+1
  8389     01A7  30FF               	movlw	255
  8390     01A8  0555               	andwf	___fldiv@grs+2,w
  8391     01A9  00C9               	movwf	??___fldiv+2
  8392     01AA  307F               	movlw	127
  8393     01AB  0556               	andwf	___fldiv@grs+3,w
  8394     01AC  00CA               	movwf	??___fldiv+3
  8395     01AD  084A               	movf	??___fldiv+3,w
  8396     01AE  0449               	iorwf	??___fldiv+2,w
  8397     01AF  0448               	iorwf	??___fldiv+1,w
  8398     01B0  0447               	iorwf	??___fldiv,w
  8399     01B1  1903               	skipnz
  8400     01B2  29B4               	goto	u3851
  8401     01B3  29B5               	goto	u3850
  8402     01B4                     u3851:
  8403     01B4  29B8               	goto	l780
  8404     01B5                     u3850:
  8405     01B5                     l2980:
  8406     01B5  01D8               	clrf	___fldiv@aexp
  8407     01B6  0AD8               	incf	___fldiv@aexp,f
  8408     01B7  29BD               	goto	l2984
  8409     01B8                     l780:
  8410     01B8  1C43               	btfss	___fldiv@b,0
  8411     01B9  29BB               	goto	u3861
  8412     01BA  29BC               	goto	u3860
  8413     01BB                     u3861:
  8414     01BB  29BD               	goto	l2984
  8415     01BC                     u3860:
  8416     01BC  29B5               	goto	l2980
  8417     01BD                     l2984:
  8418     01BD  0858               	movf	___fldiv@aexp,w
  8419     01BE  1903               	btfsc	3,2
  8420     01BF  29C1               	goto	u3871
  8421     01C0  29C2               	goto	u3870
  8422     01C1                     u3871:
  8423     01C1  29F3               	goto	l2994
  8424     01C2                     u3870:
  8425     01C2                     l2986:
  8426     01C2  3001               	movlw	1
  8427     01C3  07C3               	addwf	___fldiv@b,f
  8428     01C4  3000               	movlw	0
  8429     01C5  1803               	skipnc
  8430     01C6  3001               	movlw	1
  8431     01C7  07C4               	addwf	___fldiv@b+1,f
  8432     01C8  3000               	movlw	0
  8433     01C9  1803               	skipnc
  8434     01CA  3001               	movlw	1
  8435     01CB  07C5               	addwf	___fldiv@b+2,f
  8436     01CC  3000               	movlw	0
  8437     01CD  1803               	skipnc
  8438     01CE  3001               	movlw	1
  8439     01CF  07C6               	addwf	___fldiv@b+3,f
  8440     01D0                     l2988:
  8441     01D0  1C46               	btfss	___fldiv@b+3,0
  8442     01D1  29D3               	goto	u3881
  8443     01D2  29D4               	goto	u3880
  8444     01D3                     u3881:
  8445     01D3  29F3               	goto	l2994
  8446     01D4                     u3880:
  8447     01D4                     l2990:
  8448     01D4  0843               	movf	___fldiv@b,w
  8449     01D5  00C7               	movwf	??___fldiv
  8450     01D6  0844               	movf	___fldiv@b+1,w
  8451     01D7  00C8               	movwf	??___fldiv+1
  8452     01D8  0845               	movf	___fldiv@b+2,w
  8453     01D9  00C9               	movwf	??___fldiv+2
  8454     01DA  0846               	movf	___fldiv@b+3,w
  8455     01DB  00CA               	movwf	??___fldiv+3
  8456     01DC  3001               	movlw	1
  8457     01DD  00CB               	movwf	??___fldiv+4
  8458     01DE                     u3895:
  8459     01DE  0D4A               	rlf	??___fldiv+3,w
  8460     01DF  0CCA               	rrf	??___fldiv+3,f
  8461     01E0  0CC9               	rrf	??___fldiv+2,f
  8462     01E1  0CC8               	rrf	??___fldiv+1,f
  8463     01E2  0CC7               	rrf	??___fldiv,f
  8464     01E3                     u3890:
  8465     01E3  0BCB               	decfsz	??___fldiv+4,f
  8466     01E4  29DE               	goto	u3895
  8467     01E5  084A               	movf	??___fldiv+3,w
  8468     01E6  00C6               	movwf	___fldiv@b+3
  8469     01E7  0849               	movf	??___fldiv+2,w
  8470     01E8  00C5               	movwf	___fldiv@b+2
  8471     01E9  0848               	movf	??___fldiv+1,w
  8472     01EA  00C4               	movwf	___fldiv@b+1
  8473     01EB  0847               	movf	??___fldiv,w
  8474     01EC  00C3               	movwf	___fldiv@b
  8475     01ED                     l2992:
  8476     01ED  3001               	movlw	1
  8477     01EE  07D1               	addwf	___fldiv@new_exp,f
  8478     01EF  1803               	skipnc
  8479     01F0  0AD2               	incf	___fldiv@new_exp+1,f
  8480     01F1  3000               	movlw	0
  8481     01F2  07D2               	addwf	___fldiv@new_exp+1,f
  8482     01F3                     l2994:
  8483     01F3  0852               	movf	___fldiv@new_exp+1,w
  8484     01F4  3A80               	xorlw	128
  8485     01F5  00FF               	movwf	btemp+1
  8486     01F6  3080               	movlw	128
  8487     01F7  027F               	subwf	btemp+1,w
  8488     01F8  1D03               	skipz
  8489     01F9  29FC               	goto	u3905
  8490     01FA  30FF               	movlw	255
  8491     01FB  0251               	subwf	___fldiv@new_exp,w
  8492     01FC                     u3905:
  8493     01FC  1C03               	skipc
  8494     01FD  29FF               	goto	u3901
  8495     01FE  2A00               	goto	u3900
  8496     01FF                     u3901:
  8497     01FF  2A0E               	goto	l2998
  8498     0200                     u3900:
  8499     0200                     l2996:
  8500     0200  30FF               	movlw	255
  8501     0201  1283               	bcf	3,5	;RP0=0, select bank0
  8502     0202  1303               	bcf	3,6	;RP1=0, select bank0
  8503     0203  00D1               	movwf	___fldiv@new_exp
  8504     0204  3000               	movlw	0
  8505     0205  00D2               	movwf	___fldiv@new_exp+1
  8506     0206  3000               	movlw	0
  8507     0207  00C6               	movwf	___fldiv@b+3
  8508     0208  3000               	movlw	0
  8509     0209  00C5               	movwf	___fldiv@b+2
  8510     020A  3000               	movlw	0
  8511     020B  00C4               	movwf	___fldiv@b+1
  8512     020C  3000               	movlw	0
  8513     020D  00C3               	movwf	___fldiv@b
  8514     020E                     l2998:
  8515     020E  1283               	bcf	3,5	;RP0=0, select bank0
  8516     020F  1303               	bcf	3,6	;RP1=0, select bank0
  8517     0210  0852               	movf	___fldiv@new_exp+1,w
  8518     0211  3A80               	xorlw	128
  8519     0212  00FF               	movwf	btemp+1
  8520     0213  3080               	movlw	128
  8521     0214  027F               	subwf	btemp+1,w
  8522     0215  1D03               	skipz
  8523     0216  2A19               	goto	u3915
  8524     0217  3001               	movlw	1
  8525     0218  0251               	subwf	___fldiv@new_exp,w
  8526     0219                     u3915:
  8527     0219  1803               	skipnc
  8528     021A  2A1C               	goto	u3911
  8529     021B  2A1D               	goto	u3910
  8530     021C                     u3911:
  8531     021C  2A2A               	goto	l786
  8532     021D                     u3910:
  8533     021D                     l3000:
  8534     021D  1283               	bcf	3,5	;RP0=0, select bank0
  8535     021E  1303               	bcf	3,6	;RP1=0, select bank0
  8536     021F  01D1               	clrf	___fldiv@new_exp
  8537     0220  01D2               	clrf	___fldiv@new_exp+1
  8538     0221                     l3002:
  8539     0221  3000               	movlw	0
  8540     0222  00C6               	movwf	___fldiv@b+3
  8541     0223  3000               	movlw	0
  8542     0224  00C5               	movwf	___fldiv@b+2
  8543     0225  3000               	movlw	0
  8544     0226  00C4               	movwf	___fldiv@b+1
  8545     0227  3000               	movlw	0
  8546     0228  00C3               	movwf	___fldiv@b
  8547     0229                     l3004:
  8548     0229  01D0               	clrf	___fldiv@sign
  8549     022A                     l786:
  8550     022A  1283               	bcf	3,5	;RP0=0, select bank0
  8551     022B  1303               	bcf	3,6	;RP1=0, select bank0
  8552     022C  0851               	movf	___fldiv@new_exp,w
  8553     022D  00D7               	movwf	___fldiv@bexp
  8554     022E                     l3006:
  8555     022E  1C57               	btfss	___fldiv@bexp,0
  8556     022F  2A31               	goto	u3921
  8557     0230  2A32               	goto	u3920
  8558     0231                     u3921:
  8559     0231  2A34               	goto	l3010
  8560     0232                     u3920:
  8561     0232                     l3008:
  8562     0232  17C5               	bsf	___fldiv@b+2,7
  8563     0233  2A38               	goto	l3012
  8564     0234                     l3010:
  8565     0234  307F               	movlw	127
  8566     0235  00FF               	movwf	btemp+1
  8567     0236  087F               	movf	btemp+1,w
  8568     0237  05C5               	andwf	___fldiv@b+2,f
  8569     0238                     l3012:
  8570     0238  0857               	movf	___fldiv@bexp,w
  8571     0239  00C7               	movwf	??___fldiv
  8572     023A  1003               	clrc
  8573     023B  0C47               	rrf	??___fldiv,w
  8574     023C  00C6               	movwf	___fldiv@b+3
  8575     023D  28DA               	goto	l2916
  8576     023E                     l766:
  8577     023E  0008               	return
  8578     023F                     __end_of___fldiv:
  8579                           
  8580                           	psect	text26
  8581     1457                     __ptext26:	
  8582 ;; *************** function _function_Alarm *****************
  8583 ;; Defined at:
  8584 ;;		line 124 in file "Funciones_Estado.c"
  8585 ;; Parameters:    Size  Location     Type
  8586 ;;		None
  8587 ;; Auto vars:     Size  Location     Type
  8588 ;;  time            1   13[COMMON] unsigned char 
  8589 ;; Return value:  Size  Location     Type
  8590 ;;                  1    wreg      void 
  8591 ;; Registers used:
  8592 ;;		wreg, fsr0l, fsr0h, status,2, status,0, btemp+1, pclath, cstack
  8593 ;; Tracked objects:
  8594 ;;		On entry : 0/0
  8595 ;;		On exit  : 0/0
  8596 ;;		Unchanged: 0/0
  8597 ;; Data sizes:     COMMON   BANK0   BANK1   BANK3   BANK2
  8598 ;;      Params:         0       0       0       0       0
  8599 ;;      Locals:         1       0       0       0       0
  8600 ;;      Temps:          3       0       0       0       0
  8601 ;;      Totals:         4       0       0       0       0
  8602 ;;Total ram usage:        4 bytes
  8603 ;; Hardware stack levels used: 1
  8604 ;; Hardware stack levels required when called: 3
  8605 ;; This function calls:
  8606 ;;		_LCD_Clear
  8607 ;;		_LCD_String_xy
  8608 ;; This function is called by:
  8609 ;;		_main
  8610 ;; This function uses a non-reentrant model
  8611 ;;
  8612                           
  8613     1457                     _function_Alarm:	
  8614                           ;psect for function _function_Alarm
  8615                           
  8616     1457                     l3376:	
  8617                           ;incstack = 0
  8618                           ; Regs used in _function_Alarm: [wreg-fsr0h+status,2+status,0+btemp+1+pclath+cstack]
  8619                           
  8620                           
  8621                           ;Funciones_Estado.c: 125:     unsigned char time = 0;
  8622     1457  01FD               	clrf	function_Alarm@time
  8623     1458                     l3378:
  8624                           
  8625                           ;Funciones_Estado.c: 126:     LCD_Clear();
  8626     1458  160A  118A  227E  160A  118A  	fcall	_LCD_Clear
  8627     145D                     l3380:
  8628                           
  8629                           ;Funciones_Estado.c: 127:     LCD_String_xy(0, 0, "NO AUTORIZADO!!");
  8630     145D  01F5               	clrf	LCD_String_xy@pos
  8631     145E  306B               	movlw	(low ((STR_6-__stringbase)| (0+32768)))& (0+255)
  8632     145F  00F6               	movwf	LCD_String_xy@msg
  8633     1460  3080               	movlw	128
  8634     1461  00F7               	movwf	LCD_String_xy@msg+1
  8635     1462  3000               	movlw	0
  8636     1463  160A  118A  230F  160A  118A  	fcall	_LCD_String_xy
  8637                           
  8638                           ;Funciones_Estado.c: 128:     while (time < 5) {
  8639     1468  2C8D               	goto	l3388
  8640     1469                     l252:
  8641                           
  8642                           ;Funciones_Estado.c: 129:         RE0 = 1;
  8643     1469  1283               	bcf	3,5	;RP0=0, select bank0
  8644     146A  1303               	bcf	3,6	;RP1=0, select bank0
  8645     146B  1409               	bsf	9,0	;volatile
  8646     146C                     l3382:
  8647                           
  8648                           ;Funciones_Estado.c: 130:         _delay((unsigned long)((500)*(8000000/4000.0)));
  8649     146C  3006               	movlw	6
  8650     146D  00FC               	movwf	??_function_Alarm+2
  8651     146E  3013               	movlw	19
  8652     146F  00FB               	movwf	??_function_Alarm+1
  8653     1470  30AD               	movlw	173
  8654     1471  00FA               	movwf	??_function_Alarm
  8655     1472                     u5807:
  8656     1472  0BFA               	decfsz	??_function_Alarm,f
  8657     1473  2C72               	goto	u5807
  8658     1474  0BFB               	decfsz	??_function_Alarm+1,f
  8659     1475  2C72               	goto	u5807
  8660     1476  0BFC               	decfsz	??_function_Alarm+2,f
  8661     1477  2C72               	goto	u5807
  8662     1478  2C79               	nop2
  8663     1479                     l3384:
  8664                           
  8665                           ;Funciones_Estado.c: 131:         RE0 = 0;
  8666     1479  1283               	bcf	3,5	;RP0=0, select bank0
  8667     147A  1303               	bcf	3,6	;RP1=0, select bank0
  8668     147B  1009               	bcf	9,0	;volatile
  8669                           
  8670                           ;Funciones_Estado.c: 132:         _delay((unsigned long)((500)*(8000000/4000.0)));
  8671     147C  3006               	movlw	6
  8672     147D  00FC               	movwf	??_function_Alarm+2
  8673     147E  3013               	movlw	19
  8674     147F  00FB               	movwf	??_function_Alarm+1
  8675     1480  30AD               	movlw	173
  8676     1481  00FA               	movwf	??_function_Alarm
  8677     1482                     u5817:
  8678     1482  0BFA               	decfsz	??_function_Alarm,f
  8679     1483  2C82               	goto	u5817
  8680     1484  0BFB               	decfsz	??_function_Alarm+1,f
  8681     1485  2C82               	goto	u5817
  8682     1486  0BFC               	decfsz	??_function_Alarm+2,f
  8683     1487  2C82               	goto	u5817
  8684     1488  2C89               	nop2
  8685     1489                     l3386:
  8686                           
  8687                           ;Funciones_Estado.c: 133:         time++;
  8688     1489  3001               	movlw	1
  8689     148A  00FF               	movwf	btemp+1
  8690     148B  087F               	movf	btemp+1,w
  8691     148C  07FD               	addwf	function_Alarm@time,f
  8692     148D                     l3388:
  8693                           
  8694                           ;Funciones_Estado.c: 128:     while (time < 5) {
  8695     148D  3005               	movlw	5
  8696     148E  027D               	subwf	function_Alarm@time,w
  8697     148F  1C03               	skipc
  8698     1490  2C92               	goto	u4351
  8699     1491  2C93               	goto	u4350
  8700     1492                     u4351:
  8701     1492  2C69               	goto	l252
  8702     1493                     u4350:
  8703     1493                     l253:
  8704                           
  8705                           ;Funciones_Estado.c: 136:     Estado = monitoring;
  8706     1493  1283               	bcf	3,5	;RP0=0, select bank0
  8707     1494  1303               	bcf	3,6	;RP1=0, select bank0
  8708     1495  01EF               	clrf	_Estado
  8709     1496  0AEF               	incf	_Estado,f
  8710     1497                     l254:
  8711     1497  0008               	return
  8712     1498                     __end_of_function_Alarm:
  8713                           
  8714                           	psect	text27
  8715     130F                     __ptext27:	
  8716 ;; *************** function _LCD_String_xy *****************
  8717 ;; Defined at:
  8718 ;;		line 124 in file "lcd.c"
  8719 ;; Parameters:    Size  Location     Type
  8720 ;;  row             1    wreg     unsigned char 
  8721 ;;  pos             1    5[COMMON] unsigned char 
  8722 ;;  msg             2    6[COMMON] PTR const unsigned char 
  8723 ;;		 -> STR_9(19), STR_7(16), STR_6(16), STR_5(13), 
  8724 ;;		 -> STR_4(17), STR_3(15), STR_2(12), buffer(17), 
  8725 ;; Auto vars:     Size  Location     Type
  8726 ;;  row             1    8[COMMON] unsigned char 
  8727 ;;  location        1    9[COMMON] unsigned char 
  8728 ;; Return value:  Size  Location     Type
  8729 ;;                  1    wreg      void 
  8730 ;; Registers used:
  8731 ;;		wreg, fsr0l, fsr0h, status,2, status,0, btemp+1, pclath, cstack
  8732 ;; Tracked objects:
  8733 ;;		On entry : 0/0
  8734 ;;		On exit  : 0/0
  8735 ;;		Unchanged: 0/0
  8736 ;; Data sizes:     COMMON   BANK0   BANK1   BANK3   BANK2
  8737 ;;      Params:         3       0       0       0       0
  8738 ;;      Locals:         2       0       0       0       0
  8739 ;;      Temps:          0       0       0       0       0
  8740 ;;      Totals:         5       0       0       0       0
  8741 ;;Total ram usage:        5 bytes
  8742 ;; Hardware stack levels used: 1
  8743 ;; Hardware stack levels required when called: 2
  8744 ;; This function calls:
  8745 ;;		_LCD_Command
  8746 ;;		_LCD_String
  8747 ;; This function is called by:
  8748 ;;		_function_Monitoring
  8749 ;;		_function_Security
  8750 ;;		_function_Locked
  8751 ;;		_function_Alarm
  8752 ;;		_function_Environment
  8753 ;;		_function_Environment_alarm
  8754 ;; This function uses a non-reentrant model
  8755 ;;
  8756                           
  8757     130F                     _LCD_String_xy:	
  8758                           ;psect for function _LCD_String_xy
  8759                           
  8760                           
  8761                           ;incstack = 0
  8762                           ; Regs used in _LCD_String_xy: [wreg-fsr0h+status,2+status,0+btemp+1+pclath+cstack]
  8763                           ;LCD_String_xy@row stored from wreg
  8764     130F  00F8               	movwf	LCD_String_xy@row
  8765     1310                     l3120:
  8766     1310                     l3122:
  8767                           
  8768                           ;lcd.c: 127:     if (row <= 1)
  8769     1310  3002               	movlw	2
  8770     1311  0278               	subwf	LCD_String_xy@row,w
  8771     1312  1803               	skipnc
  8772     1313  2B15               	goto	u4151
  8773     1314  2B16               	goto	u4150
  8774     1315                     u4151:
  8775     1315  2B21               	goto	l3128
  8776     1316                     u4150:
  8777     1316                     l3124:
  8778                           
  8779                           ;lcd.c: 128:     {;lcd.c: 129:         location = (0x80) | ((pos) & 0x0f);
  8780     1316  0875               	movf	LCD_String_xy@pos,w
  8781     1317  390F               	andlw	15
  8782     1318  3880               	iorlw	128
  8783     1319  00F9               	movwf	LCD_String_xy@location
  8784     131A                     l3126:
  8785                           
  8786                           ;lcd.c: 130:         LCD_Command(location);
  8787     131A  0879               	movf	LCD_String_xy@location,w
  8788     131B  160A  118A  23B1  160A  118A  	fcall	_LCD_Command
  8789                           
  8790                           ;lcd.c: 131:     }
  8791     1320  2B2B               	goto	l3132
  8792     1321                     l3128:
  8793                           
  8794                           ;lcd.c: 133:     {;lcd.c: 134:         location = (0xC0) | ((pos) & 0x0f);
  8795     1321  0875               	movf	LCD_String_xy@pos,w
  8796     1322  390F               	andlw	15
  8797     1323  38C0               	iorlw	192
  8798     1324  00F9               	movwf	LCD_String_xy@location
  8799     1325                     l3130:
  8800                           
  8801                           ;lcd.c: 135:         LCD_Command(location);
  8802     1325  0879               	movf	LCD_String_xy@location,w
  8803     1326  160A  118A  23B1  160A  118A  	fcall	_LCD_Command
  8804     132B                     l3132:
  8805                           
  8806                           ;lcd.c: 137:     LCD_String(msg);
  8807     132B  0876               	movf	LCD_String_xy@msg,w
  8808     132C  00F3               	movwf	LCD_String@msg
  8809     132D  0877               	movf	LCD_String_xy@msg+1,w
  8810     132E  00F4               	movwf	LCD_String@msg+1
  8811     132F  160A  118A  22E9  160A  118A  	fcall	_LCD_String
  8812     1334                     l174:
  8813     1334  0008               	return
  8814     1335                     __end_of_LCD_String_xy:
  8815                           
  8816                           	psect	text28
  8817     12E9                     __ptext28:	
  8818 ;; *************** function _LCD_String *****************
  8819 ;; Defined at:
  8820 ;;		line 104 in file "lcd.c"
  8821 ;; Parameters:    Size  Location     Type
  8822 ;;  msg             2    3[COMMON] PTR const unsigned char 
  8823 ;;		 -> STR_9(19), STR_7(16), STR_6(16), STR_5(13), 
  8824 ;;		 -> STR_4(17), STR_3(15), STR_2(12), buffer(17), 
  8825 ;; Auto vars:     Size  Location     Type
  8826 ;;		None
  8827 ;; Return value:  Size  Location     Type
  8828 ;;                  1    wreg      void 
  8829 ;; Registers used:
  8830 ;;		wreg, fsr0l, fsr0h, status,2, status,0, btemp+1, pclath, cstack
  8831 ;; Tracked objects:
  8832 ;;		On entry : 0/0
  8833 ;;		On exit  : 0/0
  8834 ;;		Unchanged: 0/0
  8835 ;; Data sizes:     COMMON   BANK0   BANK1   BANK3   BANK2
  8836 ;;      Params:         2       0       0       0       0
  8837 ;;      Locals:         0       0       0       0       0
  8838 ;;      Temps:          0       0       0       0       0
  8839 ;;      Totals:         2       0       0       0       0
  8840 ;;Total ram usage:        2 bytes
  8841 ;; Hardware stack levels used: 1
  8842 ;; Hardware stack levels required when called: 1
  8843 ;; This function calls:
  8844 ;;		_LCD_Char
  8845 ;; This function is called by:
  8846 ;;		_LCD_String_xy
  8847 ;; This function uses a non-reentrant model
  8848 ;;
  8849                           
  8850     12E9                     _LCD_String:	
  8851                           ;psect for function _LCD_String
  8852                           
  8853     12E9                     l2758:	
  8854                           ;incstack = 0
  8855                           ; Regs used in _LCD_String: [wreg-fsr0h+status,2+status,0+btemp+1+pclath+cstack]
  8856                           
  8857                           
  8858                           ;lcd.c: 104: void LCD_String(const char *msg);lcd.c: 105: {;lcd.c: 106:  while((*msg) !=
      +                           0)
  8859     12E9  2AFE               	goto	l2764
  8860     12EA                     l2760:
  8861                           
  8862                           ;lcd.c: 107:  {;lcd.c: 108:    LCD_Char(*msg);
  8863     12EA  0874               	movf	LCD_String@msg+1,w
  8864     12EB  00FF               	movwf	btemp+1
  8865     12EC  0873               	movf	LCD_String@msg,w
  8866     12ED  0084               	movwf	4
  8867     12EE  120A  158A  2000  160A  118A  	fcall	stringtab
  8868     12F3  160A  118A  23E7  160A  118A  	fcall	_LCD_Char
  8869     12F8                     l2762:
  8870                           
  8871                           ;lcd.c: 109:    msg++;
  8872     12F8  3001               	movlw	1
  8873     12F9  07F3               	addwf	LCD_String@msg,f
  8874     12FA  1803               	skipnc
  8875     12FB  0AF4               	incf	LCD_String@msg+1,f
  8876     12FC  3000               	movlw	0
  8877     12FD  07F4               	addwf	LCD_String@msg+1,f
  8878     12FE                     l2764:
  8879                           
  8880                           ;lcd.c: 106:  while((*msg) != 0)
  8881     12FE  0874               	movf	LCD_String@msg+1,w
  8882     12FF  1283               	bcf	3,5	;RP0=0, select bank0
  8883     1300  1303               	bcf	3,6	;RP1=0, select bank0
  8884     1301  00FF               	movwf	btemp+1
  8885     1302  0873               	movf	LCD_String@msg,w
  8886     1303  0084               	movwf	4
  8887     1304  120A  158A  2000  160A  118A  	fcall	stringtab
  8888     1309  3A00               	xorlw	0
  8889     130A  1D03               	skipz
  8890     130B  2B0D               	goto	u3381
  8891     130C  2B0E               	goto	u3380
  8892     130D                     u3381:
  8893     130D  2AEA               	goto	l2760
  8894     130E                     u3380:
  8895     130E                     l169:
  8896     130E  0008               	return
  8897     130F                     __end_of_LCD_String:
  8898                           
  8899                           	psect	text29
  8900     13E7                     __ptext29:	
  8901 ;; *************** function _LCD_Char *****************
  8902 ;; Defined at:
  8903 ;;		line 80 in file "lcd.c"
  8904 ;; Parameters:    Size  Location     Type
  8905 ;;  dat             1    wreg     unsigned char 
  8906 ;; Auto vars:     Size  Location     Type
  8907 ;;  dat             1    2[COMMON] unsigned char 
  8908 ;; Return value:  Size  Location     Type
  8909 ;;                  1    wreg      void 
  8910 ;; Registers used:
  8911 ;;		wreg, status,2, status,0
  8912 ;; Tracked objects:
  8913 ;;		On entry : 0/0
  8914 ;;		On exit  : 0/0
  8915 ;;		Unchanged: 0/0
  8916 ;; Data sizes:     COMMON   BANK0   BANK1   BANK3   BANK2
  8917 ;;      Params:         0       0       0       0       0
  8918 ;;      Locals:         1       0       0       0       0
  8919 ;;      Temps:          2       0       0       0       0
  8920 ;;      Totals:         3       0       0       0       0
  8921 ;;Total ram usage:        3 bytes
  8922 ;; Hardware stack levels used: 1
  8923 ;; This function calls:
  8924 ;;		Nothing
  8925 ;; This function is called by:
  8926 ;;		_LCD_String
  8927 ;;		_function_Security
  8928 ;; This function uses a non-reentrant model
  8929 ;;
  8930                           
  8931     13E7                     _LCD_Char:	
  8932                           ;psect for function _LCD_Char
  8933                           
  8934                           
  8935                           ;incstack = 0
  8936                           ; Regs used in _LCD_Char: [wreg+status,2+status,0]
  8937                           ;LCD_Char@dat stored from wreg
  8938     13E7  00F2               	movwf	LCD_Char@dat
  8939     13E8                     l2620:
  8940                           
  8941                           ;lcd.c: 80: void LCD_Char(unsigned char dat);lcd.c: 81: {;lcd.c: 82:  PORTD = (PORTD & 0
      +                          x0f) | (0xF0 & dat);
  8942     13E8  30F0               	movlw	240
  8943     13E9  0572               	andwf	LCD_Char@dat,w
  8944     13EA  00F0               	movwf	??_LCD_Char
  8945     13EB  1283               	bcf	3,5	;RP0=0, select bank0
  8946     13EC  1303               	bcf	3,6	;RP1=0, select bank0
  8947     13ED  0808               	movf	8,w	;volatile
  8948     13EE  390F               	andlw	15
  8949     13EF  0470               	iorwf	??_LCD_Char,w
  8950     13F0  0088               	movwf	8	;volatile
  8951     13F1                     l2622:
  8952                           
  8953                           ;lcd.c: 83:  PORTDbits.RD0 = 1;
  8954     13F1  1408               	bsf	8,0	;volatile
  8955     13F2                     l2624:
  8956                           
  8957                           ;lcd.c: 84:  PORTDbits.RD1 = 1;
  8958     13F2  1488               	bsf	8,1	;volatile
  8959     13F3                     l2626:
  8960                           
  8961                           ;lcd.c: 85:  __nop();
  8962     13F3  0000               	nop
  8963     13F4                     l2628:
  8964                           
  8965                           ;lcd.c: 86:  PORTDbits.RD1 = 0;
  8966     13F4  1283               	bcf	3,5	;RP0=0, select bank0
  8967     13F5  1303               	bcf	3,6	;RP1=0, select bank0
  8968     13F6  1088               	bcf	8,1	;volatile
  8969     13F7                     l2630:
  8970                           
  8971                           ;lcd.c: 87:  _delay((unsigned long)((1)*(8000000/4000.0)));
  8972     13F7  3003               	movlw	3
  8973     13F8  00F1               	movwf	??_LCD_Char+1
  8974     13F9  3097               	movlw	151
  8975     13FA  00F0               	movwf	??_LCD_Char
  8976     13FB                     u5827:
  8977     13FB  0BF0               	decfsz	??_LCD_Char,f
  8978     13FC  2BFB               	goto	u5827
  8979     13FD  0BF1               	decfsz	??_LCD_Char+1,f
  8980     13FE  2BFB               	goto	u5827
  8981     13FF  2C00               	nop2
  8982     1400                     l2632:
  8983                           
  8984                           ;lcd.c: 88:     PORTD = (unsigned char)((PORTD & 0x0f) | (dat<<4));
  8985     1400  0872               	movf	LCD_Char@dat,w
  8986     1401  00F0               	movwf	??_LCD_Char
  8987     1402  3004               	movlw	4
  8988     1403                     u3115:
  8989     1403  1003               	clrc
  8990     1404  0DF0               	rlf	??_LCD_Char,f
  8991     1405  3EFF               	addlw	-1
  8992     1406  1D03               	skipz
  8993     1407  2C03               	goto	u3115
  8994     1408  1283               	bcf	3,5	;RP0=0, select bank0
  8995     1409  1303               	bcf	3,6	;RP1=0, select bank0
  8996     140A  0808               	movf	8,w	;volatile
  8997     140B  390F               	andlw	15
  8998     140C  0470               	iorwf	??_LCD_Char,w
  8999     140D  0088               	movwf	8	;volatile
  9000     140E                     l2634:
  9001                           
  9002                           ;lcd.c: 89:  PORTDbits.RD1 = 1;
  9003     140E  1488               	bsf	8,1	;volatile
  9004     140F                     l2636:
  9005                           
  9006                           ;lcd.c: 90:  __nop();
  9007     140F  0000               	nop
  9008     1410                     l2638:
  9009                           
  9010                           ;lcd.c: 91:  PORTDbits.RD1 = 0;
  9011     1410  1283               	bcf	3,5	;RP0=0, select bank0
  9012     1411  1303               	bcf	3,6	;RP1=0, select bank0
  9013     1412  1088               	bcf	8,1	;volatile
  9014                           
  9015                           ;lcd.c: 92:  _delay((unsigned long)((3)*(8000000/4000.0)));
  9016     1413  3008               	movlw	8
  9017     1414  00F1               	movwf	??_LCD_Char+1
  9018     1415  30C9               	movlw	201
  9019     1416  00F0               	movwf	??_LCD_Char
  9020     1417                     u5837:
  9021     1417  0BF0               	decfsz	??_LCD_Char,f
  9022     1418  2C17               	goto	u5837
  9023     1419  0BF1               	decfsz	??_LCD_Char+1,f
  9024     141A  2C17               	goto	u5837
  9025     141B  2C1C               	nop2
  9026     141C                     l163:
  9027     141C  0008               	return
  9028     141D                     __end_of_LCD_Char:
  9029                           
  9030                           	psect	text30
  9031     127E                     __ptext30:	
  9032 ;; *************** function _LCD_Clear *****************
  9033 ;; Defined at:
  9034 ;;		line 149 in file "lcd.c"
  9035 ;; Parameters:    Size  Location     Type
  9036 ;;		None
  9037 ;; Auto vars:     Size  Location     Type
  9038 ;;		None
  9039 ;; Return value:  Size  Location     Type
  9040 ;;                  1    wreg      void 
  9041 ;; Registers used:
  9042 ;;		wreg, status,2, status,0, pclath, cstack
  9043 ;; Tracked objects:
  9044 ;;		On entry : 0/0
  9045 ;;		On exit  : 0/0
  9046 ;;		Unchanged: 0/0
  9047 ;; Data sizes:     COMMON   BANK0   BANK1   BANK3   BANK2
  9048 ;;      Params:         0       0       0       0       0
  9049 ;;      Locals:         0       0       0       0       0
  9050 ;;      Temps:          2       0       0       0       0
  9051 ;;      Totals:         2       0       0       0       0
  9052 ;;Total ram usage:        2 bytes
  9053 ;; Hardware stack levels used: 1
  9054 ;; Hardware stack levels required when called: 1
  9055 ;; This function calls:
  9056 ;;		_LCD_Command
  9057 ;; This function is called by:
  9058 ;;		_function_Security
  9059 ;;		_function_Locked
  9060 ;;		_function_Alarm
  9061 ;;		_function_Environment
  9062 ;;		_function_Environment_alarm
  9063 ;; This function uses a non-reentrant model
  9064 ;;
  9065                           
  9066     127E                     _LCD_Clear:	
  9067                           ;psect for function _LCD_Clear
  9068                           
  9069     127E                     l3134:	
  9070                           ;incstack = 0
  9071                           ; Regs used in _LCD_Clear: [wreg+status,2+status,0+pclath+cstack]
  9072                           
  9073                           
  9074                           ;lcd.c: 151:     LCD_Command(0x01);
  9075     127E  3001               	movlw	1
  9076     127F  160A  118A  23B1  160A  118A  	fcall	_LCD_Command
  9077     1284                     l3136:
  9078                           
  9079                           ;lcd.c: 152:     _delay((unsigned long)((3)*(8000000/4000.0)));
  9080     1284  3008               	movlw	8
  9081     1285  00F4               	movwf	??_LCD_Clear+1
  9082     1286  30C9               	movlw	201
  9083     1287  00F3               	movwf	??_LCD_Clear
  9084     1288                     u5847:
  9085     1288  0BF3               	decfsz	??_LCD_Clear,f
  9086     1289  2A88               	goto	u5847
  9087     128A  0BF4               	decfsz	??_LCD_Clear+1,f
  9088     128B  2A88               	goto	u5847
  9089     128C  2A8D               	nop2
  9090     128D                     l177:
  9091     128D  0008               	return
  9092     128E                     __end_of_LCD_Clear:
  9093                           
  9094                           	psect	text31
  9095     135C                     __ptext31:	
  9096 ;; *************** function _LCD_Init *****************
  9097 ;; Defined at:
  9098 ;;		line 36 in file "lcd.c"
  9099 ;; Parameters:    Size  Location     Type
  9100 ;;		None
  9101 ;; Auto vars:     Size  Location     Type
  9102 ;;		None
  9103 ;; Return value:  Size  Location     Type
  9104 ;;                  1    wreg      void 
  9105 ;; Registers used:
  9106 ;;		wreg, status,2, status,0, pclath, cstack
  9107 ;; Tracked objects:
  9108 ;;		On entry : 0/0
  9109 ;;		On exit  : 0/0
  9110 ;;		Unchanged: 0/0
  9111 ;; Data sizes:     COMMON   BANK0   BANK1   BANK3   BANK2
  9112 ;;      Params:         0       0       0       0       0
  9113 ;;      Locals:         0       0       0       0       0
  9114 ;;      Temps:          2       0       0       0       0
  9115 ;;      Totals:         2       0       0       0       0
  9116 ;;Total ram usage:        2 bytes
  9117 ;; Hardware stack levels used: 1
  9118 ;; Hardware stack levels required when called: 1
  9119 ;; This function calls:
  9120 ;;		_LCD_Command
  9121 ;; This function is called by:
  9122 ;;		_main
  9123 ;; This function uses a non-reentrant model
  9124 ;;
  9125                           
  9126     135C                     _LCD_Init:	
  9127                           ;psect for function _LCD_Init
  9128                           
  9129     135C                     l3276:	
  9130                           ;incstack = 0
  9131                           ; Regs used in _LCD_Init: [wreg+status,2+status,0+pclath+cstack]
  9132                           
  9133                           
  9134                           ;lcd.c: 37:     TRISD = 0;
  9135     135C  1683               	bsf	3,5	;RP0=1, select bank1
  9136     135D  1303               	bcf	3,6	;RP1=0, select bank1
  9137     135E  0188               	clrf	8	;volatile
  9138     135F                     l3278:
  9139                           
  9140                           ;lcd.c: 38:     _delay((unsigned long)((15)*(8000000/4000.0)));
  9141     135F  3027               	movlw	39
  9142     1360  00F4               	movwf	??_LCD_Init+1
  9143     1361  30F5               	movlw	245
  9144     1362  00F3               	movwf	??_LCD_Init
  9145     1363                     u5857:
  9146     1363  0BF3               	decfsz	??_LCD_Init,f
  9147     1364  2B63               	goto	u5857
  9148     1365  0BF4               	decfsz	??_LCD_Init+1,f
  9149     1366  2B63               	goto	u5857
  9150     1367                     l3280:
  9151                           
  9152                           ;lcd.c: 39:     LCD_Command(0x02);
  9153     1367  3002               	movlw	2
  9154     1368  160A  118A  23B1  160A  118A  	fcall	_LCD_Command
  9155     136D                     l3282:
  9156                           
  9157                           ;lcd.c: 40:     LCD_Command(0x28);
  9158     136D  3028               	movlw	40
  9159     136E  160A  118A  23B1  160A  118A  	fcall	_LCD_Command
  9160     1373                     l3284:
  9161                           
  9162                           ;lcd.c: 41:     LCD_Command(0x01);
  9163     1373  3001               	movlw	1
  9164     1374  160A  118A  23B1  160A  118A  	fcall	_LCD_Command
  9165     1379                     l3286:
  9166                           
  9167                           ;lcd.c: 42:     LCD_Command(0x0c);
  9168     1379  300C               	movlw	12
  9169     137A  160A  118A  23B1  160A  118A  	fcall	_LCD_Command
  9170     137F                     l3288:
  9171                           
  9172                           ;lcd.c: 43:     LCD_Command(0x06);
  9173     137F  3006               	movlw	6
  9174     1380  160A  118A  23B1  160A  118A  	fcall	_LCD_Command
  9175     1385                     l157:
  9176     1385  0008               	return
  9177     1386                     __end_of_LCD_Init:
  9178                           
  9179                           	psect	text32
  9180     13B1                     __ptext32:	
  9181 ;; *************** function _LCD_Command *****************
  9182 ;; Defined at:
  9183 ;;		line 56 in file "lcd.c"
  9184 ;; Parameters:    Size  Location     Type
  9185 ;;  cmd             1    wreg     unsigned char 
  9186 ;; Auto vars:     Size  Location     Type
  9187 ;;  cmd             1    2[COMMON] unsigned char 
  9188 ;; Return value:  Size  Location     Type
  9189 ;;                  1    wreg      void 
  9190 ;; Registers used:
  9191 ;;		wreg, status,2, status,0
  9192 ;; Tracked objects:
  9193 ;;		On entry : 0/0
  9194 ;;		On exit  : 0/0
  9195 ;;		Unchanged: 0/0
  9196 ;; Data sizes:     COMMON   BANK0   BANK1   BANK3   BANK2
  9197 ;;      Params:         0       0       0       0       0
  9198 ;;      Locals:         1       0       0       0       0
  9199 ;;      Temps:          2       0       0       0       0
  9200 ;;      Totals:         3       0       0       0       0
  9201 ;;Total ram usage:        3 bytes
  9202 ;; Hardware stack levels used: 1
  9203 ;; This function calls:
  9204 ;;		Nothing
  9205 ;; This function is called by:
  9206 ;;		_LCD_Init
  9207 ;;		_LCD_String_xy
  9208 ;;		_LCD_Clear
  9209 ;;		_function_Security
  9210 ;; This function uses a non-reentrant model
  9211 ;;
  9212                           
  9213     13B1                     _LCD_Command:	
  9214                           ;psect for function _LCD_Command
  9215                           
  9216                           
  9217                           ;incstack = 0
  9218                           ; Regs used in _LCD_Command: [wreg+status,2+status,0]
  9219                           ;LCD_Command@cmd stored from wreg
  9220     13B1  00F2               	movwf	LCD_Command@cmd
  9221     13B2                     l2738:
  9222                           
  9223                           ;lcd.c: 56: void LCD_Command(unsigned char cmd );lcd.c: 57: {;lcd.c: 58:  PORTD = (PORTD
      +                           & 0x0f) | (0xF0 & cmd);
  9224     13B2  30F0               	movlw	240
  9225     13B3  0572               	andwf	LCD_Command@cmd,w
  9226     13B4  00F0               	movwf	??_LCD_Command
  9227     13B5  1283               	bcf	3,5	;RP0=0, select bank0
  9228     13B6  1303               	bcf	3,6	;RP1=0, select bank0
  9229     13B7  0808               	movf	8,w	;volatile
  9230     13B8  390F               	andlw	15
  9231     13B9  0470               	iorwf	??_LCD_Command,w
  9232     13BA  0088               	movwf	8	;volatile
  9233     13BB                     l2740:
  9234                           
  9235                           ;lcd.c: 59:  PORTDbits.RD0 = 0;
  9236     13BB  1008               	bcf	8,0	;volatile
  9237     13BC                     l2742:
  9238                           
  9239                           ;lcd.c: 60:  PORTDbits.RD1 = 1;
  9240     13BC  1488               	bsf	8,1	;volatile
  9241     13BD                     l2744:
  9242                           
  9243                           ;lcd.c: 61:  __nop();
  9244     13BD  0000               	nop
  9245     13BE                     l2746:
  9246                           
  9247                           ;lcd.c: 62:  PORTDbits.RD1 = 0;
  9248     13BE  1283               	bcf	3,5	;RP0=0, select bank0
  9249     13BF  1303               	bcf	3,6	;RP1=0, select bank0
  9250     13C0  1088               	bcf	8,1	;volatile
  9251     13C1                     l2748:
  9252                           
  9253                           ;lcd.c: 63:  _delay((unsigned long)((1)*(8000000/4000.0)));
  9254     13C1  3003               	movlw	3
  9255     13C2  00F1               	movwf	??_LCD_Command+1
  9256     13C3  3097               	movlw	151
  9257     13C4  00F0               	movwf	??_LCD_Command
  9258     13C5                     u5867:
  9259     13C5  0BF0               	decfsz	??_LCD_Command,f
  9260     13C6  2BC5               	goto	u5867
  9261     13C7  0BF1               	decfsz	??_LCD_Command+1,f
  9262     13C8  2BC5               	goto	u5867
  9263     13C9  2BCA               	nop2
  9264     13CA                     l2750:
  9265                           
  9266                           ;lcd.c: 64:     PORTD = (unsigned char)((PORTD & 0x0f) | (cmd<<4));
  9267     13CA  0872               	movf	LCD_Command@cmd,w
  9268     13CB  00F0               	movwf	??_LCD_Command
  9269     13CC  3004               	movlw	4
  9270     13CD                     u3375:
  9271     13CD  1003               	clrc
  9272     13CE  0DF0               	rlf	??_LCD_Command,f
  9273     13CF  3EFF               	addlw	-1
  9274     13D0  1D03               	skipz
  9275     13D1  2BCD               	goto	u3375
  9276     13D2  1283               	bcf	3,5	;RP0=0, select bank0
  9277     13D3  1303               	bcf	3,6	;RP1=0, select bank0
  9278     13D4  0808               	movf	8,w	;volatile
  9279     13D5  390F               	andlw	15
  9280     13D6  0470               	iorwf	??_LCD_Command,w
  9281     13D7  0088               	movwf	8	;volatile
  9282     13D8                     l2752:
  9283                           
  9284                           ;lcd.c: 65:  PORTDbits.RD1 = 1;
  9285     13D8  1488               	bsf	8,1	;volatile
  9286     13D9                     l2754:
  9287                           
  9288                           ;lcd.c: 66:  __nop();
  9289     13D9  0000               	nop
  9290     13DA                     l2756:
  9291                           
  9292                           ;lcd.c: 67:  PORTDbits.RD1 = 0;
  9293     13DA  1283               	bcf	3,5	;RP0=0, select bank0
  9294     13DB  1303               	bcf	3,6	;RP1=0, select bank0
  9295     13DC  1088               	bcf	8,1	;volatile
  9296                           
  9297                           ;lcd.c: 68:  _delay((unsigned long)((3)*(8000000/4000.0)));
  9298     13DD  3008               	movlw	8
  9299     13DE  00F1               	movwf	??_LCD_Command+1
  9300     13DF  30C9               	movlw	201
  9301     13E0  00F0               	movwf	??_LCD_Command
  9302     13E1                     u5877:
  9303     13E1  0BF0               	decfsz	??_LCD_Command,f
  9304     13E2  2BE1               	goto	u5877
  9305     13E3  0BF1               	decfsz	??_LCD_Command+1,f
  9306     13E4  2BE1               	goto	u5877
  9307     13E5  2BE6               	nop2
  9308     13E6                     l160:
  9309     13E6  0008               	return
  9310     13E7                     __end_of_LCD_Command:
  9311                           
  9312                           	psect	text33
  9313     1263                     __ptext33:	
  9314 ;; *************** function _ADC_Init *****************
  9315 ;; Defined at:
  9316 ;;		line 38 in file "Sensors_Control.c"
  9317 ;; Parameters:    Size  Location     Type
  9318 ;;		None
  9319 ;; Auto vars:     Size  Location     Type
  9320 ;;		None
  9321 ;; Return value:  Size  Location     Type
  9322 ;;                  1    wreg      void 
  9323 ;; Registers used:
  9324 ;;		wreg, status,2, status,0
  9325 ;; Tracked objects:
  9326 ;;		On entry : 0/0
  9327 ;;		On exit  : 0/0
  9328 ;;		Unchanged: 0/0
  9329 ;; Data sizes:     COMMON   BANK0   BANK1   BANK3   BANK2
  9330 ;;      Params:         0       0       0       0       0
  9331 ;;      Locals:         0       0       0       0       0
  9332 ;;      Temps:          0       0       0       0       0
  9333 ;;      Totals:         0       0       0       0       0
  9334 ;;Total ram usage:        0 bytes
  9335 ;; Hardware stack levels used: 1
  9336 ;; This function calls:
  9337 ;;		Nothing
  9338 ;; This function is called by:
  9339 ;;		_main
  9340 ;; This function uses a non-reentrant model
  9341 ;;
  9342                           
  9343     1263                     _ADC_Init:	
  9344                           ;psect for function _ADC_Init
  9345                           
  9346     1263                     l3272:	
  9347                           ;incstack = 0
  9348                           ; Regs used in _ADC_Init: [wreg+status,2+status,0]
  9349                           
  9350                           
  9351                           ;Sensors_Control.c: 39:     ADCON1bits.ADFM = 1;
  9352     1263  1683               	bsf	3,5	;RP0=1, select bank1
  9353     1264  1303               	bcf	3,6	;RP1=0, select bank1
  9354     1265  179F               	bsf	31,7	;volatile
  9355                           
  9356                           ;Sensors_Control.c: 40:     ADCON1bits.VCFG0 = 0;
  9357     1266  121F               	bcf	31,4	;volatile
  9358                           
  9359                           ;Sensors_Control.c: 41:     ADCON1bits.VCFG1 = 0;
  9360     1267  129F               	bcf	31,5	;volatile
  9361     1268                     l3274:
  9362                           
  9363                           ;Sensors_Control.c: 42:     ADCON0bits.ADCS = 0b01;
  9364     1268  1283               	bcf	3,5	;RP0=0, select bank0
  9365     1269  1303               	bcf	3,6	;RP1=0, select bank0
  9366     126A  081F               	movf	31,w	;volatile
  9367     126B  393F               	andlw	-193
  9368     126C  3840               	iorlw	64
  9369     126D  009F               	movwf	31	;volatile
  9370     126E                     l286:
  9371     126E  0008               	return
  9372     126F                     __end_of_ADC_Init:
  9373     007E                     btemp	set	126	;btemp
  9374     007E                     wtemp0	set	126
  9375                           
  9376                           	psect	config
  9377                           
  9378                           ;Config register CONFIG1 @ 0x2007
  9379                           ;	Oscillator Selection bits
  9380                           ;	FOSC = INTRC_CLKOUT, INTOSC oscillator: CLKOUT function on RA6/OSC2/CLKOUT pin, I/O fu
      +                          nction on RA7/OSC1/CLKIN
  9381                           ;	Watchdog Timer Enable bit
  9382                           ;	WDTE = OFF, WDT disabled and can be enabled by SWDTEN bit of the WDTCON register
  9383                           ;	Power-up Timer Enable bit
  9384                           ;	PWRTE = OFF, PWRT disabled
  9385                           ;	RE3/MCLR pin function select bit
  9386                           ;	MCLRE = OFF, RE3/MCLR pin function is digital input, MCLR internally tied to VDD
  9387                           ;	Code Protection bit
  9388                           ;	CP = OFF, Program memory code protection is disabled
  9389                           ;	Data Code Protection bit
  9390                           ;	CPD = OFF, Data memory code protection is disabled
  9391                           ;	Brown Out Reset Selection bits
  9392                           ;	BOREN = OFF, BOR disabled
  9393                           ;	Internal External Switchover bit
  9394                           ;	IESO = OFF, Internal/External Switchover mode is disabled
  9395                           ;	Fail-Safe Clock Monitor Enabled bit
  9396                           ;	FCMEN = OFF, Fail-Safe Clock Monitor is disabled
  9397                           ;	Low Voltage Programming Enable bit
  9398                           ;	LVP = OFF, RB3 pin has digital I/O, HV on MCLR must be used for programming
  9399                           ;	In-Circuit Debugger Mode bit
  9400                           ;	DEBUG = 0x1, unprogrammed default
  9401     2007                     	org	8199
  9402     2007  20D5               	dw	8405
  9403                           
  9404                           ;Config register CONFIG2 @ 0x2008
  9405                           ;	Brown-out Reset Selection bit
  9406                           ;	BOR4V = BOR40V, Brown-out Reset set to 4.0V
  9407                           ;	Flash Program Memory Self Write Enable bits
  9408                           ;	WRT = OFF, Write protection off
  9409     2008                     	org	8200
  9410     2008  3FFF               	dw	16383

Data Sizes:
    Strings     133
    Constant    51
    Data        16
    BSS         31
    Persistent  0
    Stack       0

Auto Spaces:
    Space          Size  Autos    Used
    COMMON           14     14      14
    BANK0            80     79      80
    BANK1            80     51      64
    BANK3            96      0      33
    BANK2            96      0       0

Pointer List with Targets:

    strncmp@s2	PTR const unsigned char  size(1) Largest target is 5
		 -> password(CODE[5]), 

    strncmp@s1	PTR const unsigned char  size(1) Largest target is 5
		 -> pass_user(BANK1[5]), 

    frexp@eptr	PTR int  size(1) Largest target is 2
		 -> log@exponent(BANK0[2]), 

    eval_poly@d	PTR const  size(1) Largest target is 36
		 -> log@coeff(CODE[36]), 

    sprintf@f	PTR const unsigned char  size(1) Largest target is 19
		 -> STR_8(CODE[6]), STR_1(CODE[19]), 

    sprintf@sp	PTR unsigned char  size(1) Largest target is 17
		 -> buffer(BANK3[17]), 

    sprintf@ap	PTR void [1] size(1) Largest target is 2
		 -> ?_sprintf(BANK0[2]), 

    LCD_String_xy@msg	PTR const unsigned char  size(2) Largest target is 19
		 -> STR_9(CODE[19]), STR_7(CODE[16]), STR_6(CODE[16]), STR_5(CODE[13]), 
		 -> STR_4(CODE[17]), STR_3(CODE[15]), STR_2(CODE[12]), buffer(BANK3[17]), 

    LCD_String@msg	PTR const unsigned char  size(2) Largest target is 19
		 -> STR_9(CODE[19]), STR_7(CODE[16]), STR_6(CODE[16]), STR_5(CODE[13]), 
		 -> STR_4(CODE[17]), STR_3(CODE[15]), STR_2(CODE[12]), buffer(BANK3[17]), 


Critical Paths under _main in COMMON

    _main->_function_Alarm
    _main->_function_Environment_alarm
    _main->_function_Security
    _function_Security->_LCD_String_xy
    _function_Locked->_LCD_String_xy
    _function_Environment_alarm->_LCD_String_xy
    _sprintf->___lwmod
    ___lwmod->___lwdiv
    _Calculus_Temperature->___xxtofl
    _log->___xxtofl
    _log->_frexp
    _frexp->___fleq
    ___flmul->___xxtofl
    ___flmul->_frexp
    ___fladd->___xxtofl
    ___fladd->_frexp
    ___fldiv->___xxtofl
    ___fldiv->_frexp
    _function_Alarm->_LCD_String_xy
    _LCD_String_xy->_LCD_String
    _LCD_String->_LCD_Char
    _LCD_Clear->_LCD_Command
    _LCD_Init->_LCD_Command

Critical Paths under _main in BANK0

    _function_Security->_keypad_getkey
    _function_Monitoring->_sprintf
    _Calculus_Temperature->_log
    _log->___fladd
    _eval_poly->___fladd
    ___flmul->_frexp
    ___fladd->___fldiv
    ___fldiv->___flmul

Critical Paths under _main in BANK1

    _main->_function_Environment
    _function_Environment->_Calculus_Temperature
    _Calculus_Temperature->_log
    _log->_eval_poly

Critical Paths under _main in BANK3

    None.

Critical Paths under _main in BANK2

    None.

Call Graph Tables:

 ---------------------------------------------------------------------------------
 (Depth) Function   	        Calls       Base Space   Used Autos Params    Refs
 ---------------------------------------------------------------------------------
 (0) _main                                                 0     0      0   42189
                           _ADC_Init
                           _LCD_Init
                     _function_Alarm
               _function_Environment
         _function_Environment_alarm
                    _function_Locked
                _function_Monitoring
                  _function_Security
                        _keypad_init
 ---------------------------------------------------------------------------------
 (1) _keypad_init                                          0     0      0       0
 ---------------------------------------------------------------------------------
 (1) _function_Security                                    4     4      0    2751
                                             10 COMMON     4     4      0
                           _LCD_Char
                          _LCD_Clear
                        _LCD_Command
                      _LCD_String_xy
                      _keypad_getkey
                            _strncmp
 ---------------------------------------------------------------------------------
 (3) _strncmp                                              6     3      3     319
                                              0 COMMON     6     3      3
 ---------------------------------------------------------------------------------
 (2) _keypad_getkey                                       23    23      0     542
                                              0 COMMON     4     4      0
                                              0 BANK0     19    19      0
 ---------------------------------------------------------------------------------
 (1) _function_Monitoring                                  8     8      0    3085
                                             19 BANK0      6     6      0
                      _LCD_String_xy
                        _Sensors_IHM
                            _sprintf
 ---------------------------------------------------------------------------------
 (2) _Sensors_IHM                                          1     1      0      26
                                              0 COMMON     1     1      0
 ---------------------------------------------------------------------------------
 (1) _function_Locked                                      3     3      0    1756
                                             10 COMMON     3     3      0
                          _LCD_Clear
                      _LCD_String_xy
 ---------------------------------------------------------------------------------
 (1) _function_Environment_alarm                           4     4      0    1780
                                             10 COMMON     4     4      0
                          _LCD_Clear
                      _LCD_String_xy
 ---------------------------------------------------------------------------------
 (1) _function_Environment                                13    13      0   30993
                                             44 BANK1      7     7      0
               _Calculus_Temperature
                          _LCD_Clear
                      _LCD_String_xy
                        _Use_Channel
                            _sprintf
 ---------------------------------------------------------------------------------
 (2) _sprintf                                             27    20      7    1346
                                              0 BANK0     19    12      7
                            ___lwdiv
                            ___lwmod
 ---------------------------------------------------------------------------------
 (3) ___lwmod                                              5     1      4     311
                                              7 COMMON     5     1      4
                            ___lwdiv (ARG)
 ---------------------------------------------------------------------------------
 (3) ___lwdiv                                              7     3      4     314
                                              0 COMMON     7     3      4
 ---------------------------------------------------------------------------------
 (2) _Use_Channel                                          3     1      2     250
                                              0 COMMON     3     1      2
 ---------------------------------------------------------------------------------
 (2) _Calculus_Temperature                                28    26      2   27533
                                             20 BANK1     24    22      2
                            ___fladd
                            ___fldiv
                            ___fltol
                           ___xxtofl
                                _log
 ---------------------------------------------------------------------------------
 (3) _log                                                  6     2      4   20328
                                             77 BANK0      2     2      0
                                             16 BANK1      4     0      4
                            ___fladd
                            ___fldiv (ARG)
                             ___fleq
                             ___flge
                            ___flmul
                           ___xxtofl
                          _eval_poly
                              _frexp
 ---------------------------------------------------------------------------------
 (4) _frexp                                                7     2      5    1132
                                             12 COMMON     2     2      0
                                              0 BANK0      5     0      5
                             ___fleq
 ---------------------------------------------------------------------------------
 (5) ___fleq                                              12     4      8     630
                                              0 COMMON    12     4      8
 ---------------------------------------------------------------------------------
 (4) _eval_poly                                           16     9      7    8719
                                              0 BANK1     16     9      7
                            ___fladd
                            ___fldiv (ARG)
                            ___flmul
 ---------------------------------------------------------------------------------
 (5) ___flmul                                             26    18      8    3853
                                              5 BANK0     26    18      8
                          __Umul8_16
                           ___xxtofl (ARG)
                              _frexp (ARG)
 ---------------------------------------------------------------------------------
 (6) __Umul8_16                                            9     7      2     980
                                              0 COMMON     9     7      2
 ---------------------------------------------------------------------------------
 (5) ___fladd                                             20    12      8    4342
                                             57 BANK0     20    12      8
                            ___fldiv (ARG)
                            ___flmul (ARG)
                           ___xxtofl (ARG)
                              _frexp (ARG)
 ---------------------------------------------------------------------------------
 (4) ___xxtofl                                            14    10      4     656
                                              0 COMMON    14    10      4
 ---------------------------------------------------------------------------------
 (4) ___flge                                              12     4      8     586
                                              0 COMMON    12     4      8
 ---------------------------------------------------------------------------------
 (3) ___fltol                                             10     6      4     305
                                              0 COMMON    10     6      4
 ---------------------------------------------------------------------------------
 (3) ___fldiv                                             26    18      8    1577
                                             31 BANK0     26    18      8
                          __Umul8_16 (ARG)
                             ___fleq (ARG)
                             ___flge (ARG)
                            ___flmul (ARG)
                           ___xxtofl (ARG)
                              _frexp (ARG)
 ---------------------------------------------------------------------------------
 (1) _function_Alarm                                       4     4      0    1780
                                             10 COMMON     4     4      0
                          _LCD_Clear
                      _LCD_String_xy
 ---------------------------------------------------------------------------------
 (2) _LCD_String_xy                                        5     2      3    1712
                                              5 COMMON     5     2      3
                        _LCD_Command
                         _LCD_String
 ---------------------------------------------------------------------------------
 (3) _LCD_String                                           2     0      2     165
                                              3 COMMON     2     0      2
                           _LCD_Char
 ---------------------------------------------------------------------------------
 (4) _LCD_Char                                             3     3      0      44
                                              0 COMMON     3     3      0
 ---------------------------------------------------------------------------------
 (2) _LCD_Clear                                            2     2      0      44
                                              3 COMMON     2     2      0
                        _LCD_Command
 ---------------------------------------------------------------------------------
 (1) _LCD_Init                                             2     2      0      44
                                              3 COMMON     2     2      0
                        _LCD_Command
 ---------------------------------------------------------------------------------
 (3) _LCD_Command                                          3     3      0      44
                                              0 COMMON     3     3      0
 ---------------------------------------------------------------------------------
 (1) _ADC_Init                                             0     0      0       0
 ---------------------------------------------------------------------------------
 Estimated maximum stack depth 6
 ---------------------------------------------------------------------------------

 Call Graph Graphs:

 _main (ROOT)
   _ADC_Init
   _LCD_Init
     _LCD_Command
   _function_Alarm
     _LCD_Clear
       _LCD_Command
     _LCD_String_xy
       _LCD_Command
       _LCD_String
         _LCD_Char
   _function_Environment
     _Calculus_Temperature
       ___fladd
         ___fldiv (ARG)
           __Umul8_16 (ARG)
           ___fleq (ARG)
           ___flge (ARG)
           ___flmul (ARG)
             __Umul8_16
             ___xxtofl (ARG)
             _frexp (ARG)
               ___fleq
           ___xxtofl (ARG)
           _frexp (ARG)
         ___flmul (ARG)
         ___xxtofl (ARG)
         _frexp (ARG)
       ___fldiv
       ___fltol
       ___xxtofl
       _log
         ___fladd
         ___fldiv (ARG)
         ___fleq (ARG)
         ___flge (ARG)
         ___flmul (ARG)
         ___xxtofl (ARG)
         _eval_poly (ARG)
           ___fladd
           ___fldiv (ARG)
           ___flmul (ARG)
         _frexp (ARG)
     _LCD_Clear
     _LCD_String_xy
     _Use_Channel
     _sprintf
       ___lwdiv
       ___lwmod
         ___lwdiv (ARG)
   _function_Environment_alarm
     _LCD_Clear
     _LCD_String_xy
   _function_Locked
     _LCD_Clear
     _LCD_String_xy
   _function_Monitoring
     _LCD_String_xy
     _Sensors_IHM
     _sprintf
   _function_Security
     _LCD_Char
     _LCD_Clear
     _LCD_Command
     _LCD_String_xy
     _keypad_getkey
     _strncmp
   _keypad_init

 Address spaces:
Name               Size   Autos  Total    Cost      Usage
BANK3               60      0      21       9       34.4%
BITBANK3            60      0       0       8        0.0%
SFR3                 0      0       0       4        0.0%
BITSFR3              0      0       0       4        0.0%
BANK2               60      0       0      11        0.0%
BITBANK2            60      0       0      10        0.0%
SFR2                 0      0       0       5        0.0%
BITSFR2              0      0       0       5        0.0%
BANK1               50     33      40       7       80.0%
BITBANK1            50      0       0       6        0.0%
SFR1                 0      0       0       2        0.0%
BITSFR1              0      0       0       2        0.0%
BANK0               50     4F      50       5      100.0%
BITBANK0            50      0       0       4        0.0%
SFR0                 0      0       0       1        0.0%
BITSFR0              0      0       0       1        0.0%
COMMON               E      E       E       1      100.0%
BITCOMMON            E      0       0       0        0.0%
CODE                 0      0       0       0        0.0%
DATA                 0      0      BF      12        0.0%
ABS                  0      0      BF       3        0.0%
NULL                 0      0       0       0        0.0%
STACK                0      0       0       2        0.0%
EEDATA             100      0       0       0        0.0%


Microchip Technology PIC Macro Assembler V2.41 build 20230208172133 
Symbol Table                                                                                   Fri Nov 10 22:01:34 2023

                           ___fldiv@aexp 0058                             ___fldiv@bexp 0057  
                                      pc 0002                             ___fldiv@sign 0050  
                           ?_LCD_Command 0070                                       l83 127D  
                                     fsr 0004                              ?_LCD_String 0073  
                    __Umul8_16@word_mpld 0076                                      l301 12C7  
                                    l142 0C3C                                      l160 13E6  
                                    l163 141C                                      l411 0D2E  
                                    l252 1469                                      l236 16B1  
                                    l157 1385                                      l253 1493  
                                    l245 17FF                                      l174 1334  
                                    l254 1497                                      l263 14AA  
                                    l264 14D4                                      l248 13B0  
                                    l177 128D                                      l169 130E  
                                    l601 1634                                      l265 14D8  
                                    l611 1634                                      l291 12E1  
                                    l259 09C8                                      l292 12E8  
                                    l286 126E                                      l295 0FFF  
                                    l608 161F                                      l712 031D  
                                    l721 0496                                      l289 12DD  
                                    l714 02F6                                      l810 074B  
                                    l298 12BA                                      l299 12C0  
                                    l708 029A                                      l804 07DB  
                                    l733 040A                                      l751 0496  
                                    l823 1349                                      l911 1562  
                                    l592 173A                                      l584 08E4  
                                    l593 1753                                      l729 03E6  
                                    l825 135B                                      l585 0900  
                                    l850 0A80                                      l586 0915  
                                    l739 042C                                      l780 01B8  
                                    l764 00C6                                      l589 16CE  
                                    l861 0A4A                                      l766 023E  
                                    l862 0A56                                      l687 151C  
                                    l848 09EB                                      l697 1456  
                                    l786 022A                                      l875 0E74  
                                    l893 15BE                                      l887 0B5A  
                                    _RC0 0038                                      _RC1 0039  
                                    _RC2 003A                                      _RE0 0048  
                                    _RE1 0049                                      _RE2 004A  
                                    _idx 00D6                                      _log 0D2F  
                                    fsr0 0004                                      indf 0000  
                           ___flmul@aexp 0033                             ___flmul@bexp 0038  
                           ___flmul@sign 0032                             ___flmul@temp 003D  
                           ___flmul@prod 0039                              LCD_Char@dat 0072  
                           ___fltol@exp1 0079                                     l3000 021D  
                                   l3010 0234                                     l3002 0221  
                                   l3012 0238                                     l3004 0229  
                                   l3100 0C12                                     l3020 0B5B  
                                   l3006 022E                                     l3110 0C22  
                                   l3102 0C14                                     l3022 0B71  
                                   l3120 1310                                     l3008 0232  
                                   l4000 0F2E                                     l3200 0CC9  
                                   l3104 0C19                                     l3112 0C26  
                                   l3040 0B8F                                     l3032 0B76  
                                   l3024 0B71                                     l3130 1325  
                                   l3122 1310                                     l4002 0F84  
                                   l3210 0D07                                     l3202 0CCF  
                                   l4010 0916                                     l3114 0C2C  
                                   l3106 0C1B                                     l3050 0B9F  
                                   l3042 0B91                                     l3034 0B7E  
                                   l3026 0B74                                     l3132 132B  
                                   l3124 1316                                     l4004 0FC3  
                                   l3204 0CD2                                     l3212 0D0D  
                                   l4020 0955                                     l4012 091B  
                                   l3140 12B2                                     l3116 0C39  
                                   l3108 0C20                                     l3060 0BBA  
                                   l3044 0B96                                     l3036 0B86  
                                   l3052 0BA3                                     l3300 1759  
                                   l3134 127E                                     l3126 131A  
                                   l4006 0FEA                                     l3206 0CFE  
                                   l3214 0D16                                     l4030 09A7  
                                   l4022 0963                                     l4014 0926  
                                   l3142 12B8                                     l3070 0BCA  
                                   l3062 0BBC                                     l3054 0BA9  
                                   l3046 0B98                                     l3038 0B88  
                                   l3230 1527                                     l3310 177B  
                                   l3302 1764                                     l3136 1284  
                                   l3128 1321                                     l3208 0D03  
                                   l3216 0D26                                     l4104 0C6E  
                                   l3160 0C50                                     l3152 0C40  
                                   l4032 09AC                                     l4024 0968  
                                   l4016 092F                                     l3400 14CA  
                                   l3144 12BE                                     l3080 0BE6  
                                   l3064 0BC1                                     l3056 0BB1  
                                   l3072 0BCE                                     l3048 0B9D  
                                   l3240 1560                                     l3232 1537  
                                   l3320 17A6                                     l3312 1783  
                                   l3304 176A                                     l4040 0006  
                                   l3250 12DA                                     l3218 0D2A  
                                   l3170 0C79                                     l3162 0C54  
                                   l3154 0C42                                     l4034 09B0  
                                   l4026 097E                                     l4018 093D  
                                   l3402 14CE                                     l3146 12C4  
                                   l3138 12B1                                     l3090 0BF6  
                                   l3082 0BE8                                     l3074 0BD5  
                                   l3066 0BC3                                     l3058 0BB3  
                                   l3226 151E                                     l3322 17B1  
                                   l3330 17C7                                     l3314 1787  
                                   l3306 1770                                     l4050 0013  
                                   l4042 000A                                     l2620 13E8  
                                   l3252 12E2                                     l3244 12C8  
                                   l3180 0C92                                     l3172 0C81  
                                   l3164 0C5B                                     l3156 0C45  
                                   l4036 09B5                                     l4028 0998  
                                   l3148 12C6                                     l3084 0BED  
                                   l3076 0BDD                                     l3092 0BFA  
                                   l3068 0BC8                                     l3236 154A  
                                   l3228 151F                                     l3340 17EA  
                                   l3332 17CC                                     l3324 17B4  
                                   l3316 178F                                     l3308 1775  
                                   l4060 0028                                     l4052 0015  
                                   l4044 000B                                     l2630 13F7  
                                   l2622 13F1                                     l3510 133F  
                                   l3246 12D4                                     l3190 0CB0  
                                   l3174 0C85                                     l3158 0C4B  
                                   l4038 09C4                                     l3350 1635  
                                   l3094 0C01                                     l3086 0BEF  
                                   l3078 0BDF                                     l3238 1552  
                                   l3342 17F0                                     l3334 17D7  
                                   l3326 17C1                                     l3318 17A1  
                                   l4070 0043                                     l4062 002B  
                                   l4054 0019                                     l4046 000E  
                                   l3272 1263                                     l3280 1367  
                                   l2632 1400                                     l2624 13F2  
                                   l2800 15ED                                     l3600 02BC  
                                   l3512 1343                                     l3520 08C8  
                                   l3248 12D5                                     l3192 0CB4  
                                   l3176 0C89                                     l3168 0C5C  
                                   l3360 169E                                     l3352 164D  
                                   l3096 0C09                                     l3088 0BF4  
                                   l3336 17DA                                     l3344 17F1  
                                   l3328 17C4                                     l4080 0061  
                                   l4072 0049                                     l4064 0032  
                                   l4056 001E                                     l4048 0011  
                                   l3274 1268                                     l3282 136D  
                                   l2634 140E                                     l2626 13F3  
                                   l2810 15FB                                     l2802 15EF  
                                   l3602 02BE                                     l3610 02C6  
                                   l3514 1352                                     l3506 1336  
                                   l3522 08DC                                     l3194 0CBA  
                                   l3186 0C94                                     l3178 0C8D  
                                   l3370 13A5                                     l3362 1386  
                                   l3354 1657                                     l3098 0C0B  
                                   l3346 17F9                                     l3338 17E7  
                                   l3290 126F                                     l4082 0067  
                                   l4074 004F                                     l4066 0038  
                                   l4058 0023                                     l2740 13BB  
                                   l3284 1373                                     l3276 135C  
                                   l2636 140F                                     l2628 13F4  
                                   l3380 145D                                     l2900 00A8  
                                   l2820 1614                                     l2812 1604  
                                   l2804 15F3                                     l3700 0431  
                                   l3620 0303                                     l3612 02C7  
                                   l3604 02C0                                     l3540 024D  
                                   l3532 023F                                     l3516 1357  
                                   l3508 1338                                     l3524 08F8  
                                   l3196 0CC0                                     l3372 13A8  
                                   l3364 138B                                     l3356 165B  
                                   l3348 17FB                                     l3292 1279  
                                   l4076 0055                                     l4068 003D  
                                   l2750 13CA                                     l2742 13BC  
                                   l3286 1379                                     l3278 135F  
                                   l2638 1410                                     l3382 146C  
                                   l2910 00BC                                     l2902 00A9  
                                   l2822 1624                                     l2814 160D  
                                   l3702 0436                                     l3710 046A  
                                   l3630 0321                                     l3622 0307  
                                   l3614 02DE                                     l3606 02C2  
                                   l3542 0252                                     l3550 0262  
                                   l3534 0244                                     l3526 0912  
                                   l2830 14E1                                     l3198 0CC5  
                                   l3390 1498                                     l3374 13AD  
                                   l3366 1396                                     l3358 1684  
                                   l3294 127A                                     l4078 005B  
                                   l2752 13D8                                     l2744 13BD  
                                   l3288 137F                                     l2760 12EA  
                                   l3384 1479                                     l3376 1457  
                                   l2904 00AE                                     l2912 00BE  
                                   l2824 1629                                     l3720 0482  
                                   l3712 046F                                     l3704 0444  
                                   l3640 034A                                     l3632 0326  
                                   l3624 0308                                     l3616 02FA  
                                   l3608 02C4                                     l3560 0278  
                                   l3552 026A                                     l3544 0257  
                                   l3536 0248                                     l3800 0611  
                                   l3528 0914                                     l2840 1504  
                                   l2832 14E4                                     l3392 1499  
                                   l3368 1399                                     l3296 1754  
                                   l2754 13D9                                     l2746 13BE  
                                   l2738 13B2                                     l2762 12F8  
                                   l3386 1489                                     l3378 1458  
                                   l2930 0107                                     l2914 00CE  
                                   l2922 00E7                                     l2906 00B3  
                                   l3730 0495                                     l3722 0486  
                                   l3714 0474                                     l3706 0448  
                                   l3650 035C                                     l3642 034E  
                                   l3626 0311                                     l3618 0301  
                                   l3570 028F                                     l3562 027C  
                                   l3554 026D                                     l3546 025F  
                                   l3538 024C                                     l3810 06A9  
                                   l3802 0628                                     l2842 150A  
                                   l2834 14EB                                     l2826 14D9  
                                   l3394 149E                                     l3298 1754  
                                   l2756 13DA                                     l2748 13C1  
                                   l2764 12FE                                     l3388 148D  
                                   l2940 0126                                     l2932 010F  
                                   l2924 00EC                                     l2916 00DA  
                                   l2908 00BB                                     l3900 09E3  
                                   l3724 0488                                     l3716 047C  
                                   l3708 0466                                     l3660 03C2  
                                   l3652 0365                                     l3644 0355  
                                   l3636 032F                                     l3628 0315  
                                   l3580 02A8                                     l3572 0290  
                                   l3564 027D                                     l3556 0273  
                                   l3548 0260                                     l3820 0717  
                                   l3812 06CF                                     l3804 0645  
                                   l3740 04A5                                     l3732 0497  
                                   l2844 150B                                     l2836 14EF  
                                   l2828 14DB                                     l2860 1431  
                                   l2852 141D                                     l3396 14AD  
                                   l2758 12E9                                     l2950 0158  
                                   l2942 0138                                     l2934 0117  
                                   l2918 00DE                                     l2790 15C8  
                                   l3910 0A03                                     l3902 09F3  
                                   l3726 048C                                     l3718 0481  
                                   l3670 03F3                                     l3662 03C4  
                                   l3646 0357                                     l3638 0346  
                                   l3654 036A                                     l3590 02B2  
                                   l3582 02AA                                     l3566 0282  
                                   l3574 0292                                     l3558 0274  
                                   l3830 072F                                     l3822 071B  
                                   l3814 06F7                                     l3806 0670  
                                   l3750 04C1                                     l3742 04AA  
                                   l3734 049C                                     l2846 1512  
                                   l2838 14F3                                     l2862 1435  
                                   l2854 1423                                     l2870 1452  
                                   l3398 14BA                                     l2960 0179  
                                   l2952 0159                                     l2944 013C  
                                   l2936 011F                                     l2928 00F5  
                                   l2880 007D                                     l3920 0A2E  
                                   l3912 0A0C                                     l3728 0491  
                                   l3680 040E                                     l3664 03C9  
                                   l3656 0380                                     l3648 035B  
                                   l3592 02B4                                     l3584 02AC  
                                   l3576 02A0                                     l3568 0287  
                                   l3840 0750                                     l3832 0730  
                                   l3824 071C                                     l3816 0700  
                                   l3808 067E                                     l3760 04D4  
                                   l3752 04C6                                     l3744 04AF  
                                   l3736 04A0                                     l2848 1518  
                                   l2864 143F                                     l2856 1426  
                                   l2970 0192                                     l2962 017B  
                                   l2954 0167                                     l2946 013D  
                                   l2938 0121                                     l2890 0091  
                                   l2882 007E                                     l2874 0070  
                                   l2794 15D1                                     l3930 0A58  
                                   l3922 0A35                                     l3914 0A13  
                                   l3906 09FC                                     l3682 0411  
                                   l3674 03FC                                     l3658 03BE  
                                   l3666 03D8                                     l3690 041E  
                                   l3594 02B6                                     l3586 02AE  
                                   l3578 02A4                                     l3842 0755  
                                   l3850 0786                                     l3834 0734  
                                   l3826 0725                                     l3818 070E  
                                   l3770 04F0                                     l3762 04D9  
                                   l3754 04CA                                     l3746 04B7  
                                   l3738 04A4                                     l2866 1445  
                                   l2858 142D                                     l2980 01B5  
                                   l2964 0184                                     l2972 0198  
                                   l2948 0146                                     l2956 016B  
                                   l2884 0083                                     l2892 0093  
                                   l2876 0075                                     l2796 15E4  
                                   l2788 15BF                                     l3932 0A6E  
                                   l3924 0A40                                     l3916 0A17  
                                   l3908 09FF                                     l3692 041F  
                                   l3684 0413                                     l3676 0405  
                                   l3668 03EE                                     l3596 02B8  
                                   l3588 02B0                                     l3860 07B9  
                                   l3852 0793                                     l3844 0763  
                                   l3836 0748                                     l3828 072B  
                                   l3780 0519                                     l3772 04F5  
                                   l3764 04E1                                     l3756 04CE  
                                   l3748 04B9                                     l2868 144C  
                                   l2990 01D4                                     l2974 019C  
                                   l2966 0188                                     l2958 0171  
                                   l2894 009B                                     l2886 0088  
                                   l2878 0079                                     l2798 15E5  
                                   l3934 0A73                                     l3926 0A44  
                                   l3918 0A25                                     l3694 0423  
                                   l3686 0418                                     l3678 0409  
                                   l3598 02BA                                     l3870 07D3  
                                   l3862 07C5                                     l3854 079E  
                                   l3846 0767                                     l3790 05B2  
                                   l3782 0534                                     l3766 04E3  
                                   l3758 04CF                                     l3950 158F  
                                   l3942 1563                                     l2992 01ED  
                                   l2984 01BD                                     l2976 019D  
                                   l2968 0189                                     l2896 00A0  
                                   l2888 0090                                     l3880 16EA  
                                   l3936 0A77                                     l3928 0A4E  
                                   l3696 0429                                     l3688 041A  
                                   l3864 07C9                                     l3856 07AD  
                                   l3848 0780                                     l3792 05BB  
                                   l3784 0550                                     l3776 04FE  
                                   l3768 04EB                                     l3952 15AC  
                                   l3944 157E                                     l2986 01C2  
                                   l2994 01F3                                     l2978 01A1  
                                   l2898 00A4                                     l3890 1752  
                                   l3882 16EE                                     l3874 16B2  
                                   l3938 0A78                                     l3866 07CA  
                                   l3858 07B7                                     l3794 05C9  
                                   l3786 057A                                     l3778 050C  
                                   l3962 0A81                                     l3954 15B9  
                                   l3946 1586                                     l2996 0200  
                                   l2988 01D0                                     l3884 1712  
                                   l3876 16C6                                     l3868 07CF  
                                   l3796 05E6                                     l3788 0596  
                                   l3964 0AB0                                     l3956 15BD  
                                   l3980 0D74                                     l3972 0D2F  
                                   ?_log 00B0                                     l2998 020E  
                                   l3886 1716                                     l3878 16E2  
                                   l3894 09CA                                     l3798 05F4  
                                   l3966 0B4C                                     l3958 15BE  
                                   l3990 0E11                                     l3974 0D4A  
                                   l3888 1750                                     l3896 09CF  
                                   l3968 0B52                                     l3984 0D83  
                                   l3898 09D3                                     l3986 0DEA  
                                   l3978 0D59                                     l3994 0E75  
                                   l3988 0DF2                                     l3996 0E88  
                                   l3998 0EE0                                     STR_1 0856  
                                   STR_2 08B6                                     STR_3 089A  
                                   STR_4 0869                                     STR_5 08A9  
                                   STR_6 087A                                     STR_7 088A  
                                   STR_8 08C2                                     STR_9 0843  
                                   u4000 0BB9                                     u4001 0BB8  
                                   u4010 0BC0                                     u3115 1403  
                                   u4011 0BBF                                     u4100 0C11  
                                   u4020 0BC7                                     u4101 0C10  
                                   u4021 0BC6                                     u4110 0C18  
                                   u4030 0BCE                                     u4111 0C17  
                                   u4031 0BCD                                     u5000 04D9  
                                   u4200 0C89                                     u4120 0C1F  
                                   u4040 0BD5                                     u5001 04D8  
                                   u4201 0C88                                     u4121 0C1E  
                                   u4041 0BD4                                     u3410 15C8  
                                   u5010 04F0                                     u4210 0CAF  
                                   u4130 0C26                                     u4050 0BE5  
                                   u3411 15C7                                     u5011 04EF  
                                   u4211 0CAE                                     u4131 0C25  
                                   u4051 0BE4                                     u3500 1629  
                                   u3420 15DF                                     u5020 04F5  
                                   u4220 0CBA                                     u4140 0C39  
                                   u4060 0BEC                                     u4300 1775  
                                   u3501 1628                                     u5021 04F4  
                                   u4221 0CB9                                     u4141 0C38  
                                   u4061 0BEB                                     u4301 1774  
                                   u4150 1316                                     u3430 15F3  
                                   u3510 14E1                                     u4230 0CC0  
                                   u4070 0BF3                                     u4310 178F  
                                   u4151 1315                                     u3431 15F2  
                                   u5111 0637                                     u5031 0542  
                                   u3511 14E0                                     u4231 0CBF  
                                   u4215 0CAB                                     u4071 0BF2  
                                   u4311 178E                                     u3440 15FA  
                                   u5200 071B                                     u5112 063E  
                                   u5032 0549                                     u3600 1435  
                                   u4240 0D16                                     u4160 12B8  
                                   u4080 0BFA                                     u4320 17A1  
                                   u3441 15F9                                     u3425 15DA  
                                   u5201 071A                                     u5121 0662  
                                   u5113 0645                                     u5105 0613  
                                   u5041 055E                                     u5033 0550  
                                   u3601 1434                                     u4241 0D15  
                                   u4161 12B7                                     u4145 0C35  
                                   u4081 0BF9                                     u4321 17A0  
                                   u5122 0669                                     u5042 0565  
                                   u3530 14F3                                     u3610 143F  
                                   u4250 0D26                                     u4170 12BE  
                                   u4090 0C01                                     u4330 17F9  
                                   u5131 068D                                     u5123 0670  
                                   u5051 0588                                     u5043 056C  
                                   u3531 14F2                                     u3611 143E  
                                   u4251 0D25                                     u4171 12BD  
                                   u4091 0C00                                     u4331 17F8  
                                   u3380 130E                                     u3700 00CE  
                                   u3460 160C                                     u4500 0252  
                                   u5300 07AD                                     u5220 072F  
                                   u5140 06B5                                     u5132 0694  
                                   u5052 058F                                     u4180 12C4  
                                   u4340 1657                                     u4260 1527  
                                   u3381 130D                                     u3701 00CD  
                                   u3461 160B                                     u4501 0251  
                                   u5301 07AC                                     u5221 072E  
                                   u5133 069B                                     u5061 05A4  
                                   u5053 0596                                     u3525 14E5  
                                   u4181 12C3                                     u4341 1656  
                                   u4261 1526                                     u4350 1493  
                                   u3710 00EC                                     u3470 1613  
                                   u4510 0257                                     u4430 1343  
                                   u5310 07C9                                     u5230 0734  
                                   u5062 05AB                                     u3550 1504  
                                   u3630 1452                                     u4190 0C4B  
                                   u4270 1537                                     u3375 13CD  
                                   u4351 1492                                     u3711 00EB  
                                   u3471 1612                                     u3455 15FC  
                                   u4511 0256                                     u4431 1342  
                                   u5311 07C8                                     u5231 0733  
                                   u5215 071E                                     u5151 06C1  
                                   u5063 05B2                                     u3551 1503  
                                   u3631 1451                                     u3615 143B  
                                   u4191 0C4A                                     u4271 1536  
                                   u3720 0126                                     u3640 007D  
                                   u5320 16C6                                     u5400 09D3  
                                   u4600 02EA                                     u4520 0273  
                                   u5240 0748                                     u5160 06DD  
                                   u5152 06C8                                     u4360 14D4  
                                   u4280 1560                                     u3721 0125  
                                   u3641 007C                                     u5321 16C5  
                                   u5401 09D2                                     u4521 0272  
                                   u5305 07A9                                     u5241 0747  
                                   u5153 06CF                                     u5145 06B0  
                                   u5081 05D8                                     u3545 14F4  
                                   u3625 1446                                     u4361 14D3  
                                   u4281 155F                                     u3810 0188  
                                   u3650 0083                                     u3490 1624  
                                   u5330 16E2                                     u5410 09F3  
                                   u4610 02FA                                     u4530 027C  
                                   u4450 1357                                     u5250 074F  
                                   u5082 05DF                                     u4290 12E1  
                                   u3570 1518                                     u3811 0187  
                                   u3651 0082                                     u3491 1623  
                                   u5331 16E1                                     u5411 09F2  
                                   u4611 02F9                                     u4531 027B  
                                   u4451 1356                                     u5251 074E  
                                   u5171 06E9                                     u5091 0603  
                                   u5083 05E6                                     u5075 05B4  
                                   u4291 12E0                                     u3571 1517  
                                   u3555 1500                                     u3900 0200  
                                   u3660 0088                                     u5340 16EE  
                                   u5500 0A63                                     u4700 035B  
                                   u4620 0307                                     u4540 0282  
                                   u5260 0755                                     u5172 06F0  
                                   u5092 060A                                     u4460 08DC  
                                   u3580 1423                                     u3901 01FF  
                                   u3805 017D                                     u3661 0087  
                                   u3485 1616                                     u5341 16ED  
                                   u4701 035A                                     u4621 0306  
                                   u4541 0281                                     u4445 134A  
                                   u5261 0754                                     u5173 06F7  
                                   u5165 06D8                                     u5093 0611  
                                   u4461 08DB                                     u3565 150C  
                                   u3581 1422                                     u3910 021D  
                                   u3830 019C                                     u3750 013C  
                                   u3670 00A8                                     u5510 0A73  
                                   u5430 0A12                                     u4550 0287  
                                   u5270 0767                                     u4470 08F8  
                                   u3911 021C                                     u3831 019B  
                                   u3751 013B                                     u3735 0128  
                                   u3671 00A7                                     u5351 16FD  
                                   u5511 0A72                                     u5431 0A11  
                                   u4551 0286                                     u5271 0766  
                                   u4471 08F7                                     u3920 0232  
                                   u3840 01A1                                     u3680 00AE  
                                   u5360 1716                                     u5352 16FE  
                                   u5520 0A77                                     u4800 040E  
                                   u4720 0380                                     u4640 031D  
                                   u4560 02A0                                     u5280 0776  
                                   u4480 0912                                     u5600 0032  
                                   u3921 0231                                     u3905 01FC  
                                   u3841 01A0                                     u3825 018B  
                                   u3745 0131                                     u3681 00AD  
                                   u5361 1715                                     u5353 1703  
                                   u5521 0A76                                     u5505 0A5E  
                                   u5425 0A04                                     u4801 040D  
                                   u4721 037F                                     u4641 031C  
                                   u4561 029F                                     u5185 06F9  
                                   u4481 0911                                     u5601 0031  
                                   u3850 01B5                                     u3770 0158  
                                   u3690 00B3                                     u5354 1704  
                                   u5450 0A34                                     u4810 0418  
                                   u4650 0321                                     u4570 02A4  
                                   u4490 024C                                     u5290 0793  
                                   u5530 157E                                     u3930 0B63  
                                   u5610 003D                                     u3915 0219  
                                   u3851 01B4                                     u3771 0157  
                                   u3691 00B2                                     u5371 1725  
                                   u5355 1709                                     u5451 0A33  
                                   u4811 0417                                     u4731 0397  
                                   u4723 037C                                     u4715 035E  
                                   u4651 0320                                     u4635 030A  
                                   u4571 02A3                                     u4491 024B  
                                   u5291 0792                                     u5195 0710  
                                   u5531 157D                                     u3595 1427  
                                   u5611 003C                                     u3860 01BC  
                                   u3780 0171                                     u5380 1750  
                                   u5372 1726                                     u5356 170A  
                                   u4900 046F                                     u4820 041E  
                                   u4740 03AB                                     u4732 0398  
                                   u4660 0326                                     u4580 02DE  
                                   u3940 0B7E                                     u5620 0049  
                                   u3861 01BB                                     u3781 0170  
                                   u3765 013F                                     u5381 174F  
                                   u5373 172B                                     u5445 0A26  
                                   u4901 046E                                     u4821 041D  
                                   u4741 03AC                                     u4733 039D  
                                   u4661 0325                                     u4581 02DD  
                                   u5285 0771                                     u4485 090E  
                                   u3941 0B7D                                     u5621 0048  
                                   u3870 01C2                                     u3790 0179  
                                   u5374 172C                                     u5470 0A44  
                                   u5390 09CF                                     u4910 0474  
                                   u4830 0423                                     u4750 03C9  
                                   u4742 03B1                                     u4734 039E  
                                   u4590 02E9                                     u3950 0B8E  
                                   u5630 0055                                     u3871 01C1  
                                   u3791 0178                                     u3775 0154  
                                   u5375 1731                                     u5471 0A43  
                                   u5391 09CE                                     u4911 0473  
                                   u4831 0422                                     u4751 03C8  
                                   u4743 03B2                                     u4735 03A3  
                                   u4671 0338                                     u4591 02E7  
                                   u5295 078F                                     u3951 0B8D  
                                   u5631 0054                                     u3880 01D4  
                                   u5376 1732                                     u5480 0A4A  
                                   u4920 0481                                     u4840 0429  
                                   u4760 03EE                                     u4736 03A4  
                                   u4680 034A                                     u4672 033F  
                                   u5560 0B52                                     u3960 0B95  
                                   u5640 0061                                     u3881 01D3  
                                   u5385 174C                                     u5481 0A49  
                                   u5465 0A39                                     u4921 0480  
                                   u4841 0428                                     u4761 03ED  
                                   u4681 0349                                     u4673 0346  
                                   u4585 02DA                                     u5561 0B51  
                                   u5545 0A86                                     u3961 0B94  
                                   u5641 0060                                     u3890 01E3  
                                   u5490 0A4E                                     u4930 0486  
                                   u4850 0430                                     u4770 03F3  
                                   u4690 034E                                     u5570 0D4A  
                                   u3970 0B9C                                     u5491 0A4D  
                                   u4931 0485                                     u4851 042F  
                                   u4771 03F2                                     u4691 034D  
                                   u5555 0AB9                                     u5571 0D49  
                                   u5707 0C05                                     u3971 0B9B  
                                   u4940 0495                                     u4860 0436  
                                   u5580 0D74                                     u3980 0BA3  
                                   u4941 0494                                     u4861 0435  
                                   u5581 0D73                                     u5717 1697  
                                   u3981 0BA2                                     u4870 0448  
                                   u4790 0409                                     u4950 04A4  
                                   u5590 09A7                                     u3990 0BA9  
                                   u5807 1472                                     u3895 01DE  
                                   u4871 0447                                     u4791 0408  
                                   u4951 04A3                                     u5591 09A6  
                                   u5727 16A6                                     u3991 0BA8  
                                   u4880 0457                                     u4960 04AA  
                                   u5817 1482                                     u4785 03FE  
                                   u4961 04A9                                     u5737 139F  
                                   u5657 17BA                                     u4890 0466  
                                   u4970 04AF                                     u5827 13FB  
                                   u4891 0465                                     u4971 04AE  
                                   u5595 09A3                                     u5747 14B3  
                                   u5667 17E0                                     u4980 04CE  
                                   u5837 1417                                     u4885 0452  
                                   u4981 04CD                                     u5757 14C3  
                                   u5677 0B82                                     u4990 04D4  
                                   u5847 1288                                     u4991 04D3  
                                   u5767 095D                                     u5687 0BAD  
                                   u5857 1363                                     u5777 0991  
                                   u5697 0BD9                                     u5867 13C5  
                                   u5787 09BD                                     u5877 13E1  
                                   u5797 12D7                                     _main 0006  
                                   btemp 007E                                     log@x 00B0  
                       __end_of_ADC_Init 126F                                     start 0000  
                        ___fldiv@new_exp 0051                            _LCD_String_xy 130F  
                                  ??_log 007E                         __end_of_LCD_Char 141D  
                       __end_of_LCD_Init 1386                            ___fltol@sign1 0078  
                        __end_of___fladd 0497                                    ?_main 0070  
                        __end_of___fldiv 023F                          __end_of___flmul 07DC  
                        __end_of___fltol 1635              ?_function_Environment_alarm 0070  
                                  _ANSEL 0188                          __end_of___lwdiv 151D  
                        __end_of___lwmod 1457                                    _PORTB 0006  
                                  _PORTD 0008                                    _PORTE 0009  
                                  _TRISA 0085                                    _TRISB 0086  
                                  _TRISC 0087                                    _TRISD 0088  
                                  _TRISE 0089                          __end_of_dpowers 081A  
                           ?_keypad_init 0070                                    _frexp 1563  
                                  _errno 00D3                                    pclath 000A  
                       ??_function_Alarm 007A                                    status 0003  
                                  wtemp0 007E                          __end_of_sprintf 0D2F  
                        __end_of_strncmp 1563                           ?_LCD_String_xy 0075  
                        __initialization 07DC                              log@exponent 006D  
                            _system_lock 00D5                             __end_of_main 0070  
              Calculus_Temperature@tempC 00C8                                   ??_main 007E  
                      __end_of_LCD_Clear 128E              __end_of_function_Monitoring 16B2  
                                 ?_frexp 0020                                   _ADRESH 001E  
                                 _ADRESL 009E                                   _ANSELH 0189  
                       LCD_String_xy@msg 0076                         LCD_String_xy@pos 0075  
                       LCD_String_xy@row 0078                                   _OSCCON 008F  
                       __end_of___xxtofl 0A81                                   _Estado 006F  
                                 ___flge 16B2                                   ___fleq 08C8  
           __end_of_function_Environment 09C9                                ??___fladd 0061  
                              ??___fldiv 0047                                ??___flmul 002D  
                              ??___fltol 0074                                ??___lwdiv 0074  
                              ??___lwmod 007B                                   _buffer 0190  
                          ??_Sensors_IHM 0070                                   _intend 00D7  
              _Calculus_Temperature$1076 00BC                _Calculus_Temperature$1077 00C0  
              _Calculus_Temperature$1078 00C4                         __end_of_password 0843  
                              ?_ADC_Init 0070                        Use_Channel@select 0070  
                        _var_sensor_hall 00D9                            ??_Use_Channel 0072  
                      ??_function_Locked 007A                       function_Alarm@time 007D  
                              ??_sprintf 0027                                ??_strncmp 0073  
                             ___flge@ff1 0070                               ___flge@ff2 0074  
                           ___xxtofl@arg 007A                             ___xxtofl@exp 0079  
                           ___xxtofl@val 0070                               ___fleq@ff1 0070  
                             ___fleq@ff2 0074                         __end_oflog@coeff 083E  
                              ?_LCD_Char 0070                  __end_of__initialization 07FC  
                              ?_LCD_Init 0070                          ??_LCD_String_xy 0078  
                           eval_poly@res 00AC                               ___fltol@f1 0070  
                         __pcstackCOMMON 0070                             __pidataBANK3 128E  
                          __end_of_frexp 15BF                Sensors_IHM@alarm_activate 0070  
                           ??_LCD_String 0075                           _OPTION_REGbits 0081  
                             ??_ADC_Init 0070                      __end_of_Sensors_IHM 12C8  
                                ??_frexp 007C                               __pbssBANK0 006F  
                             __pbssBANK1 00D3                               __pbssBANK3 0190  
                             ??_LCD_Char 0070                               ??_LCD_Init 0073  
                    __end_of_Use_Channel 12E9                       __end_of_LCD_String 130F  
                      __end_of__Umul8_16 135C                               __pmaintext 0006  
                                ?___flge 0070                                  ?___fleq 0070  
        function_Environment_alarm@time2 007D                     keypad_getkey@letters 0020  
                          _keypad_getkey 0B5B                                ?___xxtofl 0070  
                   _function_Environment 0916                               __stringtab 0800  
                          LCD_String@msg 0073                                  ___fladd 023F  
                                ___fldiv 0070                                  ___flmul 0497  
                                ___fltol 15BF                                  ___lwdiv 14D9  
                                ___lwmod 141D                              _Sensors_IHM 12B1  
                      __end_of_eval_poly 0B5B                                  __ptext1 126F  
                                __ptext2 1754                                  __ptext3 151D  
                                __ptext4 0B5B                                  __ptext5 1635  
                                __ptext6 12B1                                  __ptext7 1386  
                                __ptext8 1498                                  __ptext9 0916  
                         ?_keypad_getkey 0070                                  _dpowers 0810  
                             ??___xxtofl 0074                                _LCD_Clear 127E  
                            _Use_Channel 12C8                    ?_function_Environment 0070  
                                _sprintf 0C3D                                  clrloop0 125C  
                                _strncmp 151D                     end_of_initialization 07FC  
                         LCD_Command@cmd 0072                         _var_sensor_metal 00D8  
                        _function_Locked 1386                                _PORTDbits 0008  
                            ___fladd@grs 006C                            ___xxtofl@sign 0078  
                             ?_LCD_Clear 0070                              ___fldiv@grs 0053  
                            ___fldiv@rem 004C             __end_of_Calculus_Temperature 1000  
                            ___flmul@grs 0034          Calculus_Temperature@temperature 00B4  
                   function_Security@key 007D                            ??_LCD_Command 0070  
                         __end_of___flge 1754                           __end_of___fleq 0916  
                        ??_keypad_getkey 0070                       keypad_getkey@F1268 01A1  
                    start_initialization 07DC                               eval_poly@d 00A4  
                             eval_poly@n 00A5                               eval_poly@x 00A0  
                 ??_function_Environment 00CC                              __end_of_log 0E75  
                             frexp@value 0020                       keypad_getkey@value 0030  
                  __end_of_LCD_String_xy 1335                  __end_of_function_Locked 13B1  
  function_Environment@value_temperature 00CF                                 ??___flge 0078  
                               ??___fleq 0078                               init_fetch0 129E  
                              __Umul8_16 1335                              __pdataBANK3 01A1  
                              ___fladd@a 005D                                ___fladd@b 0059  
           ??_function_Environment_alarm 007A                                ___fldiv@a 003F  
                              ___fldiv@b 0043                      __end_of_LCD_Command 13E7  
                              ___flmul@a 0029                                ___flmul@b 0025  
                              ___latbits 0002                            __pcstackBANK0 0020  
                          __pcstackBANK1 00A0                              ??_LCD_Clear 0073  
                          ??_keypad_init 0070                              sprintf@ccnt 002C  
                            sprintf@flag 002B                              sprintf@prec 002E  
                       ___lwdiv@dividend 0072                                 ?___fladd 0059  
                               ?___fldiv 003F                                 ?___flmul 0025  
                               ?___fltol 0070  function_Environment@temperature_celsius 00D1  
                             ?__Umul8_16 0070                                 ?___lwdiv 0070  
                               ?___lwmod 0077                     _Calculus_Temperature 0E75  
                           ?_Sensors_IHM 0070                                __pstrings 0800  
                              _eval_poly 0A81                                 _ADC_Init 1263  
                           ?_Use_Channel 0070                         ___lwdiv@quotient 0074  
                  LCD_String_xy@location 0079                                 ?_sprintf 0020  
                               ?_strncmp 0070                                 _LCD_Char 13E7  
                               _LCD_Init 135C                                _pass_user 00DB  
                    __end_of_keypad_init 127E                                clear_ram0 125B  
                       ?_function_Locked 0070                           _function_Alarm 1457  
                  ?_Calculus_Temperature 00B4                      _function_Monitoring 1635  
                            _LCD_Command 13B1                               _ADCON0bits 001F  
                            __stringbase 080F                               _ADCON1bits 009F  
                             ?_eval_poly 00A0                     ?_function_Monitoring 0070  
                              frexp@eptr 0024                   __end_of_function_Alarm 1498  
                          _var_sensor_ir 00DA                              ??__Umul8_16 0072  
                     __end_of__stringtab 0810       __end_of_function_Environment_alarm 14D9  
             _function_Environment_alarm 1498                               sprintf@val 002F  
                               ___xxtofl 09C9                          ___lwdiv@divisor 0070  
                        ___lwdiv@counter 0076                                 __ptext10 0C3D  
                               __ptext11 141D                                 __ptext20 1335  
                               __ptext12 14D9                                 __ptext21 023F  
                               __ptext13 12C8                                 __ptext30 127E  
                               __ptext22 09C9                                 __ptext14 0E75  
                               __ptext31 135C                                 __ptext23 16B2  
                               __ptext15 0D2F                                 __ptext32 13B1  
                               __ptext24 15BF                                 __ptext16 1563  
                               __ptext33 1263                                 __ptext25 0070  
                               __ptext17 08C8                                 __ptext26 1457  
                               __ptext18 0A81                                 __ptext27 130F  
                               __ptext19 0497                                 __ptext28 12E9  
                               __ptext29 13E7                    ??_function_Monitoring 0033  
                            _keypad_init 126F                    Calculus_Temperature@a 00B8  
                             strncmp@len 0071                                 _password 083E  
                        ?_function_Alarm 0070                   ??_Calculus_Temperature 00B6  
                             _LCD_String 12E9                    __end_of_keypad_getkey 0C3D  
                               log@coeff 081A                              ??_eval_poly 00A7  
                               init_ram0 12A2                                sprintf@ap 002A  
                              sprintf@sp 0031                         ___lwmod@dividend 0079  
                              strncmp@s1 0075                                strncmp@s2 0070  
                              stringcode 080A                        _function_Security 1754  
                     ?_function_Security 0070                   __Umul8_16@multiplicand 0070  
                               sprintf@c 0032                                 sprintf@f 0020  
                    ??_function_Security 007A                          ___lwmod@divisor 0077  
                        ___lwmod@counter 007B                                 stringdir 080A  
                               stringtab 0800                           keypad_getkey@i 0031  
                          ___fladd@signs 0069                             ___fladd@aexp 006A  
                           ___fladd@bexp 006B                     __Umul8_16@multiplier 0078  
              __end_of_function_Security 1800                        __Umul8_16@product 0074  
